ARM GAS  /tmp/ccaM5UBT.s 			page 1


   1              		.cpu cortex-m4
   2              		.eabi_attribute 27, 1
   3              		.eabi_attribute 28, 1
   4              		.eabi_attribute 20, 1
   5              		.eabi_attribute 21, 1
   6              		.eabi_attribute 23, 3
   7              		.eabi_attribute 24, 1
   8              		.eabi_attribute 25, 1
   9              		.eabi_attribute 26, 1
  10              		.eabi_attribute 30, 1
  11              		.eabi_attribute 34, 1
  12              		.eabi_attribute 18, 4
  13              		.file	"application_log.c"
  14              		.text
  15              	.Ltext0:
  16              		.cfi_sections	.debug_frame
  17              		.section	.text._log_init,"ax",%progbits
  18              		.align	1
  19              		.global	_log_init
  20              		.arch armv7e-m
  21              		.syntax unified
  22              		.thumb
  23              		.thumb_func
  24              		.fpu fpv4-sp-d16
  26              	_log_init:
  27              	.LVL0:
  28              	.LFB135:
  29              		.file 1 "/home/takumi/takumique/main/reservoir/app/cmcis/application_log.c"
   1:/home/takumi/takumique/main/reservoir/app/cmcis/application_log.c **** #include "application_log.h"
   2:/home/takumi/takumique/main/reservoir/app/cmcis/application_log.c **** 
   3:/home/takumi/takumique/main/reservoir/app/cmcis/application_log.c **** UART_HandleTypeDef *_log_uart = NULL;
   4:/home/takumi/takumique/main/reservoir/app/cmcis/application_log.c **** 
   5:/home/takumi/takumique/main/reservoir/app/cmcis/application_log.c **** void _log_init(UART_HandleTypeDef *log_uart) {
  30              		.loc 1 5 46 view -0
  31              		.cfi_startproc
  32              		@ args = 0, pretend = 0, frame = 0
  33              		@ frame_needed = 0, uses_anonymous_args = 0
  34              		@ link register save eliminated.
   6:/home/takumi/takumique/main/reservoir/app/cmcis/application_log.c ****   _log_uart = log_uart;
  35              		.loc 1 6 3 view .LVU1
  36              		.loc 1 6 13 is_stmt 0 view .LVU2
  37 0000 014B     		ldr	r3, .L2
  38 0002 1860     		str	r0, [r3]
   7:/home/takumi/takumique/main/reservoir/app/cmcis/application_log.c **** }
  39              		.loc 1 7 1 view .LVU3
  40 0004 7047     		bx	lr
  41              	.L3:
  42 0006 00BF     		.align	2
  43              	.L2:
  44 0008 00000000 		.word	.LANCHOR0
  45              		.cfi_endproc
  46              	.LFE135:
  48              		.section	.text._log,"ax",%progbits
  49              		.align	1
  50              		.global	_log
  51              		.syntax unified
  52              		.thumb
ARM GAS  /tmp/ccaM5UBT.s 			page 2


  53              		.thumb_func
  54              		.fpu fpv4-sp-d16
  56              	_log:
  57              	.LVL1:
  58              	.LFB136:
   8:/home/takumi/takumique/main/reservoir/app/cmcis/application_log.c **** 
   9:/home/takumi/takumique/main/reservoir/app/cmcis/application_log.c **** void _log(const char *buf) {
  59              		.loc 1 9 28 is_stmt 1 view -0
  60              		.cfi_startproc
  61              		@ args = 0, pretend = 0, frame = 0
  62              		@ frame_needed = 0, uses_anonymous_args = 0
  63              		.loc 1 9 28 is_stmt 0 view .LVU5
  64 0000 38B5     		push	{r3, r4, r5, lr}
  65              	.LCFI0:
  66              		.cfi_def_cfa_offset 16
  67              		.cfi_offset 3, -16
  68              		.cfi_offset 4, -12
  69              		.cfi_offset 5, -8
  70              		.cfi_offset 14, -4
  10:/home/takumi/takumique/main/reservoir/app/cmcis/application_log.c ****   if(_log_uart != NULL) {
  71              		.loc 1 10 3 is_stmt 1 view .LVU6
  72              		.loc 1 10 16 is_stmt 0 view .LVU7
  73 0002 074B     		ldr	r3, .L7
  74 0004 1D68     		ldr	r5, [r3]
  75              		.loc 1 10 5 view .LVU8
  76 0006 4DB1     		cbz	r5, .L4
  77 0008 0446     		mov	r4, r0
  11:/home/takumi/takumique/main/reservoir/app/cmcis/application_log.c ****     HAL_UART_Transmit(_log_uart, (uint8_t *) buf, strlen(buf), 0xffff);
  78              		.loc 1 11 5 is_stmt 1 view .LVU9
  79              		.loc 1 11 51 is_stmt 0 view .LVU10
  80 000a FFF7FEFF 		bl	strlen
  81              	.LVL2:
  82              		.loc 1 11 5 view .LVU11
  83 000e 4FF6FF73 		movw	r3, #65535
  84 0012 82B2     		uxth	r2, r0
  85 0014 2146     		mov	r1, r4
  86 0016 2846     		mov	r0, r5
  87 0018 FFF7FEFF 		bl	HAL_UART_Transmit
  88              	.LVL3:
  89              	.L4:
  12:/home/takumi/takumique/main/reservoir/app/cmcis/application_log.c ****   }
  13:/home/takumi/takumique/main/reservoir/app/cmcis/application_log.c **** }
  90              		.loc 1 13 1 view .LVU12
  91 001c 38BD     		pop	{r3, r4, r5, pc}
  92              	.L8:
  93 001e 00BF     		.align	2
  94              	.L7:
  95 0020 00000000 		.word	.LANCHOR0
  96              		.cfi_endproc
  97              	.LFE136:
  99              		.global	_log_uart
 100              		.section	.bss._log_uart,"aw",%nobits
 101              		.align	2
 102              		.set	.LANCHOR0,. + 0
 105              	_log_uart:
 106 0000 00000000 		.space	4
 107              		.text
ARM GAS  /tmp/ccaM5UBT.s 			page 3


 108              	.Letext0:
 109              		.file 2 "/usr/lib/gcc/arm-none-eabi/9.2.1/include/stddef.h"
 110              		.file 3 "/usr/include/newlib/machine/_default_types.h"
 111              		.file 4 "/usr/include/newlib/sys/_types.h"
 112              		.file 5 "/usr/include/newlib/sys/reent.h"
 113              		.file 6 "/usr/include/newlib/sys/lock.h"
 114              		.file 7 "/usr/include/newlib/sys/_stdint.h"
 115              		.file 8 "Drivers/CMSIS/Include/core_cm4.h"
 116              		.file 9 "Drivers/CMSIS/Device/ST/STM32L4xx/Include/system_stm32l4xx.h"
 117              		.file 10 "Drivers/CMSIS/Device/ST/STM32L4xx/Include/stm32l476xx.h"
 118              		.file 11 "Drivers/STM32L4xx_HAL_Driver/Inc/stm32l4xx_hal_def.h"
 119              		.file 12 "Drivers/STM32L4xx_HAL_Driver/Inc/stm32l4xx_hal_dma.h"
 120              		.file 13 "Drivers/STM32L4xx_HAL_Driver/Inc/stm32l4xx_hal_flash.h"
 121              		.file 14 "Drivers/STM32L4xx_HAL_Driver/Inc/stm32l4xx_hal_uart.h"
 122              		.file 15 "Drivers/STM32L4xx_HAL_Driver/Inc/stm32l4xx_hal.h"
 123              		.file 16 "/usr/include/newlib/string.h"
ARM GAS  /tmp/ccaM5UBT.s 			page 4

