ARM GAS  /tmp/cchpqnQj.s 			page 1


   1              		.cpu cortex-m4
   2              		.eabi_attribute 27, 1
   3              		.eabi_attribute 28, 1
   4              		.eabi_attribute 20, 1
   5              		.eabi_attribute 21, 1
   6              		.eabi_attribute 23, 3
   7              		.eabi_attribute 24, 1
   8              		.eabi_attribute 25, 1
   9              		.eabi_attribute 26, 1
  10              		.eabi_attribute 30, 1
  11              		.eabi_attribute 34, 1
  12              		.eabi_attribute 18, 4
  13              		.file	"application.c"
  14              		.text
  15              	.Ltext0:
  16              		.cfi_sections	.debug_frame
  17              		.section	.rodata.print_res_head.str1.4,"aMS",%progbits,1
  18              		.align	2
  19              	.LC1:
  20 0000 25730D0A 		.ascii	"%s\015\012\000"
  20      00
  21              		.global	__aeabi_f2d
  22 0005 000000   		.align	2
  23              	.LC2:
  24 0008 7265732D 		.ascii	"res->in_weights: %f %f %f %f\015\012\000"
  24      3E696E5F 
  24      77656967 
  24      6874733A 
  24      20256620 
  25 0027 00       		.align	2
  26              	.LC3:
  27 0028 7265732D 		.ascii	"res->res_weights: %f %f %f %f\015\012\000"
  27      3E726573 
  27      5F776569 
  27      67687473 
  27      3A202566 
  28              		.align	2
  29              	.LC4:
  30 0048 7265732D 		.ascii	"res->out_weights: %f %f %f %f\015\012\000"
  30      3E6F7574 
  30      5F776569 
  30      67687473 
  30      3A202566 
  31              		.align	2
  32              	.LC5:
  33 0068 7265732D 		.ascii	"res->res_nodes: %f %f %f %f\015\012\000"
  33      3E726573 
  33      5F6E6F64 
  33      65733A20 
  33      25662025 
  34 0086 0000     		.align	2
  35              	.LC6:
  36 0088 7265732D 		.ascii	"res->x: %f %f %f %f\015\012\000"
  36      3E783A20 
  36      25662025 
  36      66202566 
  36      2025660D 
ARM GAS  /tmp/cchpqnQj.s 			page 2


  37 009e 0000     		.align	2
  38              	.LC7:
  39 00a0 7265732D 		.ascii	"res->y: %f %f %f %f\015\012\000"
  39      3E793A20 
  39      25662025 
  39      66202566 
  39      2025660D 
  40              		.section	.text.print_res_head,"ax",%progbits
  41              		.align	1
  42              		.arch armv7e-m
  43              		.syntax unified
  44              		.thumb
  45              		.thumb_func
  46              		.fpu fpv4-sp-d16
  48              	print_res_head:
  49              	.LVL0:
  50              	.LFB176:
  51              		.file 1 "/home/takumi/takumique/main/reservoir/app/cmcis/application.c"
   1:/home/takumi/takumique/main/reservoir/app/cmcis/application.c **** #include "application.h"
   2:/home/takumi/takumique/main/reservoir/app/cmcis/application.c **** 
   3:/home/takumi/takumique/main/reservoir/app/cmcis/application.c **** #include <stdlib.h>
   4:/home/takumi/takumique/main/reservoir/app/cmcis/application.c **** 
   5:/home/takumi/takumique/main/reservoir/app/cmcis/application.c **** #include "reservoir.h"
   6:/home/takumi/takumique/main/reservoir/app/cmcis/application.c **** 
   7:/home/takumi/takumique/main/reservoir/app/cmcis/application.c **** extern const VAL_T __training_data[];
   8:/home/takumi/takumique/main/reservoir/app/cmcis/application.c **** 
   9:/home/takumi/takumique/main/reservoir/app/cmcis/application.c **** static void print_res_head(reservoir_t *res, char *label) {
  52              		.loc 1 9 59 view -0
  53              		.cfi_startproc
  54              		@ args = 0, pretend = 0, frame = 64
  55              		@ frame_needed = 0, uses_anonymous_args = 0
  56              		.loc 1 9 59 is_stmt 0 view .LVU1
  57 0000 2DE9F04D 		push	{r4, r5, r6, r7, r8, r10, fp, lr}
  58              	.LCFI0:
  59              		.cfi_def_cfa_offset 32
  60              		.cfi_offset 4, -32
  61              		.cfi_offset 5, -28
  62              		.cfi_offset 6, -24
  63              		.cfi_offset 7, -20
  64              		.cfi_offset 8, -16
  65              		.cfi_offset 10, -12
  66              		.cfi_offset 11, -8
  67              		.cfi_offset 14, -4
  68 0004 2DED028B 		vpush.64	{d8}
  69              	.LCFI1:
  70              		.cfi_def_cfa_offset 40
  71              		.cfi_offset 80, -40
  72              		.cfi_offset 81, -36
  73 0008 98B0     		sub	sp, sp, #96
  74              	.LCFI2:
  75              		.cfi_def_cfa_offset 136
  76 000a 0446     		mov	r4, r0
  10:/home/takumi/takumique/main/reservoir/app/cmcis/application.c ****   if(label) {
  77              		.loc 1 10 3 is_stmt 1 view .LVU2
  78              		.loc 1 10 5 is_stmt 0 view .LVU3
  79 000c 41B1     		cbz	r1, .L2
  80 000e 0B46     		mov	r3, r1
ARM GAS  /tmp/cchpqnQj.s 			page 3


  11:/home/takumi/takumique/main/reservoir/app/cmcis/application.c **** 	  LOG("%s\r\n", label);
  81              		.loc 1 11 4 is_stmt 1 view .LVU4
  82              	.LBB2:
  83              		.loc 1 11 4 view .LVU5
  84              		.loc 1 11 4 view .LVU6
  85 0010 C24A     		ldr	r2, .L40
  86 0012 4021     		movs	r1, #64
  87              	.LVL1:
  88              		.loc 1 11 4 is_stmt 0 view .LVU7
  89 0014 08A8     		add	r0, sp, #32
  90              	.LVL2:
  91              		.loc 1 11 4 view .LVU8
  92 0016 FFF7FEFF 		bl	snprintf
  93              	.LVL3:
  94              		.loc 1 11 4 is_stmt 1 view .LVU9
  95 001a 08A8     		add	r0, sp, #32
  96 001c FFF7FEFF 		bl	_log
  97              	.LVL4:
  98              	.L2:
  99              	.LBE2:
 100              		.loc 1 11 4 view .LVU10
  12:/home/takumi/takumique/main/reservoir/app/cmcis/application.c ****   }
  13:/home/takumi/takumique/main/reservoir/app/cmcis/application.c ****   LOG("res->in_weights: %f %f %f %f\r\n",
 101              		.loc 1 13 3 view .LVU11
 102              	.LBB3:
 103              		.loc 1 13 3 view .LVU12
 104              		.loc 1 13 3 view .LVU13
 105 0020 6569     		ldr	r5, [r4, #20]
 106 0022 2868     		ldr	r0, [r5]	@ float
 107 0024 FFF7FEFF 		bl	__aeabi_f2d
 108              	.LVL5:
 109 0028 0646     		mov	r6, r0
 110 002a 0F46     		mov	r7, r1
 111 002c D4F82080 		ldr	r8, [r4, #32]
 112 0030 B8F1000F 		cmp	r8, #0
 113 0034 00F05E81 		beq	.L3
 114              		.loc 1 13 3 is_stmt 0 discriminator 1 view .LVU14
 115 0038 A369     		ldr	r3, [r4, #24]
 116 003a 05EB8303 		add	r3, r5, r3, lsl #2
 117              	.L4:
 118              		.loc 1 13 3 discriminator 4 view .LVU15
 119 003e 1868     		ldr	r0, [r3]	@ float
 120 0040 FFF7FEFF 		bl	__aeabi_f2d
 121              	.LVL6:
 122 0044 8246     		mov	r10, r0
 123 0046 8B46     		mov	fp, r1
 124 0048 B8F1000F 		cmp	r8, #0
 125 004c 00F05481 		beq	.L5
 126              		.loc 1 13 3 discriminator 5 view .LVU16
 127 0050 A369     		ldr	r3, [r4, #24]
 128 0052 05EBC303 		add	r3, r5, r3, lsl #3
 129              	.L6:
 130              		.loc 1 13 3 discriminator 8 view .LVU17
 131 0056 1868     		ldr	r0, [r3]	@ float
 132 0058 FFF7FEFF 		bl	__aeabi_f2d
 133              	.LVL7:
 134 005c 41EC180B 		vmov	d8, r0, r1
ARM GAS  /tmp/cchpqnQj.s 			page 4


 135 0060 B8F1000F 		cmp	r8, #0
 136 0064 00F04B81 		beq	.L7
 137              		.loc 1 13 3 discriminator 9 view .LVU18
 138 0068 A369     		ldr	r3, [r4, #24]
 139 006a 03EB4303 		add	r3, r3, r3, lsl #1
 140 006e 05EB8305 		add	r5, r5, r3, lsl #2
 141              	.L8:
 142              		.loc 1 13 3 discriminator 12 view .LVU19
 143 0072 2868     		ldr	r0, [r5]	@ float
 144 0074 FFF7FEFF 		bl	__aeabi_f2d
 145              	.LVL8:
 146 0078 CDE90601 		strd	r0, [sp, #24]
 147 007c 8DED048B 		vstr.64	d8, [sp, #16]
 148 0080 CDE902AB 		strd	r10, [sp, #8]
 149 0084 CDE90067 		strd	r6, [sp]
 150 0088 A54A     		ldr	r2, .L40+4
 151 008a 4021     		movs	r1, #64
 152 008c 08A8     		add	r0, sp, #32
 153 008e FFF7FEFF 		bl	snprintf
 154              	.LVL9:
 155              		.loc 1 13 3 is_stmt 1 discriminator 12 view .LVU20
 156 0092 08A8     		add	r0, sp, #32
 157 0094 FFF7FEFF 		bl	_log
 158              	.LVL10:
 159              	.LBE3:
 160              		.loc 1 13 3 discriminator 12 view .LVU21
  14:/home/takumi/takumique/main/reservoir/app/cmcis/application.c ****       *MAT(res->in_weights, 0, 0),
  15:/home/takumi/takumique/main/reservoir/app/cmcis/application.c ****       *MAT(res->in_weights, 0, 1),
  16:/home/takumi/takumique/main/reservoir/app/cmcis/application.c ****       *MAT(res->in_weights, 0, 2),
  17:/home/takumi/takumique/main/reservoir/app/cmcis/application.c ****       *MAT(res->in_weights, 0, 3));
  18:/home/takumi/takumique/main/reservoir/app/cmcis/application.c ****   LOG("res->res_weights: %f %f %f %f\r\n",
 161              		.loc 1 18 3 discriminator 12 view .LVU22
 162              	.LBB4:
 163              		.loc 1 18 3 discriminator 12 view .LVU23
 164              		.loc 1 18 3 discriminator 12 view .LVU24
 165 0098 656B     		ldr	r5, [r4, #52]
 166 009a 2868     		ldr	r0, [r5]	@ float
 167 009c FFF7FEFF 		bl	__aeabi_f2d
 168              	.LVL11:
 169 00a0 0646     		mov	r6, r0
 170 00a2 0F46     		mov	r7, r1
 171 00a4 D4F84080 		ldr	r8, [r4, #64]
 172 00a8 B8F1000F 		cmp	r8, #0
 173 00ac 00F02981 		beq	.L9
 174              		.loc 1 18 3 is_stmt 0 discriminator 1 view .LVU25
 175 00b0 A36B     		ldr	r3, [r4, #56]
 176 00b2 05EB8303 		add	r3, r5, r3, lsl #2
 177              	.L10:
 178              		.loc 1 18 3 discriminator 4 view .LVU26
 179 00b6 1868     		ldr	r0, [r3]	@ float
 180 00b8 FFF7FEFF 		bl	__aeabi_f2d
 181              	.LVL12:
 182 00bc 8246     		mov	r10, r0
 183 00be 8B46     		mov	fp, r1
 184 00c0 B8F1000F 		cmp	r8, #0
 185 00c4 00F01F81 		beq	.L11
 186              		.loc 1 18 3 discriminator 5 view .LVU27
ARM GAS  /tmp/cchpqnQj.s 			page 5


 187 00c8 A36B     		ldr	r3, [r4, #56]
 188 00ca 05EBC303 		add	r3, r5, r3, lsl #3
 189              	.L12:
 190              		.loc 1 18 3 discriminator 8 view .LVU28
 191 00ce 1868     		ldr	r0, [r3]	@ float
 192 00d0 FFF7FEFF 		bl	__aeabi_f2d
 193              	.LVL13:
 194 00d4 41EC180B 		vmov	d8, r0, r1
 195 00d8 B8F1000F 		cmp	r8, #0
 196 00dc 00F01681 		beq	.L13
 197              		.loc 1 18 3 discriminator 9 view .LVU29
 198 00e0 A36B     		ldr	r3, [r4, #56]
 199 00e2 03EB4303 		add	r3, r3, r3, lsl #1
 200 00e6 05EB8305 		add	r5, r5, r3, lsl #2
 201              	.L14:
 202              		.loc 1 18 3 discriminator 12 view .LVU30
 203 00ea 2868     		ldr	r0, [r5]	@ float
 204 00ec FFF7FEFF 		bl	__aeabi_f2d
 205              	.LVL14:
 206 00f0 CDE90601 		strd	r0, [sp, #24]
 207 00f4 8DED048B 		vstr.64	d8, [sp, #16]
 208 00f8 CDE902AB 		strd	r10, [sp, #8]
 209 00fc CDE90067 		strd	r6, [sp]
 210 0100 884A     		ldr	r2, .L40+8
 211 0102 4021     		movs	r1, #64
 212 0104 08A8     		add	r0, sp, #32
 213 0106 FFF7FEFF 		bl	snprintf
 214              	.LVL15:
 215              		.loc 1 18 3 is_stmt 1 discriminator 12 view .LVU31
 216 010a 08A8     		add	r0, sp, #32
 217 010c FFF7FEFF 		bl	_log
 218              	.LVL16:
 219              	.LBE4:
 220              		.loc 1 18 3 discriminator 12 view .LVU32
  19:/home/takumi/takumique/main/reservoir/app/cmcis/application.c ****       *MAT(res->res_weights, 0, 0),
  20:/home/takumi/takumique/main/reservoir/app/cmcis/application.c ****       *MAT(res->res_weights, 0, 1),
  21:/home/takumi/takumique/main/reservoir/app/cmcis/application.c ****       *MAT(res->res_weights, 0, 2),
  22:/home/takumi/takumique/main/reservoir/app/cmcis/application.c ****       *MAT(res->res_weights, 0, 3));
  23:/home/takumi/takumique/main/reservoir/app/cmcis/application.c ****   LOG("res->out_weights: %f %f %f %f\r\n",
 221              		.loc 1 23 3 discriminator 12 view .LVU33
 222              	.LBB5:
 223              		.loc 1 23 3 discriminator 12 view .LVU34
 224              		.loc 1 23 3 discriminator 12 view .LVU35
 225 0110 656C     		ldr	r5, [r4, #68]
 226 0112 2868     		ldr	r0, [r5]	@ float
 227 0114 FFF7FEFF 		bl	__aeabi_f2d
 228              	.LVL17:
 229 0118 0646     		mov	r6, r0
 230 011a 0F46     		mov	r7, r1
 231 011c D4F85080 		ldr	r8, [r4, #80]
 232 0120 B8F1000F 		cmp	r8, #0
 233 0124 00F0F480 		beq	.L15
 234              		.loc 1 23 3 is_stmt 0 discriminator 1 view .LVU36
 235 0128 A36C     		ldr	r3, [r4, #72]
 236 012a 05EB8303 		add	r3, r5, r3, lsl #2
 237              	.L16:
 238              		.loc 1 23 3 discriminator 4 view .LVU37
ARM GAS  /tmp/cchpqnQj.s 			page 6


 239 012e 1868     		ldr	r0, [r3]	@ float
 240 0130 FFF7FEFF 		bl	__aeabi_f2d
 241              	.LVL18:
 242 0134 8246     		mov	r10, r0
 243 0136 8B46     		mov	fp, r1
 244 0138 B8F1000F 		cmp	r8, #0
 245 013c 00F0EA80 		beq	.L17
 246              		.loc 1 23 3 discriminator 5 view .LVU38
 247 0140 A36C     		ldr	r3, [r4, #72]
 248 0142 05EBC303 		add	r3, r5, r3, lsl #3
 249              	.L18:
 250              		.loc 1 23 3 discriminator 8 view .LVU39
 251 0146 1868     		ldr	r0, [r3]	@ float
 252 0148 FFF7FEFF 		bl	__aeabi_f2d
 253              	.LVL19:
 254 014c 41EC180B 		vmov	d8, r0, r1
 255 0150 B8F1000F 		cmp	r8, #0
 256 0154 00F0F080 		beq	.L19
 257              		.loc 1 23 3 discriminator 9 view .LVU40
 258 0158 A36C     		ldr	r3, [r4, #72]
 259 015a 03EB4303 		add	r3, r3, r3, lsl #1
 260 015e 05EB8305 		add	r5, r5, r3, lsl #2
 261              	.L20:
 262              		.loc 1 23 3 discriminator 12 view .LVU41
 263 0162 2868     		ldr	r0, [r5]	@ float
 264 0164 FFF7FEFF 		bl	__aeabi_f2d
 265              	.LVL20:
 266 0168 CDE90601 		strd	r0, [sp, #24]
 267 016c 8DED048B 		vstr.64	d8, [sp, #16]
 268 0170 CDE902AB 		strd	r10, [sp, #8]
 269 0174 CDE90067 		strd	r6, [sp]
 270 0178 6B4A     		ldr	r2, .L40+12
 271 017a 4021     		movs	r1, #64
 272 017c 08A8     		add	r0, sp, #32
 273 017e FFF7FEFF 		bl	snprintf
 274              	.LVL21:
 275              		.loc 1 23 3 is_stmt 1 discriminator 12 view .LVU42
 276 0182 08A8     		add	r0, sp, #32
 277 0184 FFF7FEFF 		bl	_log
 278              	.LVL22:
 279              	.LBE5:
 280              		.loc 1 23 3 discriminator 12 view .LVU43
  24:/home/takumi/takumique/main/reservoir/app/cmcis/application.c ****       *MAT(res->out_weights, 0, 0),
  25:/home/takumi/takumique/main/reservoir/app/cmcis/application.c ****       *MAT(res->out_weights, 0, 1),
  26:/home/takumi/takumique/main/reservoir/app/cmcis/application.c ****       *MAT(res->out_weights, 0, 2),
  27:/home/takumi/takumique/main/reservoir/app/cmcis/application.c ****       *MAT(res->out_weights, 0, 3));
  28:/home/takumi/takumique/main/reservoir/app/cmcis/application.c ****   LOG("res->res_nodes: %f %f %f %f\r\n",
 281              		.loc 1 28 3 discriminator 12 view .LVU44
 282              	.LBB6:
 283              		.loc 1 28 3 discriminator 12 view .LVU45
 284              		.loc 1 28 3 discriminator 12 view .LVU46
 285 0188 656A     		ldr	r5, [r4, #36]
 286 018a 2868     		ldr	r0, [r5]	@ float
 287 018c FFF7FEFF 		bl	__aeabi_f2d
 288              	.LVL23:
 289 0190 0646     		mov	r6, r0
 290 0192 0F46     		mov	r7, r1
ARM GAS  /tmp/cchpqnQj.s 			page 7


 291 0194 D4F83080 		ldr	r8, [r4, #48]
 292 0198 B8F1000F 		cmp	r8, #0
 293 019c 00F0CE80 		beq	.L21
 294              		.loc 1 28 3 is_stmt 0 discriminator 1 view .LVU47
 295 01a0 A36A     		ldr	r3, [r4, #40]
 296 01a2 05EB8303 		add	r3, r5, r3, lsl #2
 297              	.L22:
 298              		.loc 1 28 3 discriminator 4 view .LVU48
 299 01a6 1868     		ldr	r0, [r3]	@ float
 300 01a8 FFF7FEFF 		bl	__aeabi_f2d
 301              	.LVL24:
 302 01ac 8246     		mov	r10, r0
 303 01ae 8B46     		mov	fp, r1
 304 01b0 B8F1000F 		cmp	r8, #0
 305 01b4 00F0C480 		beq	.L23
 306              		.loc 1 28 3 discriminator 5 view .LVU49
 307 01b8 A36A     		ldr	r3, [r4, #40]
 308 01ba 05EBC303 		add	r3, r5, r3, lsl #3
 309              	.L24:
 310              		.loc 1 28 3 discriminator 8 view .LVU50
 311 01be 1868     		ldr	r0, [r3]	@ float
 312 01c0 FFF7FEFF 		bl	__aeabi_f2d
 313              	.LVL25:
 314 01c4 41EC180B 		vmov	d8, r0, r1
 315 01c8 B8F1000F 		cmp	r8, #0
 316 01cc 00F0BB80 		beq	.L25
 317              		.loc 1 28 3 discriminator 9 view .LVU51
 318 01d0 A36A     		ldr	r3, [r4, #40]
 319 01d2 03EB4303 		add	r3, r3, r3, lsl #1
 320 01d6 05EB8305 		add	r5, r5, r3, lsl #2
 321              	.L26:
 322              		.loc 1 28 3 discriminator 12 view .LVU52
 323 01da 2868     		ldr	r0, [r5]	@ float
 324 01dc FFF7FEFF 		bl	__aeabi_f2d
 325              	.LVL26:
 326 01e0 CDE90601 		strd	r0, [sp, #24]
 327 01e4 8DED048B 		vstr.64	d8, [sp, #16]
 328 01e8 CDE902AB 		strd	r10, [sp, #8]
 329 01ec CDE90067 		strd	r6, [sp]
 330 01f0 4E4A     		ldr	r2, .L40+16
 331 01f2 4021     		movs	r1, #64
 332 01f4 08A8     		add	r0, sp, #32
 333 01f6 FFF7FEFF 		bl	snprintf
 334              	.LVL27:
 335              		.loc 1 28 3 is_stmt 1 discriminator 12 view .LVU53
 336 01fa 08A8     		add	r0, sp, #32
 337 01fc FFF7FEFF 		bl	_log
 338              	.LVL28:
 339              	.LBE6:
 340              		.loc 1 28 3 discriminator 12 view .LVU54
  29:/home/takumi/takumique/main/reservoir/app/cmcis/application.c ****       *MAT(res->res_nodes, 0, 0),
  30:/home/takumi/takumique/main/reservoir/app/cmcis/application.c ****       *MAT(res->res_nodes, 0, 1),
  31:/home/takumi/takumique/main/reservoir/app/cmcis/application.c ****       *MAT(res->res_nodes, 0, 2),
  32:/home/takumi/takumique/main/reservoir/app/cmcis/application.c ****       *MAT(res->res_nodes, 0, 3));
  33:/home/takumi/takumique/main/reservoir/app/cmcis/application.c ****   LOG("res->x: %f %f %f %f\r\n",
 341              		.loc 1 33 3 discriminator 12 view .LVU55
 342              	.LBB7:
ARM GAS  /tmp/cchpqnQj.s 			page 8


 343              		.loc 1 33 3 discriminator 12 view .LVU56
 344              		.loc 1 33 3 discriminator 12 view .LVU57
 345 0200 656D     		ldr	r5, [r4, #84]
 346 0202 2868     		ldr	r0, [r5]	@ float
 347 0204 FFF7FEFF 		bl	__aeabi_f2d
 348              	.LVL29:
 349 0208 0646     		mov	r6, r0
 350 020a 0F46     		mov	r7, r1
 351 020c D4F86080 		ldr	r8, [r4, #96]
 352 0210 B8F1000F 		cmp	r8, #0
 353 0214 00F09980 		beq	.L27
 354              		.loc 1 33 3 is_stmt 0 discriminator 1 view .LVU58
 355 0218 A36D     		ldr	r3, [r4, #88]
 356 021a 05EB8303 		add	r3, r5, r3, lsl #2
 357              	.L28:
 358              		.loc 1 33 3 discriminator 4 view .LVU59
 359 021e 1868     		ldr	r0, [r3]	@ float
 360 0220 FFF7FEFF 		bl	__aeabi_f2d
 361              	.LVL30:
 362 0224 8246     		mov	r10, r0
 363 0226 8B46     		mov	fp, r1
 364 0228 B8F1000F 		cmp	r8, #0
 365 022c 00F08F80 		beq	.L29
 366              		.loc 1 33 3 discriminator 5 view .LVU60
 367 0230 A36D     		ldr	r3, [r4, #88]
 368 0232 05EBC303 		add	r3, r5, r3, lsl #3
 369              	.L30:
 370              		.loc 1 33 3 discriminator 8 view .LVU61
 371 0236 1868     		ldr	r0, [r3]	@ float
 372 0238 FFF7FEFF 		bl	__aeabi_f2d
 373              	.LVL31:
 374 023c 41EC180B 		vmov	d8, r0, r1
 375 0240 B8F1000F 		cmp	r8, #0
 376 0244 00F08680 		beq	.L31
 377              		.loc 1 33 3 discriminator 9 view .LVU62
 378 0248 A36D     		ldr	r3, [r4, #88]
 379 024a 03EB4303 		add	r3, r3, r3, lsl #1
 380 024e 05EB8305 		add	r5, r5, r3, lsl #2
 381              	.L32:
 382              		.loc 1 33 3 discriminator 12 view .LVU63
 383 0252 2868     		ldr	r0, [r5]	@ float
 384 0254 FFF7FEFF 		bl	__aeabi_f2d
 385              	.LVL32:
 386 0258 CDE90601 		strd	r0, [sp, #24]
 387 025c 8DED048B 		vstr.64	d8, [sp, #16]
 388 0260 CDE902AB 		strd	r10, [sp, #8]
 389 0264 CDE90067 		strd	r6, [sp]
 390 0268 314A     		ldr	r2, .L40+20
 391 026a 4021     		movs	r1, #64
 392 026c 08A8     		add	r0, sp, #32
 393 026e FFF7FEFF 		bl	snprintf
 394              	.LVL33:
 395              		.loc 1 33 3 is_stmt 1 discriminator 12 view .LVU64
 396 0272 08A8     		add	r0, sp, #32
 397 0274 FFF7FEFF 		bl	_log
 398              	.LVL34:
 399              	.LBE7:
ARM GAS  /tmp/cchpqnQj.s 			page 9


 400              		.loc 1 33 3 discriminator 12 view .LVU65
  34:/home/takumi/takumique/main/reservoir/app/cmcis/application.c ****       *MAT(res->x, 0, 0),
  35:/home/takumi/takumique/main/reservoir/app/cmcis/application.c ****       *MAT(res->x, 0, 1),
  36:/home/takumi/takumique/main/reservoir/app/cmcis/application.c ****       *MAT(res->x, 0, 2),
  37:/home/takumi/takumique/main/reservoir/app/cmcis/application.c ****       *MAT(res->x, 0, 3));
  38:/home/takumi/takumique/main/reservoir/app/cmcis/application.c ****   LOG("res->y: %f %f %f %f\r\n",
 401              		.loc 1 38 3 discriminator 12 view .LVU66
 402              	.LBB8:
 403              		.loc 1 38 3 discriminator 12 view .LVU67
 404              		.loc 1 38 3 discriminator 12 view .LVU68
 405 0278 656E     		ldr	r5, [r4, #100]
 406 027a 2868     		ldr	r0, [r5]	@ float
 407 027c FFF7FEFF 		bl	__aeabi_f2d
 408              	.LVL35:
 409 0280 0646     		mov	r6, r0
 410 0282 0F46     		mov	r7, r1
 411 0284 D4F87080 		ldr	r8, [r4, #112]
 412 0288 B8F1000F 		cmp	r8, #0
 413 028c 64D0     		beq	.L33
 414              		.loc 1 38 3 is_stmt 0 discriminator 1 view .LVU69
 415 028e A36E     		ldr	r3, [r4, #104]
 416 0290 05EB8303 		add	r3, r5, r3, lsl #2
 417              	.L34:
 418              		.loc 1 38 3 discriminator 4 view .LVU70
 419 0294 1868     		ldr	r0, [r3]	@ float
 420 0296 FFF7FEFF 		bl	__aeabi_f2d
 421              	.LVL36:
 422 029a 8246     		mov	r10, r0
 423 029c 8B46     		mov	fp, r1
 424 029e B8F1000F 		cmp	r8, #0
 425 02a2 5BD0     		beq	.L35
 426              		.loc 1 38 3 discriminator 5 view .LVU71
 427 02a4 A36E     		ldr	r3, [r4, #104]
 428 02a6 05EBC303 		add	r3, r5, r3, lsl #3
 429              	.L36:
 430              		.loc 1 38 3 discriminator 8 view .LVU72
 431 02aa 1868     		ldr	r0, [r3]	@ float
 432 02ac FFF7FEFF 		bl	__aeabi_f2d
 433              	.LVL37:
 434 02b0 41EC180B 		vmov	d8, r0, r1
 435 02b4 B8F1000F 		cmp	r8, #0
 436 02b8 53D0     		beq	.L37
 437              		.loc 1 38 3 discriminator 9 view .LVU73
 438 02ba A36E     		ldr	r3, [r4, #104]
 439 02bc 03EB4303 		add	r3, r3, r3, lsl #1
 440 02c0 05EB8305 		add	r5, r5, r3, lsl #2
 441              	.L38:
 442              		.loc 1 38 3 discriminator 12 view .LVU74
 443 02c4 2868     		ldr	r0, [r5]	@ float
 444 02c6 FFF7FEFF 		bl	__aeabi_f2d
 445              	.LVL38:
 446 02ca CDE90601 		strd	r0, [sp, #24]
 447 02ce 8DED048B 		vstr.64	d8, [sp, #16]
 448 02d2 CDE902AB 		strd	r10, [sp, #8]
 449 02d6 CDE90067 		strd	r6, [sp]
 450 02da 164A     		ldr	r2, .L40+24
 451 02dc 4021     		movs	r1, #64
ARM GAS  /tmp/cchpqnQj.s 			page 10


 452 02de 08A8     		add	r0, sp, #32
 453 02e0 FFF7FEFF 		bl	snprintf
 454              	.LVL39:
 455              		.loc 1 38 3 is_stmt 1 discriminator 12 view .LVU75
 456 02e4 08A8     		add	r0, sp, #32
 457 02e6 FFF7FEFF 		bl	_log
 458              	.LVL40:
 459              	.LBE8:
 460              		.loc 1 38 3 discriminator 12 view .LVU76
  39:/home/takumi/takumique/main/reservoir/app/cmcis/application.c ****       *MAT(res->y, 0, 0),
  40:/home/takumi/takumique/main/reservoir/app/cmcis/application.c ****       *MAT(res->y, 0, 1),
  41:/home/takumi/takumique/main/reservoir/app/cmcis/application.c ****       *MAT(res->y, 0, 2),
  42:/home/takumi/takumique/main/reservoir/app/cmcis/application.c ****       *MAT(res->y, 0, 3));
  43:/home/takumi/takumique/main/reservoir/app/cmcis/application.c **** }
 461              		.loc 1 43 1 is_stmt 0 discriminator 12 view .LVU77
 462 02ea 18B0     		add	sp, sp, #96
 463              	.LCFI3:
 464              		.cfi_remember_state
 465              		.cfi_def_cfa_offset 40
 466              		@ sp needed
 467 02ec BDEC028B 		vldm	sp!, {d8}
 468              	.LCFI4:
 469              		.cfi_restore 80
 470              		.cfi_restore 81
 471              		.cfi_def_cfa_offset 32
 472 02f0 BDE8F08D 		pop	{r4, r5, r6, r7, r8, r10, fp, pc}
 473              	.LVL41:
 474              	.L3:
 475              	.LCFI5:
 476              		.cfi_restore_state
 477              	.LBB9:
  13:/home/takumi/takumique/main/reservoir/app/cmcis/application.c ****       *MAT(res->in_weights, 0, 0),
 478              		.loc 1 13 3 discriminator 2 view .LVU78
 479 02f4 2B1D     		adds	r3, r5, #4
 480 02f6 A2E6     		b	.L4
 481              	.L5:
  13:/home/takumi/takumique/main/reservoir/app/cmcis/application.c ****       *MAT(res->in_weights, 0, 0),
 482              		.loc 1 13 3 discriminator 6 view .LVU79
 483 02f8 05F10803 		add	r3, r5, #8
 484 02fc ABE6     		b	.L6
 485              	.L7:
  13:/home/takumi/takumique/main/reservoir/app/cmcis/application.c ****       *MAT(res->in_weights, 0, 0),
 486              		.loc 1 13 3 discriminator 10 view .LVU80
 487 02fe 0C35     		adds	r5, r5, #12
 488 0300 B7E6     		b	.L8
 489              	.L9:
  13:/home/takumi/takumique/main/reservoir/app/cmcis/application.c ****       *MAT(res->in_weights, 0, 0),
 490              		.loc 1 13 3 discriminator 10 view .LVU81
 491              	.LBE9:
 492              	.LBB10:
  18:/home/takumi/takumique/main/reservoir/app/cmcis/application.c ****       *MAT(res->res_weights, 0, 0),
 493              		.loc 1 18 3 discriminator 2 view .LVU82
 494 0302 2B1D     		adds	r3, r5, #4
 495 0304 D7E6     		b	.L10
 496              	.L11:
  18:/home/takumi/takumique/main/reservoir/app/cmcis/application.c ****       *MAT(res->res_weights, 0, 0),
 497              		.loc 1 18 3 discriminator 6 view .LVU83
ARM GAS  /tmp/cchpqnQj.s 			page 11


 498 0306 05F10803 		add	r3, r5, #8
 499 030a E0E6     		b	.L12
 500              	.L13:
  18:/home/takumi/takumique/main/reservoir/app/cmcis/application.c ****       *MAT(res->res_weights, 0, 0),
 501              		.loc 1 18 3 discriminator 10 view .LVU84
 502 030c 0C35     		adds	r5, r5, #12
 503 030e ECE6     		b	.L14
 504              	.L15:
  18:/home/takumi/takumique/main/reservoir/app/cmcis/application.c ****       *MAT(res->res_weights, 0, 0),
 505              		.loc 1 18 3 discriminator 10 view .LVU85
 506              	.LBE10:
 507              	.LBB11:
  23:/home/takumi/takumique/main/reservoir/app/cmcis/application.c ****       *MAT(res->out_weights, 0, 0),
 508              		.loc 1 23 3 discriminator 2 view .LVU86
 509 0310 2B1D     		adds	r3, r5, #4
 510 0312 0CE7     		b	.L16
 511              	.L17:
  23:/home/takumi/takumique/main/reservoir/app/cmcis/application.c ****       *MAT(res->out_weights, 0, 0),
 512              		.loc 1 23 3 discriminator 6 view .LVU87
 513 0314 05F10803 		add	r3, r5, #8
 514 0318 15E7     		b	.L18
 515              	.L41:
 516 031a 00BF     		.align	2
 517              	.L40:
 518 031c 00000000 		.word	.LC1
 519 0320 08000000 		.word	.LC2
 520 0324 28000000 		.word	.LC3
 521 0328 48000000 		.word	.LC4
 522 032c 68000000 		.word	.LC5
 523 0330 88000000 		.word	.LC6
 524 0334 A0000000 		.word	.LC7
 525              	.L19:
  23:/home/takumi/takumique/main/reservoir/app/cmcis/application.c ****       *MAT(res->out_weights, 0, 0),
 526              		.loc 1 23 3 discriminator 10 view .LVU88
 527 0338 0C35     		adds	r5, r5, #12
 528 033a 12E7     		b	.L20
 529              	.L21:
  23:/home/takumi/takumique/main/reservoir/app/cmcis/application.c ****       *MAT(res->out_weights, 0, 0),
 530              		.loc 1 23 3 discriminator 10 view .LVU89
 531              	.LBE11:
 532              	.LBB12:
  28:/home/takumi/takumique/main/reservoir/app/cmcis/application.c ****       *MAT(res->res_nodes, 0, 0),
 533              		.loc 1 28 3 discriminator 2 view .LVU90
 534 033c 2B1D     		adds	r3, r5, #4
 535 033e 32E7     		b	.L22
 536              	.L23:
  28:/home/takumi/takumique/main/reservoir/app/cmcis/application.c ****       *MAT(res->res_nodes, 0, 0),
 537              		.loc 1 28 3 discriminator 6 view .LVU91
 538 0340 05F10803 		add	r3, r5, #8
 539 0344 3BE7     		b	.L24
 540              	.L25:
  28:/home/takumi/takumique/main/reservoir/app/cmcis/application.c ****       *MAT(res->res_nodes, 0, 0),
 541              		.loc 1 28 3 discriminator 10 view .LVU92
 542 0346 0C35     		adds	r5, r5, #12
 543 0348 47E7     		b	.L26
 544              	.L27:
  28:/home/takumi/takumique/main/reservoir/app/cmcis/application.c ****       *MAT(res->res_nodes, 0, 0),
ARM GAS  /tmp/cchpqnQj.s 			page 12


 545              		.loc 1 28 3 discriminator 10 view .LVU93
 546              	.LBE12:
 547              	.LBB13:
  33:/home/takumi/takumique/main/reservoir/app/cmcis/application.c ****       *MAT(res->x, 0, 0),
 548              		.loc 1 33 3 discriminator 2 view .LVU94
 549 034a 2B1D     		adds	r3, r5, #4
 550 034c 67E7     		b	.L28
 551              	.L29:
  33:/home/takumi/takumique/main/reservoir/app/cmcis/application.c ****       *MAT(res->x, 0, 0),
 552              		.loc 1 33 3 discriminator 6 view .LVU95
 553 034e 05F10803 		add	r3, r5, #8
 554 0352 70E7     		b	.L30
 555              	.L31:
  33:/home/takumi/takumique/main/reservoir/app/cmcis/application.c ****       *MAT(res->x, 0, 0),
 556              		.loc 1 33 3 discriminator 10 view .LVU96
 557 0354 0C35     		adds	r5, r5, #12
 558 0356 7CE7     		b	.L32
 559              	.L33:
  33:/home/takumi/takumique/main/reservoir/app/cmcis/application.c ****       *MAT(res->x, 0, 0),
 560              		.loc 1 33 3 discriminator 10 view .LVU97
 561              	.LBE13:
 562              	.LBB14:
  38:/home/takumi/takumique/main/reservoir/app/cmcis/application.c ****       *MAT(res->y, 0, 0),
 563              		.loc 1 38 3 discriminator 2 view .LVU98
 564 0358 2B1D     		adds	r3, r5, #4
 565 035a 9BE7     		b	.L34
 566              	.L35:
  38:/home/takumi/takumique/main/reservoir/app/cmcis/application.c ****       *MAT(res->y, 0, 0),
 567              		.loc 1 38 3 discriminator 6 view .LVU99
 568 035c 05F10803 		add	r3, r5, #8
 569 0360 A3E7     		b	.L36
 570              	.L37:
  38:/home/takumi/takumique/main/reservoir/app/cmcis/application.c ****       *MAT(res->y, 0, 0),
 571              		.loc 1 38 3 discriminator 10 view .LVU100
 572 0362 0C35     		adds	r5, r5, #12
 573 0364 AEE7     		b	.L38
 574              	.LBE14:
 575              		.cfi_endproc
 576              	.LFE176:
 578 0366 00BF     		.section	.rodata.application_init.str1.4,"aMS",%progbits,1
 579              		.align	2
 580              	.LC9:
 581 0000 494E4954 		.ascii	"INIT\000"
 581      00
 582 0005 000000   		.align	2
 583              	.LC10:
 584 0008 54524149 		.ascii	"TRAINED\000"
 584      4E454400 
 585              		.section	.text.application_init,"ax",%progbits
 586              		.align	1
 587              		.global	application_init
 588              		.syntax unified
 589              		.thumb
 590              		.thumb_func
 591              		.fpu fpv4-sp-d16
 593              	application_init:
 594              	.LVL42:
ARM GAS  /tmp/cchpqnQj.s 			page 13


 595              	.LFB177:
  44:/home/takumi/takumique/main/reservoir/app/cmcis/application.c **** 
  45:/home/takumi/takumique/main/reservoir/app/cmcis/application.c **** void application_init(UART_HandleTypeDef *uart) {
 596              		.loc 1 45 49 is_stmt 1 view -0
 597              		.cfi_startproc
 598              		@ args = 0, pretend = 0, frame = 144
 599              		@ frame_needed = 0, uses_anonymous_args = 0
 600              		.loc 1 45 49 is_stmt 0 view .LVU102
 601 0000 10B5     		push	{r4, lr}
 602              	.LCFI6:
 603              		.cfi_def_cfa_offset 8
 604              		.cfi_offset 4, -8
 605              		.cfi_offset 14, -4
 606 0002 A4B0     		sub	sp, sp, #144
 607              	.LCFI7:
 608              		.cfi_def_cfa_offset 152
  46:/home/takumi/takumique/main/reservoir/app/cmcis/application.c ****   LOG_INIT(uart);
 609              		.loc 1 46 3 is_stmt 1 view .LVU103
 610 0004 FFF7FEFF 		bl	_log_init
 611              	.LVL43:
  47:/home/takumi/takumique/main/reservoir/app/cmcis/application.c **** 
  48:/home/takumi/takumique/main/reservoir/app/cmcis/application.c ****   mat_memory_t mem = {
 612              		.loc 1 48 3 view .LVU104
 613              		.loc 1 48 16 is_stmt 0 view .LVU105
 614 0008 1E4B     		ldr	r3, .L47
 615 000a 22AC     		add	r4, sp, #136
 616 000c 93E80300 		ldm	r3, {r0, r1}
 617 0010 84E80300 		stm	r4, {r0, r1}
  49:/home/takumi/takumique/main/reservoir/app/cmcis/application.c ****       .memory_alloc = (void *(*)(unsigned)) malloc,
  50:/home/takumi/takumique/main/reservoir/app/cmcis/application.c ****       .memory_free = (void (*)(void *)) free,
  51:/home/takumi/takumique/main/reservoir/app/cmcis/application.c ****   };
  52:/home/takumi/takumique/main/reservoir/app/cmcis/application.c ****   reservoir_t res = {
 618              		.loc 1 52 3 is_stmt 1 view .LVU106
 619              		.loc 1 52 15 is_stmt 0 view .LVU107
 620 0014 6022     		movs	r2, #96
 621 0016 0021     		movs	r1, #0
 622 0018 0AA8     		add	r0, sp, #40
 623 001a FFF7FEFF 		bl	memset
 624              	.LVL44:
 625 001e 0594     		str	r4, [sp, #20]
 626 0020 0124     		movs	r4, #1
 627 0022 0694     		str	r4, [sp, #24]
 628 0024 6423     		movs	r3, #100
 629 0026 0793     		str	r3, [sp, #28]
 630 0028 0894     		str	r4, [sp, #32]
 631 002a 174B     		ldr	r3, .L47+4
 632 002c 0993     		str	r3, [sp, #36]	@ float
  53:/home/takumi/takumique/main/reservoir/app/cmcis/application.c ****       .mem = &mem,
  54:/home/takumi/takumique/main/reservoir/app/cmcis/application.c ****       .n_in_nodes = 1,
  55:/home/takumi/takumique/main/reservoir/app/cmcis/application.c ****       .n_res_nodes = 100,
  56:/home/takumi/takumique/main/reservoir/app/cmcis/application.c ****       .n_out_nodes = 1,
  57:/home/takumi/takumique/main/reservoir/app/cmcis/application.c ****       .leak_rate = 0.02f,
  58:/home/takumi/takumique/main/reservoir/app/cmcis/application.c ****   };
  59:/home/takumi/takumique/main/reservoir/app/cmcis/application.c ****   // init
  60:/home/takumi/takumique/main/reservoir/app/cmcis/application.c ****   init(&res);
 633              		.loc 1 60 3 is_stmt 1 view .LVU108
 634 002e 05A8     		add	r0, sp, #20
ARM GAS  /tmp/cchpqnQj.s 			page 14


 635 0030 FFF7FEFF 		bl	init
 636              	.LVL45:
  61:/home/takumi/takumique/main/reservoir/app/cmcis/application.c ****   print_res_head(&res, "INIT");
 637              		.loc 1 61 3 view .LVU109
 638 0034 1549     		ldr	r1, .L47+8
 639 0036 05A8     		add	r0, sp, #20
 640 0038 FFF7FEFF 		bl	print_res_head
 641              	.LVL46:
  62:/home/takumi/takumique/main/reservoir/app/cmcis/application.c ****   // train
  63:/home/takumi/takumique/main/reservoir/app/cmcis/application.c ****   MAT_T training_data;
 642              		.loc 1 63 3 view .LVU110
  64:/home/takumi/takumique/main/reservoir/app/cmcis/application.c ****   MAT_NEW(NULL, &training_data, 1, 1);
 643              		.loc 1 64 3 view .LVU111
 644 003c 2346     		mov	r3, r4
 645 003e 2246     		mov	r2, r4
 646 0040 01A9     		add	r1, sp, #4
 647 0042 0020     		movs	r0, #0
 648 0044 FFF7FEFF 		bl	mat_f32_new
 649              	.LVL47:
  65:/home/takumi/takumique/main/reservoir/app/cmcis/application.c ****   for(unsigned i = 0; i < 960; i++) {
 650              		.loc 1 65 3 view .LVU112
 651              	.LBB15:
 652              		.loc 1 65 7 view .LVU113
 653              		.loc 1 65 16 is_stmt 0 view .LVU114
 654 0048 0024     		movs	r4, #0
 655              	.LVL48:
 656              	.L43:
 657              		.loc 1 65 23 is_stmt 1 discriminator 1 view .LVU115
 658              		.loc 1 65 3 is_stmt 0 discriminator 1 view .LVU116
 659 004a B4F5707F 		cmp	r4, #960
 660 004e 09D2     		bcs	.L46
  66:/home/takumi/takumique/main/reservoir/app/cmcis/application.c ****     training_data.data = __training_data + i;
 661              		.loc 1 66 5 is_stmt 1 discriminator 3 view .LVU117
 662              		.loc 1 66 42 is_stmt 0 discriminator 3 view .LVU118
 663 0050 0F4B     		ldr	r3, .L47+12
 664 0052 03EB8403 		add	r3, r3, r4, lsl #2
 665              		.loc 1 66 24 discriminator 3 view .LVU119
 666 0056 0193     		str	r3, [sp, #4]
  67:/home/takumi/takumique/main/reservoir/app/cmcis/application.c ****     train_feed_data(&res, &training_data);
 667              		.loc 1 67 5 is_stmt 1 discriminator 3 view .LVU120
 668 0058 01A9     		add	r1, sp, #4
 669 005a 05A8     		add	r0, sp, #20
 670 005c FFF7FEFF 		bl	train_feed_data
 671              	.LVL49:
  65:/home/takumi/takumique/main/reservoir/app/cmcis/application.c ****   for(unsigned i = 0; i < 960; i++) {
 672              		.loc 1 65 32 discriminator 3 view .LVU121
  65:/home/takumi/takumique/main/reservoir/app/cmcis/application.c ****   for(unsigned i = 0; i < 960; i++) {
 673              		.loc 1 65 33 is_stmt 0 discriminator 3 view .LVU122
 674 0060 0134     		adds	r4, r4, #1
 675              	.LVL50:
  65:/home/takumi/takumique/main/reservoir/app/cmcis/application.c ****   for(unsigned i = 0; i < 960; i++) {
 676              		.loc 1 65 33 discriminator 3 view .LVU123
 677 0062 F2E7     		b	.L43
 678              	.L46:
  65:/home/takumi/takumique/main/reservoir/app/cmcis/application.c ****   for(unsigned i = 0; i < 960; i++) {
 679              		.loc 1 65 33 discriminator 3 view .LVU124
 680              	.LBE15:
ARM GAS  /tmp/cchpqnQj.s 			page 15


  68:/home/takumi/takumique/main/reservoir/app/cmcis/application.c ****   }
  69:/home/takumi/takumique/main/reservoir/app/cmcis/application.c ****   train_compute_weight(&res, RESET_XY);
 681              		.loc 1 69 3 is_stmt 1 view .LVU125
 682 0064 0121     		movs	r1, #1
 683 0066 05A8     		add	r0, sp, #20
 684 0068 FFF7FEFF 		bl	train_compute_weight
 685              	.LVL51:
  70:/home/takumi/takumique/main/reservoir/app/cmcis/application.c ****   print_res_head(&res, "TRAINED");
 686              		.loc 1 70 3 view .LVU126
 687 006c 0949     		ldr	r1, .L47+16
 688 006e 05A8     		add	r0, sp, #20
 689 0070 FFF7FEFF 		bl	print_res_head
 690              	.LVL52:
  71:/home/takumi/takumique/main/reservoir/app/cmcis/application.c **** 
  72:/home/takumi/takumique/main/reservoir/app/cmcis/application.c ****   // for indicating activity (turn on green LED on board)
  73:/home/takumi/takumique/main/reservoir/app/cmcis/application.c ****   HAL_GPIO_WritePin(GPIOA, GPIO_PIN_5, 1);
 691              		.loc 1 73 3 view .LVU127
 692 0074 0122     		movs	r2, #1
 693 0076 2021     		movs	r1, #32
 694 0078 4FF09040 		mov	r0, #1207959552
 695 007c FFF7FEFF 		bl	HAL_GPIO_WritePin
 696              	.LVL53:
  74:/home/takumi/takumique/main/reservoir/app/cmcis/application.c **** }
 697              		.loc 1 74 1 is_stmt 0 view .LVU128
 698 0080 24B0     		add	sp, sp, #144
 699              	.LCFI8:
 700              		.cfi_def_cfa_offset 8
 701              		@ sp needed
 702 0082 10BD     		pop	{r4, pc}
 703              	.LVL54:
 704              	.L48:
 705              		.loc 1 74 1 view .LVU129
 706              		.align	2
 707              	.L47:
 708 0084 00000000 		.word	.LANCHOR0
 709 0088 0AD7A33C 		.word	1017370378
 710 008c 00000000 		.word	.LC9
 711 0090 00000000 		.word	__training_data
 712 0094 08000000 		.word	.LC10
 713              		.cfi_endproc
 714              	.LFE177:
 716              		.section	.text.application_loop,"ax",%progbits
 717              		.align	1
 718              		.global	application_loop
 719              		.syntax unified
 720              		.thumb
 721              		.thumb_func
 722              		.fpu fpv4-sp-d16
 724              	application_loop:
 725              	.LFB178:
  75:/home/takumi/takumique/main/reservoir/app/cmcis/application.c **** 
  76:/home/takumi/takumique/main/reservoir/app/cmcis/application.c **** // application main loop
  77:/home/takumi/takumique/main/reservoir/app/cmcis/application.c **** void application_loop() {
 726              		.loc 1 77 25 is_stmt 1 view -0
 727              		.cfi_startproc
 728              		@ args = 0, pretend = 0, frame = 0
 729              		@ frame_needed = 0, uses_anonymous_args = 0
ARM GAS  /tmp/cchpqnQj.s 			page 16


 730              		@ link register save eliminated.
  78:/home/takumi/takumique/main/reservoir/app/cmcis/application.c **** }
 731              		.loc 1 78 1 view .LVU131
 732 0000 7047     		bx	lr
 733              		.cfi_endproc
 734              	.LFE178:
 736              		.section	.text.application_tick,"ax",%progbits
 737              		.align	1
 738              		.global	application_tick
 739              		.syntax unified
 740              		.thumb
 741              		.thumb_func
 742              		.fpu fpv4-sp-d16
 744              	application_tick:
 745              	.LFB179:
  79:/home/takumi/takumique/main/reservoir/app/cmcis/application.c **** 
  80:/home/takumi/takumique/main/reservoir/app/cmcis/application.c **** // application tick (10ms timer handler)
  81:/home/takumi/takumique/main/reservoir/app/cmcis/application.c **** void application_tick() {
 746              		.loc 1 81 25 view -0
 747              		.cfi_startproc
 748              		@ args = 0, pretend = 0, frame = 0
 749              		@ frame_needed = 0, uses_anonymous_args = 0
 750              		@ link register save eliminated.
  82:/home/takumi/takumique/main/reservoir/app/cmcis/application.c **** }
 751              		.loc 1 82 1 view .LVU133
 752 0000 7047     		bx	lr
 753              		.cfi_endproc
 754              	.LFE179:
 756              		.section	.rodata
 757              		.align	2
 758              		.set	.LANCHOR0,. + 0
 759              	.LC8:
 760 0000 00000000 		.word	malloc
 761 0004 00000000 		.word	free
 762              		.text
 763              	.Letext0:
 764              		.file 2 "/usr/lib/gcc/arm-none-eabi/9.2.1/include/stdint.h"
 765              		.file 3 "Drivers/CMSIS/Include/core_cm4.h"
 766              		.file 4 "Drivers/CMSIS/Device/ST/STM32L4xx/Include/system_stm32l4xx.h"
 767              		.file 5 "Drivers/CMSIS/Device/ST/STM32L4xx/Include/stm32l476xx.h"
 768              		.file 6 "Drivers/STM32L4xx_HAL_Driver/Inc/stm32l4xx_hal_def.h"
 769              		.file 7 "Drivers/STM32L4xx_HAL_Driver/Inc/stm32l4xx_hal_dma.h"
 770              		.file 8 "Drivers/STM32L4xx_HAL_Driver/Inc/stm32l4xx_hal_flash.h"
 771              		.file 9 "Drivers/STM32L4xx_HAL_Driver/Inc/stm32l4xx_hal_uart.h"
 772              		.file 10 "Drivers/STM32L4xx_HAL_Driver/Inc/stm32l4xx_hal.h"
 773              		.file 11 "/usr/lib/gcc/arm-none-eabi/9.2.1/include/stddef.h"
 774              		.file 12 "/usr/include/newlib/sys/_types.h"
 775              		.file 13 "/usr/include/newlib/sys/reent.h"
 776              		.file 14 "/usr/include/newlib/sys/lock.h"
 777              		.file 15 "/usr/include/newlib/stdlib.h"
 778              		.file 16 "/usr/include/newlib/math.h"
 779              		.file 17 "Drivers/CMSIS/DSP/Include/arm_math.h"
 780              		.file 18 "/home/takumi/takumique/main/reservoir/app/cmcis/mat.h"
 781              		.file 19 "/home/takumi/takumique/main/reservoir/app/reservoir.h"
 782              		.file 20 "/home/takumi/takumique/main/reservoir/app/cmcis/application_log.h"
 783              		.file 21 "Drivers/STM32L4xx_HAL_Driver/Inc/stm32l4xx_hal_gpio.h"
 784              		.file 22 "/usr/include/newlib/stdio.h"
ARM GAS  /tmp/cchpqnQj.s 			page 17


 785              		.file 23 "<built-in>"
ARM GAS  /tmp/cchpqnQj.s 			page 18

