ARM GAS  /tmp/ccgNCQ0i.s 			page 1


   1              		.cpu cortex-m4
   2              		.eabi_attribute 27, 1
   3              		.eabi_attribute 28, 1
   4              		.eabi_attribute 20, 1
   5              		.eabi_attribute 21, 1
   6              		.eabi_attribute 23, 3
   7              		.eabi_attribute 24, 1
   8              		.eabi_attribute 25, 1
   9              		.eabi_attribute 26, 1
  10              		.eabi_attribute 30, 1
  11              		.eabi_attribute 34, 1
  12              		.eabi_attribute 18, 4
  13              		.file	"mat.c"
  14              		.text
  15              	.Ltext0:
  16              		.cfi_sections	.debug_frame
  17              		.section	.text.mat_f32_new,"ax",%progbits
  18              		.align	1
  19              		.global	mat_f32_new
  20              		.arch armv7e-m
  21              		.syntax unified
  22              		.thumb
  23              		.thumb_func
  24              		.fpu fpv4-sp-d16
  26              	mat_f32_new:
  27              	.LVL0:
  28              	.LFB145:
  29              		.file 1 "/home/takumi/takumique/main/reservoir/app/cmcis/mat.c"
   1:/home/takumi/takumique/main/reservoir/app/cmcis/mat.c **** #include "mat.h"
   2:/home/takumi/takumique/main/reservoir/app/cmcis/mat.c **** 
   3:/home/takumi/takumique/main/reservoir/app/cmcis/mat.c **** #include <math.h>
   4:/home/takumi/takumique/main/reservoir/app/cmcis/mat.c **** #include <stdlib.h>
   5:/home/takumi/takumique/main/reservoir/app/cmcis/mat.c **** #include <string.h>
   6:/home/takumi/takumique/main/reservoir/app/cmcis/mat.c **** 
   7:/home/takumi/takumique/main/reservoir/app/cmcis/mat.c **** #define CHECK_ARGS
   8:/home/takumi/takumique/main/reservoir/app/cmcis/mat.c **** 
   9:/home/takumi/takumique/main/reservoir/app/cmcis/mat.c **** int mat_f32_new(mat_memory_t *mem, mat_f32_t *a, unsigned n, unsigned m) {
  30              		.loc 1 9 74 view -0
  31              		.cfi_startproc
  32              		@ args = 0, pretend = 0, frame = 0
  33              		@ frame_needed = 0, uses_anonymous_args = 0
  34              		.loc 1 9 74 is_stmt 0 view .LVU1
  35 0000 10B5     		push	{r4, lr}
  36              	.LCFI0:
  37              		.cfi_def_cfa_offset 8
  38              		.cfi_offset 4, -8
  39              		.cfi_offset 14, -4
  40 0002 0C46     		mov	r4, r1
  10:/home/takumi/takumique/main/reservoir/app/cmcis/mat.c ****   a->t = 0;
  41              		.loc 1 10 3 is_stmt 1 view .LVU2
  42              		.loc 1 10 8 is_stmt 0 view .LVU3
  43 0004 0021     		movs	r1, #0
  44              	.LVL1:
  45              		.loc 1 10 8 view .LVU4
  46 0006 E160     		str	r1, [r4, #12]
  11:/home/takumi/takumique/main/reservoir/app/cmcis/mat.c ****   a->n = n;
  47              		.loc 1 11 3 is_stmt 1 view .LVU5
ARM GAS  /tmp/ccgNCQ0i.s 			page 2


  48              		.loc 1 11 8 is_stmt 0 view .LVU6
  49 0008 6260     		str	r2, [r4, #4]
  12:/home/takumi/takumique/main/reservoir/app/cmcis/mat.c ****   a->m = m;
  50              		.loc 1 12 3 is_stmt 1 view .LVU7
  51              		.loc 1 12 8 is_stmt 0 view .LVU8
  52 000a A360     		str	r3, [r4, #8]
  13:/home/takumi/takumique/main/reservoir/app/cmcis/mat.c ****   if(mem && mem->memory_alloc) {
  53              		.loc 1 13 3 is_stmt 1 view .LVU9
  54              		.loc 1 13 5 is_stmt 0 view .LVU10
  55 000c 48B1     		cbz	r0, .L2
  56              		.loc 1 13 16 discriminator 1 view .LVU11
  57 000e 0168     		ldr	r1, [r0]
  58              		.loc 1 13 10 discriminator 1 view .LVU12
  59 0010 39B1     		cbz	r1, .L2
  14:/home/takumi/takumique/main/reservoir/app/cmcis/mat.c ****     a->data = (f32_t *) mem->memory_alloc(sizeof(f32_t) * n * m);
  60              		.loc 1 14 5 is_stmt 1 view .LVU13
  61              		.loc 1 14 61 is_stmt 0 view .LVU14
  62 0012 03FB02F3 		mul	r3, r3, r2
  63              	.LVL2:
  64              		.loc 1 14 25 view .LVU15
  65 0016 9800     		lsls	r0, r3, #2
  66              	.LVL3:
  67              		.loc 1 14 25 view .LVU16
  68 0018 8847     		blx	r1
  69              	.LVL4:
  70              		.loc 1 14 13 view .LVU17
  71 001a 2060     		str	r0, [r4]
  15:/home/takumi/takumique/main/reservoir/app/cmcis/mat.c ****     if(a->data == NULL) {
  72              		.loc 1 15 5 is_stmt 1 view .LVU18
  73              		.loc 1 15 7 is_stmt 0 view .LVU19
  74 001c 20B1     		cbz	r0, .L4
  16:/home/takumi/takumique/main/reservoir/app/cmcis/mat.c ****       return -1;
  17:/home/takumi/takumique/main/reservoir/app/cmcis/mat.c ****     }
  18:/home/takumi/takumique/main/reservoir/app/cmcis/mat.c ****   } else {
  19:/home/takumi/takumique/main/reservoir/app/cmcis/mat.c ****     a->data = NULL;
  20:/home/takumi/takumique/main/reservoir/app/cmcis/mat.c ****   }
  21:/home/takumi/takumique/main/reservoir/app/cmcis/mat.c ****   return 0;
  75              		.loc 1 21 10 view .LVU20
  76 001e 0020     		movs	r0, #0
  77 0020 01E0     		b	.L1
  78              	.LVL5:
  79              	.L2:
  19:/home/takumi/takumique/main/reservoir/app/cmcis/mat.c ****   }
  80              		.loc 1 19 5 is_stmt 1 view .LVU21
  19:/home/takumi/takumique/main/reservoir/app/cmcis/mat.c ****   }
  81              		.loc 1 19 13 is_stmt 0 view .LVU22
  82 0022 0020     		movs	r0, #0
  83              	.LVL6:
  19:/home/takumi/takumique/main/reservoir/app/cmcis/mat.c ****   }
  84              		.loc 1 19 13 view .LVU23
  85 0024 2060     		str	r0, [r4]
  86              	.LVL7:
  87              	.L1:
  22:/home/takumi/takumique/main/reservoir/app/cmcis/mat.c **** }
  88              		.loc 1 22 1 view .LVU24
  89 0026 10BD     		pop	{r4, pc}
  90              	.LVL8:
ARM GAS  /tmp/ccgNCQ0i.s 			page 3


  91              	.L4:
  16:/home/takumi/takumique/main/reservoir/app/cmcis/mat.c ****       return -1;
  92              		.loc 1 16 14 view .LVU25
  93 0028 4FF0FF30 		mov	r0, #-1
  94 002c FBE7     		b	.L1
  95              		.cfi_endproc
  96              	.LFE145:
  98              		.section	.text.mat_f32_destroy,"ax",%progbits
  99              		.align	1
 100              		.global	mat_f32_destroy
 101              		.syntax unified
 102              		.thumb
 103              		.thumb_func
 104              		.fpu fpv4-sp-d16
 106              	mat_f32_destroy:
 107              	.LVL9:
 108              	.LFB146:
  23:/home/takumi/takumique/main/reservoir/app/cmcis/mat.c **** 
  24:/home/takumi/takumique/main/reservoir/app/cmcis/mat.c **** void mat_f32_destroy(mat_memory_t *mem, mat_f32_t *a) {
 109              		.loc 1 24 55 is_stmt 1 view -0
 110              		.cfi_startproc
 111              		@ args = 0, pretend = 0, frame = 0
 112              		@ frame_needed = 0, uses_anonymous_args = 0
  25:/home/takumi/takumique/main/reservoir/app/cmcis/mat.c ****   if(mem && mem->memory_free) {
 113              		.loc 1 25 3 view .LVU27
 114              		.loc 1 25 5 is_stmt 0 view .LVU28
 115 0000 40B1     		cbz	r0, .L9
  24:/home/takumi/takumique/main/reservoir/app/cmcis/mat.c ****   if(mem && mem->memory_free) {
 116              		.loc 1 24 55 discriminator 1 view .LVU29
 117 0002 10B5     		push	{r4, lr}
 118              	.LCFI1:
 119              		.cfi_def_cfa_offset 8
 120              		.cfi_offset 4, -8
 121              		.cfi_offset 14, -4
 122 0004 0C46     		mov	r4, r1
 123              		.loc 1 25 16 discriminator 1 view .LVU30
 124 0006 4368     		ldr	r3, [r0, #4]
 125              		.loc 1 25 10 discriminator 1 view .LVU31
 126 0008 1BB1     		cbz	r3, .L6
  26:/home/takumi/takumique/main/reservoir/app/cmcis/mat.c ****     mem->memory_free(a->data);
 127              		.loc 1 26 5 is_stmt 1 view .LVU32
 128 000a 0868     		ldr	r0, [r1]
 129              	.LVL10:
 130              		.loc 1 26 5 is_stmt 0 view .LVU33
 131 000c 9847     		blx	r3
 132              	.LVL11:
  27:/home/takumi/takumique/main/reservoir/app/cmcis/mat.c ****     a->data = NULL;
 133              		.loc 1 27 5 is_stmt 1 view .LVU34
 134              		.loc 1 27 13 is_stmt 0 view .LVU35
 135 000e 0023     		movs	r3, #0
 136 0010 2360     		str	r3, [r4]
 137              	.L6:
  28:/home/takumi/takumique/main/reservoir/app/cmcis/mat.c ****   }
  29:/home/takumi/takumique/main/reservoir/app/cmcis/mat.c **** }
 138              		.loc 1 29 1 view .LVU36
 139 0012 10BD     		pop	{r4, pc}
 140              	.LVL12:
ARM GAS  /tmp/ccgNCQ0i.s 			page 4


 141              	.L9:
 142              	.LCFI2:
 143              		.cfi_def_cfa_offset 0
 144              		.cfi_restore 4
 145              		.cfi_restore 14
 146              		.loc 1 29 1 view .LVU37
 147 0014 7047     		bx	lr
 148              		.cfi_endproc
 149              	.LFE146:
 151              		.section	.text.mat_f32_copy,"ax",%progbits
 152              		.align	1
 153              		.global	mat_f32_copy
 154              		.syntax unified
 155              		.thumb
 156              		.thumb_func
 157              		.fpu fpv4-sp-d16
 159              	mat_f32_copy:
 160              	.LVL13:
 161              	.LFB147:
  30:/home/takumi/takumique/main/reservoir/app/cmcis/mat.c **** 
  31:/home/takumi/takumique/main/reservoir/app/cmcis/mat.c **** int mat_f32_copy(mat_f32_t *dst, mat_f32_t *src) {
 162              		.loc 1 31 50 is_stmt 1 view -0
 163              		.cfi_startproc
 164              		@ args = 0, pretend = 0, frame = 0
 165              		@ frame_needed = 0, uses_anonymous_args = 0
 166              		.loc 1 31 50 is_stmt 0 view .LVU39
 167 0000 08B5     		push	{r3, lr}
 168              	.LCFI3:
 169              		.cfi_def_cfa_offset 8
 170              		.cfi_offset 3, -8
 171              		.cfi_offset 14, -4
  32:/home/takumi/takumique/main/reservoir/app/cmcis/mat.c ****   memcpy(dst->data, src->data, sizeof(f32_t) * dst->n * dst->m);
 172              		.loc 1 32 3 is_stmt 1 view .LVU40
 173              		.loc 1 32 51 is_stmt 0 view .LVU41
 174 0002 4368     		ldr	r3, [r0, #4]
 175              		.loc 1 32 60 view .LVU42
 176 0004 8268     		ldr	r2, [r0, #8]
 177              		.loc 1 32 55 view .LVU43
 178 0006 02FB03F2 		mul	r2, r2, r3
 179              		.loc 1 32 3 view .LVU44
 180 000a 9200     		lsls	r2, r2, #2
 181 000c 0968     		ldr	r1, [r1]
 182              	.LVL14:
 183              		.loc 1 32 3 view .LVU45
 184 000e 0068     		ldr	r0, [r0]
 185              	.LVL15:
 186              		.loc 1 32 3 view .LVU46
 187 0010 FFF7FEFF 		bl	memcpy
 188              	.LVL16:
  33:/home/takumi/takumique/main/reservoir/app/cmcis/mat.c ****   return 0;
 189              		.loc 1 33 3 is_stmt 1 view .LVU47
  34:/home/takumi/takumique/main/reservoir/app/cmcis/mat.c **** }
 190              		.loc 1 34 1 is_stmt 0 view .LVU48
 191 0014 0020     		movs	r0, #0
 192 0016 08BD     		pop	{r3, pc}
 193              		.cfi_endproc
 194              	.LFE147:
ARM GAS  /tmp/ccgNCQ0i.s 			page 5


 196              		.section	.text.mat_f32_zeros,"ax",%progbits
 197              		.align	1
 198              		.global	mat_f32_zeros
 199              		.syntax unified
 200              		.thumb
 201              		.thumb_func
 202              		.fpu fpv4-sp-d16
 204              	mat_f32_zeros:
 205              	.LVL17:
 206              	.LFB148:
  35:/home/takumi/takumique/main/reservoir/app/cmcis/mat.c **** 
  36:/home/takumi/takumique/main/reservoir/app/cmcis/mat.c **** int mat_f32_zeros(mat_f32_t *a) {
 207              		.loc 1 36 33 is_stmt 1 view -0
 208              		.cfi_startproc
 209              		@ args = 0, pretend = 0, frame = 0
 210              		@ frame_needed = 0, uses_anonymous_args = 0
 211              		.loc 1 36 33 is_stmt 0 view .LVU50
 212 0000 08B5     		push	{r3, lr}
 213              	.LCFI4:
 214              		.cfi_def_cfa_offset 8
 215              		.cfi_offset 3, -8
 216              		.cfi_offset 14, -4
  37:/home/takumi/takumique/main/reservoir/app/cmcis/mat.c ****   memset(a->data, 0, sizeof(f32_t) * a->n * a->m);
 217              		.loc 1 37 3 is_stmt 1 view .LVU51
 218              		.loc 1 37 39 is_stmt 0 view .LVU52
 219 0002 4368     		ldr	r3, [r0, #4]
 220              		.loc 1 37 46 view .LVU53
 221 0004 8268     		ldr	r2, [r0, #8]
 222              		.loc 1 37 43 view .LVU54
 223 0006 02FB03F2 		mul	r2, r2, r3
 224              		.loc 1 37 3 view .LVU55
 225 000a 9200     		lsls	r2, r2, #2
 226 000c 0021     		movs	r1, #0
 227 000e 0068     		ldr	r0, [r0]
 228              	.LVL18:
 229              		.loc 1 37 3 view .LVU56
 230 0010 FFF7FEFF 		bl	memset
 231              	.LVL19:
  38:/home/takumi/takumique/main/reservoir/app/cmcis/mat.c ****   return 0;
 232              		.loc 1 38 3 is_stmt 1 view .LVU57
  39:/home/takumi/takumique/main/reservoir/app/cmcis/mat.c **** }
 233              		.loc 1 39 1 is_stmt 0 view .LVU58
 234 0014 0020     		movs	r0, #0
 235 0016 08BD     		pop	{r3, pc}
 236              		.cfi_endproc
 237              	.LFE148:
 239              		.section	.text.mat_f32_sum,"ax",%progbits
 240              		.align	1
 241              		.global	mat_f32_sum
 242              		.syntax unified
 243              		.thumb
 244              		.thumb_func
 245              		.fpu fpv4-sp-d16
 247              	mat_f32_sum:
 248              	.LVL20:
 249              	.LFB149:
  40:/home/takumi/takumique/main/reservoir/app/cmcis/mat.c **** 
ARM GAS  /tmp/ccgNCQ0i.s 			page 6


  41:/home/takumi/takumique/main/reservoir/app/cmcis/mat.c **** int mat_f32_sum(mat_f32_t *c, mat_f32_t *a, mat_f32_t *b) {
 250              		.loc 1 41 59 is_stmt 1 view -0
 251              		.cfi_startproc
 252              		@ args = 0, pretend = 0, frame = 0
 253              		@ frame_needed = 0, uses_anonymous_args = 0
 254              		@ link register save eliminated.
 255              		.loc 1 41 59 is_stmt 0 view .LVU60
 256 0000 F0B4     		push	{r4, r5, r6, r7}
 257              	.LCFI5:
 258              		.cfi_def_cfa_offset 16
 259              		.cfi_offset 4, -16
 260              		.cfi_offset 5, -12
 261              		.cfi_offset 6, -8
 262              		.cfi_offset 7, -4
  42:/home/takumi/takumique/main/reservoir/app/cmcis/mat.c **** #ifdef CHECK_ARGS
  43:/home/takumi/takumique/main/reservoir/app/cmcis/mat.c ****   if(c->n != a->n) {
 263              		.loc 1 43 3 is_stmt 1 view .LVU61
 264              		.loc 1 43 7 is_stmt 0 view .LVU62
 265 0002 4468     		ldr	r4, [r0, #4]
 266              		.loc 1 43 15 view .LVU63
 267 0004 4B68     		ldr	r3, [r1, #4]
 268              		.loc 1 43 5 view .LVU64
 269 0006 9C42     		cmp	r4, r3
 270 0008 40F0E480 		bne	.L39
  44:/home/takumi/takumique/main/reservoir/app/cmcis/mat.c ****     return -1;
  45:/home/takumi/takumique/main/reservoir/app/cmcis/mat.c ****   }
  46:/home/takumi/takumique/main/reservoir/app/cmcis/mat.c ****   if(c->m != a->m) {
 271              		.loc 1 46 3 is_stmt 1 view .LVU65
 272              		.loc 1 46 7 is_stmt 0 view .LVU66
 273 000c 8568     		ldr	r5, [r0, #8]
 274              		.loc 1 46 15 view .LVU67
 275 000e 8B68     		ldr	r3, [r1, #8]
 276              		.loc 1 46 5 view .LVU68
 277 0010 9D42     		cmp	r5, r3
 278 0012 40F0E280 		bne	.L40
  47:/home/takumi/takumique/main/reservoir/app/cmcis/mat.c ****     return -1;
  48:/home/takumi/takumique/main/reservoir/app/cmcis/mat.c ****   }
  49:/home/takumi/takumique/main/reservoir/app/cmcis/mat.c ****   if(c->n != b->n) {
 279              		.loc 1 49 3 is_stmt 1 view .LVU69
 280              		.loc 1 49 15 is_stmt 0 view .LVU70
 281 0016 5368     		ldr	r3, [r2, #4]
 282              		.loc 1 49 5 view .LVU71
 283 0018 9C42     		cmp	r4, r3
 284 001a 40F0E180 		bne	.L41
  50:/home/takumi/takumique/main/reservoir/app/cmcis/mat.c ****     return -1;
  51:/home/takumi/takumique/main/reservoir/app/cmcis/mat.c ****   }
  52:/home/takumi/takumique/main/reservoir/app/cmcis/mat.c ****   if(c->m != b->m) {
 285              		.loc 1 52 3 is_stmt 1 view .LVU72
 286              		.loc 1 52 15 is_stmt 0 view .LVU73
 287 001e 9368     		ldr	r3, [r2, #8]
 288              		.loc 1 52 5 view .LVU74
 289 0020 9D42     		cmp	r5, r3
 290 0022 00F09980 		beq	.L34
  53:/home/takumi/takumique/main/reservoir/app/cmcis/mat.c ****     return -1;
 291              		.loc 1 53 12 view .LVU75
 292 0026 4FF0FF30 		mov	r0, #-1
 293              	.LVL21:
ARM GAS  /tmp/ccgNCQ0i.s 			page 7


 294              		.loc 1 53 12 view .LVU76
 295 002a 18E0     		b	.L16
 296              	.LVL22:
 297              	.L21:
 298              	.LBB2:
  54:/home/takumi/takumique/main/reservoir/app/cmcis/mat.c ****   }
  55:/home/takumi/takumique/main/reservoir/app/cmcis/mat.c **** #endif
  56:/home/takumi/takumique/main/reservoir/app/cmcis/mat.c ****   for(;;) {
  57:/home/takumi/takumique/main/reservoir/app/cmcis/mat.c ****     if(c->n == 1 || c->m == 1) {
  58:/home/takumi/takumique/main/reservoir/app/cmcis/mat.c ****       for(unsigned i = 0; i < c->n * c->m; i++) {
  59:/home/takumi/takumique/main/reservoir/app/cmcis/mat.c ****         *(c->data + i) = *(a->data + i) + *(b->data + i);
 299              		.loc 1 59 9 is_stmt 1 discriminator 3 view .LVU77
 300              		.loc 1 59 29 is_stmt 0 discriminator 3 view .LVU78
 301 002c 0C68     		ldr	r4, [r1]
 302              		.loc 1 59 36 discriminator 3 view .LVU79
 303 002e 04EB8304 		add	r4, r4, r3, lsl #2
 304              		.loc 1 59 26 discriminator 3 view .LVU80
 305 0032 D4ED007A 		vldr.32	s15, [r4]
 306              		.loc 1 59 46 discriminator 3 view .LVU81
 307 0036 1468     		ldr	r4, [r2]
 308              		.loc 1 59 53 discriminator 3 view .LVU82
 309 0038 04EB8304 		add	r4, r4, r3, lsl #2
 310              		.loc 1 59 43 discriminator 3 view .LVU83
 311 003c 94ED007A 		vldr.32	s14, [r4]
 312              		.loc 1 59 12 discriminator 3 view .LVU84
 313 0040 0468     		ldr	r4, [r0]
 314              		.loc 1 59 19 discriminator 3 view .LVU85
 315 0042 04EB8304 		add	r4, r4, r3, lsl #2
 316              		.loc 1 59 41 discriminator 3 view .LVU86
 317 0046 77EE877A 		vadd.f32	s15, s15, s14
 318              		.loc 1 59 24 discriminator 3 view .LVU87
 319 004a C4ED007A 		vstr.32	s15, [r4]
  58:/home/takumi/takumique/main/reservoir/app/cmcis/mat.c ****         *(c->data + i) = *(a->data + i) + *(b->data + i);
 320              		.loc 1 58 44 is_stmt 1 discriminator 3 view .LVU88
  58:/home/takumi/takumique/main/reservoir/app/cmcis/mat.c ****         *(c->data + i) = *(a->data + i) + *(b->data + i);
 321              		.loc 1 58 45 is_stmt 0 discriminator 3 view .LVU89
 322 004e 0133     		adds	r3, r3, #1
 323              	.LVL23:
 324              	.L20:
  58:/home/takumi/takumique/main/reservoir/app/cmcis/mat.c ****         *(c->data + i) = *(a->data + i) + *(b->data + i);
 325              		.loc 1 58 27 is_stmt 1 discriminator 1 view .LVU90
  58:/home/takumi/takumique/main/reservoir/app/cmcis/mat.c ****         *(c->data + i) = *(a->data + i) + *(b->data + i);
 326              		.loc 1 58 32 is_stmt 0 discriminator 1 view .LVU91
 327 0050 4568     		ldr	r5, [r0, #4]
  58:/home/takumi/takumique/main/reservoir/app/cmcis/mat.c ****         *(c->data + i) = *(a->data + i) + *(b->data + i);
 328              		.loc 1 58 39 discriminator 1 view .LVU92
 329 0052 8468     		ldr	r4, [r0, #8]
  58:/home/takumi/takumique/main/reservoir/app/cmcis/mat.c ****         *(c->data + i) = *(a->data + i) + *(b->data + i);
 330              		.loc 1 58 36 discriminator 1 view .LVU93
 331 0054 04FB05F4 		mul	r4, r4, r5
  58:/home/takumi/takumique/main/reservoir/app/cmcis/mat.c ****         *(c->data + i) = *(a->data + i) + *(b->data + i);
 332              		.loc 1 58 7 discriminator 1 view .LVU94
 333 0058 9C42     		cmp	r4, r3
 334 005a E7D8     		bhi	.L21
 335              	.LBE2:
  60:/home/takumi/takumique/main/reservoir/app/cmcis/mat.c ****       }
  61:/home/takumi/takumique/main/reservoir/app/cmcis/mat.c ****       break;
ARM GAS  /tmp/ccgNCQ0i.s 			page 8


  62:/home/takumi/takumique/main/reservoir/app/cmcis/mat.c ****     }
  63:/home/takumi/takumique/main/reservoir/app/cmcis/mat.c ****     if(!a->t && !b->t) {
  64:/home/takumi/takumique/main/reservoir/app/cmcis/mat.c ****       for(unsigned n = 0; n < c->n; n++) {
  65:/home/takumi/takumique/main/reservoir/app/cmcis/mat.c ****         for(unsigned m = 0; m < c->m; m++) {
  66:/home/takumi/takumique/main/reservoir/app/cmcis/mat.c ****           *_MAT(*c, n, m) = *_MAT(*a, n, m) + *_MAT(*b, n, m);
  67:/home/takumi/takumique/main/reservoir/app/cmcis/mat.c ****         }
  68:/home/takumi/takumique/main/reservoir/app/cmcis/mat.c ****       }
  69:/home/takumi/takumique/main/reservoir/app/cmcis/mat.c ****       break;
  70:/home/takumi/takumique/main/reservoir/app/cmcis/mat.c ****     }
  71:/home/takumi/takumique/main/reservoir/app/cmcis/mat.c ****     if(a->t && !b->t) {
  72:/home/takumi/takumique/main/reservoir/app/cmcis/mat.c ****       for(unsigned n = 0; n < c->n; n++) {
  73:/home/takumi/takumique/main/reservoir/app/cmcis/mat.c ****         for(unsigned m = 0; m < c->m; m++) {
  74:/home/takumi/takumique/main/reservoir/app/cmcis/mat.c ****           *_MAT(*c, n, m) = *_MAT_T(*a, n, m) + *_MAT(*b, n, m);
  75:/home/takumi/takumique/main/reservoir/app/cmcis/mat.c ****         }
  76:/home/takumi/takumique/main/reservoir/app/cmcis/mat.c ****       }
  77:/home/takumi/takumique/main/reservoir/app/cmcis/mat.c ****       break;
  78:/home/takumi/takumique/main/reservoir/app/cmcis/mat.c ****     }
  79:/home/takumi/takumique/main/reservoir/app/cmcis/mat.c ****     if(!a->t && b->t) {
  80:/home/takumi/takumique/main/reservoir/app/cmcis/mat.c ****       for(unsigned n = 0; n < c->n; n++) {
  81:/home/takumi/takumique/main/reservoir/app/cmcis/mat.c ****         for(unsigned m = 0; m < c->m; m++) {
  82:/home/takumi/takumique/main/reservoir/app/cmcis/mat.c ****           *_MAT(*c, n, m) = *_MAT(*a, n, m) + *_MAT_T(*b, n, m);
  83:/home/takumi/takumique/main/reservoir/app/cmcis/mat.c ****         }
  84:/home/takumi/takumique/main/reservoir/app/cmcis/mat.c ****       }
  85:/home/takumi/takumique/main/reservoir/app/cmcis/mat.c ****       break;
  86:/home/takumi/takumique/main/reservoir/app/cmcis/mat.c ****     }
  87:/home/takumi/takumique/main/reservoir/app/cmcis/mat.c ****     if(a->t && b->t) {
  88:/home/takumi/takumique/main/reservoir/app/cmcis/mat.c ****       for(unsigned n = 0; n < c->n; n++) {
  89:/home/takumi/takumique/main/reservoir/app/cmcis/mat.c ****         for(unsigned m = 0; m < c->m; m++) {
  90:/home/takumi/takumique/main/reservoir/app/cmcis/mat.c ****           *_MAT(*c, n, m) = *_MAT_T(*a, n, m) + *_MAT_T(*b, n, m);
  91:/home/takumi/takumique/main/reservoir/app/cmcis/mat.c ****         }
  92:/home/takumi/takumique/main/reservoir/app/cmcis/mat.c ****       }
  93:/home/takumi/takumique/main/reservoir/app/cmcis/mat.c ****       break;
  94:/home/takumi/takumique/main/reservoir/app/cmcis/mat.c ****     }
  95:/home/takumi/takumique/main/reservoir/app/cmcis/mat.c ****   }
  96:/home/takumi/takumique/main/reservoir/app/cmcis/mat.c ****   return 0;
 336              		.loc 1 96 10 view .LVU95
 337 005c 0020     		movs	r0, #0
 338              	.LVL24:
 339              	.L16:
  97:/home/takumi/takumique/main/reservoir/app/cmcis/mat.c **** }
 340              		.loc 1 97 1 view .LVU96
 341 005e F0BC     		pop	{r4, r5, r6, r7}
 342              	.LCFI6:
 343              		.cfi_remember_state
 344              		.cfi_restore 7
 345              		.cfi_restore 6
 346              		.cfi_restore 5
 347              		.cfi_restore 4
 348              		.cfi_def_cfa_offset 0
 349 0060 7047     		bx	lr
 350              	.LVL25:
 351              	.L43:
 352              	.LCFI7:
 353              		.cfi_restore_state
 354              		.loc 1 97 1 view .LVU97
 355 0062 0023     		movs	r3, #0
 356 0064 F4E7     		b	.L20
ARM GAS  /tmp/ccgNCQ0i.s 			page 9


 357              	.L61:
 358 0066 0023     		movs	r3, #0
 359 0068 F2E7     		b	.L20
 360              	.LVL26:
 361              	.L24:
 362              	.LBB3:
 363              	.LBB4:
  66:/home/takumi/takumique/main/reservoir/app/cmcis/mat.c ****         }
 364              		.loc 1 66 11 is_stmt 1 discriminator 3 view .LVU98
  66:/home/takumi/takumique/main/reservoir/app/cmcis/mat.c ****         }
 365              		.loc 1 66 30 is_stmt 0 discriminator 3 view .LVU99
 366 006a 0D68     		ldr	r5, [r1]
 367 006c 8E68     		ldr	r6, [r1, #8]
 368 006e 0CFB0636 		mla	r6, ip, r6, r3
 369 0072 05EB8605 		add	r5, r5, r6, lsl #2
  66:/home/takumi/takumique/main/reservoir/app/cmcis/mat.c ****         }
 370              		.loc 1 66 29 discriminator 3 view .LVU100
 371 0076 D5ED007A 		vldr.32	s15, [r5]
  66:/home/takumi/takumique/main/reservoir/app/cmcis/mat.c ****         }
 372              		.loc 1 66 48 discriminator 3 view .LVU101
 373 007a 1568     		ldr	r5, [r2]
 374 007c 9668     		ldr	r6, [r2, #8]
 375 007e 0CFB0636 		mla	r6, ip, r6, r3
 376 0082 05EB8605 		add	r5, r5, r6, lsl #2
  66:/home/takumi/takumique/main/reservoir/app/cmcis/mat.c ****         }
 377              		.loc 1 66 47 discriminator 3 view .LVU102
 378 0086 95ED007A 		vldr.32	s14, [r5]
  66:/home/takumi/takumique/main/reservoir/app/cmcis/mat.c ****         }
 379              		.loc 1 66 12 discriminator 3 view .LVU103
 380 008a 0568     		ldr	r5, [r0]
 381 008c 0CFB0434 		mla	r4, ip, r4, r3
 382 0090 05EB8405 		add	r5, r5, r4, lsl #2
  66:/home/takumi/takumique/main/reservoir/app/cmcis/mat.c ****         }
 383              		.loc 1 66 45 discriminator 3 view .LVU104
 384 0094 77EE877A 		vadd.f32	s15, s15, s14
  66:/home/takumi/takumique/main/reservoir/app/cmcis/mat.c ****         }
 385              		.loc 1 66 27 discriminator 3 view .LVU105
 386 0098 C5ED007A 		vstr.32	s15, [r5]
  65:/home/takumi/takumique/main/reservoir/app/cmcis/mat.c ****           *_MAT(*c, n, m) = *_MAT(*a, n, m) + *_MAT(*b, n, m);
 387              		.loc 1 65 39 is_stmt 1 discriminator 3 view .LVU106
  65:/home/takumi/takumique/main/reservoir/app/cmcis/mat.c ****           *_MAT(*c, n, m) = *_MAT(*a, n, m) + *_MAT(*b, n, m);
 388              		.loc 1 65 40 is_stmt 0 discriminator 3 view .LVU107
 389 009c 0133     		adds	r3, r3, #1
 390              	.LVL27:
 391              	.L25:
  65:/home/takumi/takumique/main/reservoir/app/cmcis/mat.c ****           *_MAT(*c, n, m) = *_MAT(*a, n, m) + *_MAT(*b, n, m);
 392              		.loc 1 65 29 is_stmt 1 discriminator 1 view .LVU108
  65:/home/takumi/takumique/main/reservoir/app/cmcis/mat.c ****           *_MAT(*c, n, m) = *_MAT(*a, n, m) + *_MAT(*b, n, m);
 393              		.loc 1 65 34 is_stmt 0 discriminator 1 view .LVU109
 394 009e 8468     		ldr	r4, [r0, #8]
  65:/home/takumi/takumique/main/reservoir/app/cmcis/mat.c ****           *_MAT(*c, n, m) = *_MAT(*a, n, m) + *_MAT(*b, n, m);
 395              		.loc 1 65 9 discriminator 1 view .LVU110
 396 00a0 9C42     		cmp	r4, r3
 397 00a2 E2D8     		bhi	.L24
 398              	.LBE4:
  64:/home/takumi/takumique/main/reservoir/app/cmcis/mat.c ****         for(unsigned m = 0; m < c->m; m++) {
 399              		.loc 1 64 37 is_stmt 1 discriminator 2 view .LVU111
ARM GAS  /tmp/ccgNCQ0i.s 			page 10


  64:/home/takumi/takumique/main/reservoir/app/cmcis/mat.c ****         for(unsigned m = 0; m < c->m; m++) {
 400              		.loc 1 64 38 is_stmt 0 discriminator 2 view .LVU112
 401 00a4 0CF1010C 		add	ip, ip, #1
 402              	.LVL28:
 403              	.L23:
  64:/home/takumi/takumique/main/reservoir/app/cmcis/mat.c ****         for(unsigned m = 0; m < c->m; m++) {
 404              		.loc 1 64 27 is_stmt 1 discriminator 1 view .LVU113
  64:/home/takumi/takumique/main/reservoir/app/cmcis/mat.c ****         for(unsigned m = 0; m < c->m; m++) {
 405              		.loc 1 64 32 is_stmt 0 discriminator 1 view .LVU114
 406 00a8 4368     		ldr	r3, [r0, #4]
  64:/home/takumi/takumique/main/reservoir/app/cmcis/mat.c ****         for(unsigned m = 0; m < c->m; m++) {
 407              		.loc 1 64 7 discriminator 1 view .LVU115
 408 00aa 6345     		cmp	r3, ip
 409 00ac 03D9     		bls	.L55
 410              	.LBB5:
  65:/home/takumi/takumique/main/reservoir/app/cmcis/mat.c ****           *_MAT(*c, n, m) = *_MAT(*a, n, m) + *_MAT(*b, n, m);
 411              		.loc 1 65 22 view .LVU116
 412 00ae 3B46     		mov	r3, r7
 413 00b0 F5E7     		b	.L25
 414              	.LVL29:
 415              	.L62:
  65:/home/takumi/takumique/main/reservoir/app/cmcis/mat.c ****           *_MAT(*c, n, m) = *_MAT(*a, n, m) + *_MAT(*b, n, m);
 416              		.loc 1 65 22 view .LVU117
 417              	.LBE5:
  64:/home/takumi/takumique/main/reservoir/app/cmcis/mat.c ****         for(unsigned m = 0; m < c->m; m++) {
 418              		.loc 1 64 20 view .LVU118
 419 00b2 BC46     		mov	ip, r7
 420 00b4 F8E7     		b	.L23
 421              	.LVL30:
 422              	.L55:
  64:/home/takumi/takumique/main/reservoir/app/cmcis/mat.c ****         for(unsigned m = 0; m < c->m; m++) {
 423              		.loc 1 64 20 view .LVU119
 424              	.LBE3:
  96:/home/takumi/takumique/main/reservoir/app/cmcis/mat.c **** }
 425              		.loc 1 96 10 view .LVU120
 426 00b6 0020     		movs	r0, #0
 427              	.LVL31:
  96:/home/takumi/takumique/main/reservoir/app/cmcis/mat.c **** }
 428              		.loc 1 96 10 view .LVU121
 429 00b8 D1E7     		b	.L16
 430              	.LVL32:
 431              	.L57:
 432              	.LBB6:
  72:/home/takumi/takumique/main/reservoir/app/cmcis/mat.c ****         for(unsigned m = 0; m < c->m; m++) {
 433              		.loc 1 72 37 is_stmt 1 discriminator 2 view .LVU122
  72:/home/takumi/takumique/main/reservoir/app/cmcis/mat.c ****         for(unsigned m = 0; m < c->m; m++) {
 434              		.loc 1 72 38 is_stmt 0 discriminator 2 view .LVU123
 435 00ba 0CF1010C 		add	ip, ip, #1
 436              	.LVL33:
 437              	.L27:
  72:/home/takumi/takumique/main/reservoir/app/cmcis/mat.c ****         for(unsigned m = 0; m < c->m; m++) {
 438              		.loc 1 72 27 is_stmt 1 discriminator 1 view .LVU124
  72:/home/takumi/takumique/main/reservoir/app/cmcis/mat.c ****         for(unsigned m = 0; m < c->m; m++) {
 439              		.loc 1 72 32 is_stmt 0 discriminator 1 view .LVU125
 440 00be 4368     		ldr	r3, [r0, #4]
  72:/home/takumi/takumique/main/reservoir/app/cmcis/mat.c ****         for(unsigned m = 0; m < c->m; m++) {
 441              		.loc 1 72 7 discriminator 1 view .LVU126
ARM GAS  /tmp/ccgNCQ0i.s 			page 11


 442 00c0 6345     		cmp	r3, ip
 443 00c2 20D9     		bls	.L56
 444              	.LBB7:
  73:/home/takumi/takumique/main/reservoir/app/cmcis/mat.c ****           *_MAT(*c, n, m) = *_MAT_T(*a, n, m) + *_MAT(*b, n, m);
 445              		.loc 1 73 22 view .LVU127
 446 00c4 3B46     		mov	r3, r7
 447              	.L29:
 448              	.LVL34:
  73:/home/takumi/takumique/main/reservoir/app/cmcis/mat.c ****           *_MAT(*c, n, m) = *_MAT_T(*a, n, m) + *_MAT(*b, n, m);
 449              		.loc 1 73 29 is_stmt 1 discriminator 1 view .LVU128
  73:/home/takumi/takumique/main/reservoir/app/cmcis/mat.c ****           *_MAT(*c, n, m) = *_MAT_T(*a, n, m) + *_MAT(*b, n, m);
 450              		.loc 1 73 34 is_stmt 0 discriminator 1 view .LVU129
 451 00c6 8468     		ldr	r4, [r0, #8]
  73:/home/takumi/takumique/main/reservoir/app/cmcis/mat.c ****           *_MAT(*c, n, m) = *_MAT_T(*a, n, m) + *_MAT(*b, n, m);
 452              		.loc 1 73 9 discriminator 1 view .LVU130
 453 00c8 9C42     		cmp	r4, r3
 454 00ca F6D9     		bls	.L57
  74:/home/takumi/takumique/main/reservoir/app/cmcis/mat.c ****         }
 455              		.loc 1 74 11 is_stmt 1 discriminator 3 view .LVU131
  74:/home/takumi/takumique/main/reservoir/app/cmcis/mat.c ****         }
 456              		.loc 1 74 30 is_stmt 0 discriminator 3 view .LVU132
 457 00cc 0D68     		ldr	r5, [r1]
 458 00ce 4E68     		ldr	r6, [r1, #4]
 459 00d0 03FB06C6 		mla	r6, r3, r6, ip
 460 00d4 05EB8605 		add	r5, r5, r6, lsl #2
  74:/home/takumi/takumique/main/reservoir/app/cmcis/mat.c ****         }
 461              		.loc 1 74 29 discriminator 3 view .LVU133
 462 00d8 D5ED007A 		vldr.32	s15, [r5]
  74:/home/takumi/takumique/main/reservoir/app/cmcis/mat.c ****         }
 463              		.loc 1 74 50 discriminator 3 view .LVU134
 464 00dc 1568     		ldr	r5, [r2]
 465 00de 9668     		ldr	r6, [r2, #8]
 466 00e0 0CFB0636 		mla	r6, ip, r6, r3
 467 00e4 05EB8605 		add	r5, r5, r6, lsl #2
  74:/home/takumi/takumique/main/reservoir/app/cmcis/mat.c ****         }
 468              		.loc 1 74 49 discriminator 3 view .LVU135
 469 00e8 95ED007A 		vldr.32	s14, [r5]
  74:/home/takumi/takumique/main/reservoir/app/cmcis/mat.c ****         }
 470              		.loc 1 74 12 discriminator 3 view .LVU136
 471 00ec 0568     		ldr	r5, [r0]
 472 00ee 0CFB0434 		mla	r4, ip, r4, r3
 473 00f2 05EB8405 		add	r5, r5, r4, lsl #2
  74:/home/takumi/takumique/main/reservoir/app/cmcis/mat.c ****         }
 474              		.loc 1 74 47 discriminator 3 view .LVU137
 475 00f6 77EE877A 		vadd.f32	s15, s15, s14
  74:/home/takumi/takumique/main/reservoir/app/cmcis/mat.c ****         }
 476              		.loc 1 74 27 discriminator 3 view .LVU138
 477 00fa C5ED007A 		vstr.32	s15, [r5]
  73:/home/takumi/takumique/main/reservoir/app/cmcis/mat.c ****           *_MAT(*c, n, m) = *_MAT_T(*a, n, m) + *_MAT(*b, n, m);
 478              		.loc 1 73 39 is_stmt 1 discriminator 3 view .LVU139
  73:/home/takumi/takumique/main/reservoir/app/cmcis/mat.c ****           *_MAT(*c, n, m) = *_MAT_T(*a, n, m) + *_MAT(*b, n, m);
 479              		.loc 1 73 40 is_stmt 0 discriminator 3 view .LVU140
 480 00fe 0133     		adds	r3, r3, #1
 481              	.LVL35:
  73:/home/takumi/takumique/main/reservoir/app/cmcis/mat.c ****           *_MAT(*c, n, m) = *_MAT_T(*a, n, m) + *_MAT(*b, n, m);
 482              		.loc 1 73 40 discriminator 3 view .LVU141
 483 0100 E1E7     		b	.L29
ARM GAS  /tmp/ccgNCQ0i.s 			page 12


 484              	.LVL36:
 485              	.L63:
  73:/home/takumi/takumique/main/reservoir/app/cmcis/mat.c ****           *_MAT(*c, n, m) = *_MAT_T(*a, n, m) + *_MAT(*b, n, m);
 486              		.loc 1 73 40 discriminator 3 view .LVU142
 487              	.LBE7:
  72:/home/takumi/takumique/main/reservoir/app/cmcis/mat.c ****         for(unsigned m = 0; m < c->m; m++) {
 488              		.loc 1 72 20 view .LVU143
 489 0102 BC46     		mov	ip, r7
 490 0104 DBE7     		b	.L27
 491              	.LVL37:
 492              	.L56:
  72:/home/takumi/takumique/main/reservoir/app/cmcis/mat.c ****         for(unsigned m = 0; m < c->m; m++) {
 493              		.loc 1 72 20 view .LVU144
 494              	.LBE6:
  96:/home/takumi/takumique/main/reservoir/app/cmcis/mat.c **** }
 495              		.loc 1 96 10 view .LVU145
 496 0106 0020     		movs	r0, #0
 497              	.LVL38:
  96:/home/takumi/takumique/main/reservoir/app/cmcis/mat.c **** }
 498              		.loc 1 96 10 view .LVU146
 499 0108 A9E7     		b	.L16
 500              	.LVL39:
 501              	.L59:
 502              	.LBB8:
  80:/home/takumi/takumique/main/reservoir/app/cmcis/mat.c ****         for(unsigned m = 0; m < c->m; m++) {
 503              		.loc 1 80 37 is_stmt 1 discriminator 2 view .LVU147
  80:/home/takumi/takumique/main/reservoir/app/cmcis/mat.c ****         for(unsigned m = 0; m < c->m; m++) {
 504              		.loc 1 80 38 is_stmt 0 discriminator 2 view .LVU148
 505 010a 0CF1010C 		add	ip, ip, #1
 506              	.LVL40:
 507              	.L31:
  80:/home/takumi/takumique/main/reservoir/app/cmcis/mat.c ****         for(unsigned m = 0; m < c->m; m++) {
 508              		.loc 1 80 27 is_stmt 1 discriminator 1 view .LVU149
  80:/home/takumi/takumique/main/reservoir/app/cmcis/mat.c ****         for(unsigned m = 0; m < c->m; m++) {
 509              		.loc 1 80 32 is_stmt 0 discriminator 1 view .LVU150
 510 010e 4468     		ldr	r4, [r0, #4]
  80:/home/takumi/takumique/main/reservoir/app/cmcis/mat.c ****         for(unsigned m = 0; m < c->m; m++) {
 511              		.loc 1 80 7 discriminator 1 view .LVU151
 512 0110 6445     		cmp	r4, ip
 513 0112 1ED9     		bls	.L58
 514              	.LBB9:
  81:/home/takumi/takumique/main/reservoir/app/cmcis/mat.c ****           *_MAT(*c, n, m) = *_MAT(*a, n, m) + *_MAT_T(*b, n, m);
 515              		.loc 1 81 22 view .LVU152
 516 0114 1C46     		mov	r4, r3
 517              	.L33:
 518              	.LVL41:
  81:/home/takumi/takumique/main/reservoir/app/cmcis/mat.c ****           *_MAT(*c, n, m) = *_MAT(*a, n, m) + *_MAT_T(*b, n, m);
 519              		.loc 1 81 29 is_stmt 1 discriminator 1 view .LVU153
  81:/home/takumi/takumique/main/reservoir/app/cmcis/mat.c ****           *_MAT(*c, n, m) = *_MAT(*a, n, m) + *_MAT_T(*b, n, m);
 520              		.loc 1 81 34 is_stmt 0 discriminator 1 view .LVU154
 521 0116 8568     		ldr	r5, [r0, #8]
  81:/home/takumi/takumique/main/reservoir/app/cmcis/mat.c ****           *_MAT(*c, n, m) = *_MAT(*a, n, m) + *_MAT_T(*b, n, m);
 522              		.loc 1 81 9 discriminator 1 view .LVU155
 523 0118 A542     		cmp	r5, r4
 524 011a F6D9     		bls	.L59
  82:/home/takumi/takumique/main/reservoir/app/cmcis/mat.c ****         }
 525              		.loc 1 82 11 is_stmt 1 discriminator 3 view .LVU156
ARM GAS  /tmp/ccgNCQ0i.s 			page 13


  82:/home/takumi/takumique/main/reservoir/app/cmcis/mat.c ****         }
 526              		.loc 1 82 30 is_stmt 0 discriminator 3 view .LVU157
 527 011c 0E68     		ldr	r6, [r1]
 528 011e 8F68     		ldr	r7, [r1, #8]
 529 0120 0CFB0747 		mla	r7, ip, r7, r4
 530 0124 06EB8706 		add	r6, r6, r7, lsl #2
  82:/home/takumi/takumique/main/reservoir/app/cmcis/mat.c ****         }
 531              		.loc 1 82 29 discriminator 3 view .LVU158
 532 0128 D6ED007A 		vldr.32	s15, [r6]
  82:/home/takumi/takumique/main/reservoir/app/cmcis/mat.c ****         }
 533              		.loc 1 82 48 discriminator 3 view .LVU159
 534 012c 1668     		ldr	r6, [r2]
 535 012e 5768     		ldr	r7, [r2, #4]
 536 0130 04FB07C7 		mla	r7, r4, r7, ip
 537 0134 06EB8706 		add	r6, r6, r7, lsl #2
  82:/home/takumi/takumique/main/reservoir/app/cmcis/mat.c ****         }
 538              		.loc 1 82 47 discriminator 3 view .LVU160
 539 0138 96ED007A 		vldr.32	s14, [r6]
  82:/home/takumi/takumique/main/reservoir/app/cmcis/mat.c ****         }
 540              		.loc 1 82 12 discriminator 3 view .LVU161
 541 013c 0668     		ldr	r6, [r0]
 542 013e 0CFB0545 		mla	r5, ip, r5, r4
 543 0142 06EB8506 		add	r6, r6, r5, lsl #2
  82:/home/takumi/takumique/main/reservoir/app/cmcis/mat.c ****         }
 544              		.loc 1 82 45 discriminator 3 view .LVU162
 545 0146 77EE877A 		vadd.f32	s15, s15, s14
  82:/home/takumi/takumique/main/reservoir/app/cmcis/mat.c ****         }
 546              		.loc 1 82 27 discriminator 3 view .LVU163
 547 014a C6ED007A 		vstr.32	s15, [r6]
  81:/home/takumi/takumique/main/reservoir/app/cmcis/mat.c ****           *_MAT(*c, n, m) = *_MAT(*a, n, m) + *_MAT_T(*b, n, m);
 548              		.loc 1 81 39 is_stmt 1 discriminator 3 view .LVU164
  81:/home/takumi/takumique/main/reservoir/app/cmcis/mat.c ****           *_MAT(*c, n, m) = *_MAT(*a, n, m) + *_MAT_T(*b, n, m);
 549              		.loc 1 81 40 is_stmt 0 discriminator 3 view .LVU165
 550 014e 0134     		adds	r4, r4, #1
 551              	.LVL42:
  81:/home/takumi/takumique/main/reservoir/app/cmcis/mat.c ****           *_MAT(*c, n, m) = *_MAT(*a, n, m) + *_MAT_T(*b, n, m);
 552              		.loc 1 81 40 discriminator 3 view .LVU166
 553 0150 E1E7     		b	.L33
 554              	.LVL43:
 555              	.L58:
  81:/home/takumi/takumique/main/reservoir/app/cmcis/mat.c ****           *_MAT(*c, n, m) = *_MAT(*a, n, m) + *_MAT_T(*b, n, m);
 556              		.loc 1 81 40 discriminator 3 view .LVU167
 557              	.LBE9:
 558              	.LBE8:
  96:/home/takumi/takumique/main/reservoir/app/cmcis/mat.c **** }
 559              		.loc 1 96 10 view .LVU168
 560 0152 0020     		movs	r0, #0
 561              	.LVL44:
  96:/home/takumi/takumique/main/reservoir/app/cmcis/mat.c **** }
 562              		.loc 1 96 10 view .LVU169
 563 0154 83E7     		b	.L16
 564              	.LVL45:
 565              	.L30:
  87:/home/takumi/takumique/main/reservoir/app/cmcis/mat.c ****       for(unsigned n = 0; n < c->n; n++) {
 566              		.loc 1 87 5 is_stmt 1 view .LVU170
  87:/home/takumi/takumique/main/reservoir/app/cmcis/mat.c ****       for(unsigned n = 0; n < c->n; n++) {
 567              		.loc 1 87 7 is_stmt 0 view .LVU171
ARM GAS  /tmp/ccgNCQ0i.s 			page 14


 568 0156 9BB9     		cbnz	r3, .L60
 569              	.L34:
  56:/home/takumi/takumique/main/reservoir/app/cmcis/mat.c ****     if(c->n == 1 || c->m == 1) {
 570              		.loc 1 56 3 is_stmt 1 view .LVU172
  57:/home/takumi/takumique/main/reservoir/app/cmcis/mat.c ****       for(unsigned i = 0; i < c->n * c->m; i++) {
 571              		.loc 1 57 5 view .LVU173
  57:/home/takumi/takumique/main/reservoir/app/cmcis/mat.c ****       for(unsigned i = 0; i < c->n * c->m; i++) {
 572              		.loc 1 57 7 is_stmt 0 view .LVU174
 573 0158 012C     		cmp	r4, #1
 574 015a 82D0     		beq	.L43
  57:/home/takumi/takumique/main/reservoir/app/cmcis/mat.c ****       for(unsigned i = 0; i < c->n * c->m; i++) {
 575              		.loc 1 57 18 discriminator 1 view .LVU175
 576 015c 012D     		cmp	r5, #1
 577 015e 82D0     		beq	.L61
  63:/home/takumi/takumique/main/reservoir/app/cmcis/mat.c ****       for(unsigned n = 0; n < c->n; n++) {
 578              		.loc 1 63 5 is_stmt 1 view .LVU176
  63:/home/takumi/takumique/main/reservoir/app/cmcis/mat.c ****       for(unsigned n = 0; n < c->n; n++) {
 579              		.loc 1 63 10 is_stmt 0 view .LVU177
 580 0160 CB68     		ldr	r3, [r1, #12]
  63:/home/takumi/takumique/main/reservoir/app/cmcis/mat.c ****       for(unsigned n = 0; n < c->n; n++) {
 581              		.loc 1 63 7 view .LVU178
 582 0162 13B9     		cbnz	r3, .L22
  63:/home/takumi/takumique/main/reservoir/app/cmcis/mat.c ****       for(unsigned n = 0; n < c->n; n++) {
 583              		.loc 1 63 19 discriminator 1 view .LVU179
 584 0164 D768     		ldr	r7, [r2, #12]
  63:/home/takumi/takumique/main/reservoir/app/cmcis/mat.c ****       for(unsigned n = 0; n < c->n; n++) {
 585              		.loc 1 63 14 discriminator 1 view .LVU180
 586 0166 002F     		cmp	r7, #0
 587 0168 A3D0     		beq	.L62
 588              	.L22:
  71:/home/takumi/takumique/main/reservoir/app/cmcis/mat.c ****       for(unsigned n = 0; n < c->n; n++) {
 589              		.loc 1 71 5 is_stmt 1 view .LVU181
  71:/home/takumi/takumique/main/reservoir/app/cmcis/mat.c ****       for(unsigned n = 0; n < c->n; n++) {
 590              		.loc 1 71 7 is_stmt 0 view .LVU182
 591 016a 13B1     		cbz	r3, .L26
  71:/home/takumi/takumique/main/reservoir/app/cmcis/mat.c ****       for(unsigned n = 0; n < c->n; n++) {
 592              		.loc 1 71 18 discriminator 1 view .LVU183
 593 016c D768     		ldr	r7, [r2, #12]
  71:/home/takumi/takumique/main/reservoir/app/cmcis/mat.c ****       for(unsigned n = 0; n < c->n; n++) {
 594              		.loc 1 71 13 discriminator 1 view .LVU184
 595 016e 002F     		cmp	r7, #0
 596 0170 C7D0     		beq	.L63
 597              	.L26:
  79:/home/takumi/takumique/main/reservoir/app/cmcis/mat.c ****       for(unsigned n = 0; n < c->n; n++) {
 598              		.loc 1 79 5 is_stmt 1 view .LVU185
  79:/home/takumi/takumique/main/reservoir/app/cmcis/mat.c ****       for(unsigned n = 0; n < c->n; n++) {
 599              		.loc 1 79 7 is_stmt 0 view .LVU186
 600 0172 002B     		cmp	r3, #0
 601 0174 EFD1     		bne	.L30
  79:/home/takumi/takumique/main/reservoir/app/cmcis/mat.c ****       for(unsigned n = 0; n < c->n; n++) {
 602              		.loc 1 79 18 discriminator 1 view .LVU187
 603 0176 D668     		ldr	r6, [r2, #12]
  79:/home/takumi/takumique/main/reservoir/app/cmcis/mat.c ****       for(unsigned n = 0; n < c->n; n++) {
 604              		.loc 1 79 14 discriminator 1 view .LVU188
 605 0178 002E     		cmp	r6, #0
 606 017a ECD0     		beq	.L30
 607              	.LBB10:
ARM GAS  /tmp/ccgNCQ0i.s 			page 15


  80:/home/takumi/takumique/main/reservoir/app/cmcis/mat.c ****         for(unsigned m = 0; m < c->m; m++) {
 608              		.loc 1 80 20 view .LVU189
 609 017c 9C46     		mov	ip, r3
 610 017e C6E7     		b	.L31
 611              	.L60:
  80:/home/takumi/takumique/main/reservoir/app/cmcis/mat.c ****         for(unsigned m = 0; m < c->m; m++) {
 612              		.loc 1 80 20 view .LVU190
 613              	.LBE10:
  87:/home/takumi/takumique/main/reservoir/app/cmcis/mat.c ****       for(unsigned n = 0; n < c->n; n++) {
 614              		.loc 1 87 17 discriminator 1 view .LVU191
 615 0180 D368     		ldr	r3, [r2, #12]
  87:/home/takumi/takumique/main/reservoir/app/cmcis/mat.c ****       for(unsigned n = 0; n < c->n; n++) {
 616              		.loc 1 87 13 discriminator 1 view .LVU192
 617 0182 002B     		cmp	r3, #0
 618 0184 E8D0     		beq	.L34
 619              	.LBB11:
  88:/home/takumi/takumique/main/reservoir/app/cmcis/mat.c ****         for(unsigned m = 0; m < c->m; m++) {
 620              		.loc 1 88 20 view .LVU193
 621 0186 0027     		movs	r7, #0
 622 0188 1DE0     		b	.L35
 623              	.LVL46:
 624              	.L37:
 625              	.LBB12:
  90:/home/takumi/takumique/main/reservoir/app/cmcis/mat.c ****         }
 626              		.loc 1 90 11 is_stmt 1 discriminator 3 view .LVU194
  90:/home/takumi/takumique/main/reservoir/app/cmcis/mat.c ****         }
 627              		.loc 1 90 30 is_stmt 0 discriminator 3 view .LVU195
 628 018a 0D68     		ldr	r5, [r1]
 629 018c 4E68     		ldr	r6, [r1, #4]
 630 018e 03FB0676 		mla	r6, r3, r6, r7
 631 0192 05EB8605 		add	r5, r5, r6, lsl #2
  90:/home/takumi/takumique/main/reservoir/app/cmcis/mat.c ****         }
 632              		.loc 1 90 29 discriminator 3 view .LVU196
 633 0196 D5ED007A 		vldr.32	s15, [r5]
  90:/home/takumi/takumique/main/reservoir/app/cmcis/mat.c ****         }
 634              		.loc 1 90 50 discriminator 3 view .LVU197
 635 019a 1568     		ldr	r5, [r2]
 636 019c 5668     		ldr	r6, [r2, #4]
 637 019e 03FB0676 		mla	r6, r3, r6, r7
 638 01a2 05EB8605 		add	r5, r5, r6, lsl #2
  90:/home/takumi/takumique/main/reservoir/app/cmcis/mat.c ****         }
 639              		.loc 1 90 49 discriminator 3 view .LVU198
 640 01a6 95ED007A 		vldr.32	s14, [r5]
  90:/home/takumi/takumique/main/reservoir/app/cmcis/mat.c ****         }
 641              		.loc 1 90 12 discriminator 3 view .LVU199
 642 01aa 0568     		ldr	r5, [r0]
 643 01ac 07FB0434 		mla	r4, r7, r4, r3
 644 01b0 05EB8405 		add	r5, r5, r4, lsl #2
  90:/home/takumi/takumique/main/reservoir/app/cmcis/mat.c ****         }
 645              		.loc 1 90 47 discriminator 3 view .LVU200
 646 01b4 77EE877A 		vadd.f32	s15, s15, s14
  90:/home/takumi/takumique/main/reservoir/app/cmcis/mat.c ****         }
 647              		.loc 1 90 27 discriminator 3 view .LVU201
 648 01b8 C5ED007A 		vstr.32	s15, [r5]
  89:/home/takumi/takumique/main/reservoir/app/cmcis/mat.c ****           *_MAT(*c, n, m) = *_MAT_T(*a, n, m) + *_MAT_T(*b, n, m);
 649              		.loc 1 89 39 is_stmt 1 discriminator 3 view .LVU202
  89:/home/takumi/takumique/main/reservoir/app/cmcis/mat.c ****           *_MAT(*c, n, m) = *_MAT_T(*a, n, m) + *_MAT_T(*b, n, m);
ARM GAS  /tmp/ccgNCQ0i.s 			page 16


 650              		.loc 1 89 40 is_stmt 0 discriminator 3 view .LVU203
 651 01bc 0133     		adds	r3, r3, #1
 652              	.LVL47:
 653              	.L38:
  89:/home/takumi/takumique/main/reservoir/app/cmcis/mat.c ****           *_MAT(*c, n, m) = *_MAT_T(*a, n, m) + *_MAT_T(*b, n, m);
 654              		.loc 1 89 29 is_stmt 1 discriminator 1 view .LVU204
  89:/home/takumi/takumique/main/reservoir/app/cmcis/mat.c ****           *_MAT(*c, n, m) = *_MAT_T(*a, n, m) + *_MAT_T(*b, n, m);
 655              		.loc 1 89 34 is_stmt 0 discriminator 1 view .LVU205
 656 01be 8468     		ldr	r4, [r0, #8]
  89:/home/takumi/takumique/main/reservoir/app/cmcis/mat.c ****           *_MAT(*c, n, m) = *_MAT_T(*a, n, m) + *_MAT_T(*b, n, m);
 657              		.loc 1 89 9 discriminator 1 view .LVU206
 658 01c0 9C42     		cmp	r4, r3
 659 01c2 E2D8     		bhi	.L37
 660              	.LBE12:
  88:/home/takumi/takumique/main/reservoir/app/cmcis/mat.c ****         for(unsigned m = 0; m < c->m; m++) {
 661              		.loc 1 88 37 is_stmt 1 discriminator 2 view .LVU207
  88:/home/takumi/takumique/main/reservoir/app/cmcis/mat.c ****         for(unsigned m = 0; m < c->m; m++) {
 662              		.loc 1 88 38 is_stmt 0 discriminator 2 view .LVU208
 663 01c4 0137     		adds	r7, r7, #1
 664              	.LVL48:
 665              	.L35:
  88:/home/takumi/takumique/main/reservoir/app/cmcis/mat.c ****         for(unsigned m = 0; m < c->m; m++) {
 666              		.loc 1 88 27 is_stmt 1 discriminator 1 view .LVU209
  88:/home/takumi/takumique/main/reservoir/app/cmcis/mat.c ****         for(unsigned m = 0; m < c->m; m++) {
 667              		.loc 1 88 32 is_stmt 0 discriminator 1 view .LVU210
 668 01c6 4368     		ldr	r3, [r0, #4]
  88:/home/takumi/takumique/main/reservoir/app/cmcis/mat.c ****         for(unsigned m = 0; m < c->m; m++) {
 669              		.loc 1 88 7 discriminator 1 view .LVU211
 670 01c8 BB42     		cmp	r3, r7
 671 01ca 01D9     		bls	.L64
 672              	.LBB13:
  89:/home/takumi/takumique/main/reservoir/app/cmcis/mat.c ****           *_MAT(*c, n, m) = *_MAT_T(*a, n, m) + *_MAT_T(*b, n, m);
 673              		.loc 1 89 22 view .LVU212
 674 01cc 0023     		movs	r3, #0
 675 01ce F6E7     		b	.L38
 676              	.L64:
 677              	.LBE13:
 678              	.LBE11:
  96:/home/takumi/takumique/main/reservoir/app/cmcis/mat.c **** }
 679              		.loc 1 96 10 view .LVU213
 680 01d0 0020     		movs	r0, #0
 681              	.LVL49:
 682              	.LBB14:
  96:/home/takumi/takumique/main/reservoir/app/cmcis/mat.c **** }
 683              		.loc 1 96 10 view .LVU214
 684 01d2 44E7     		b	.L16
 685              	.LVL50:
 686              	.L39:
  96:/home/takumi/takumique/main/reservoir/app/cmcis/mat.c **** }
 687              		.loc 1 96 10 view .LVU215
 688              	.LBE14:
  44:/home/takumi/takumique/main/reservoir/app/cmcis/mat.c ****   }
 689              		.loc 1 44 12 view .LVU216
 690 01d4 4FF0FF30 		mov	r0, #-1
 691              	.LVL51:
  44:/home/takumi/takumique/main/reservoir/app/cmcis/mat.c ****   }
 692              		.loc 1 44 12 view .LVU217
ARM GAS  /tmp/ccgNCQ0i.s 			page 17


 693 01d8 41E7     		b	.L16
 694              	.LVL52:
 695              	.L40:
  47:/home/takumi/takumique/main/reservoir/app/cmcis/mat.c ****   }
 696              		.loc 1 47 12 view .LVU218
 697 01da 4FF0FF30 		mov	r0, #-1
 698              	.LVL53:
  47:/home/takumi/takumique/main/reservoir/app/cmcis/mat.c ****   }
 699              		.loc 1 47 12 view .LVU219
 700 01de 3EE7     		b	.L16
 701              	.LVL54:
 702              	.L41:
  50:/home/takumi/takumique/main/reservoir/app/cmcis/mat.c ****   }
 703              		.loc 1 50 12 view .LVU220
 704 01e0 4FF0FF30 		mov	r0, #-1
 705              	.LVL55:
  50:/home/takumi/takumique/main/reservoir/app/cmcis/mat.c ****   }
 706              		.loc 1 50 12 view .LVU221
 707 01e4 3BE7     		b	.L16
 708              		.cfi_endproc
 709              	.LFE149:
 711              		.section	.text.mat_f32_add,"ax",%progbits
 712              		.align	1
 713              		.global	mat_f32_add
 714              		.syntax unified
 715              		.thumb
 716              		.thumb_func
 717              		.fpu fpv4-sp-d16
 719              	mat_f32_add:
 720              	.LVL56:
 721              	.LFB150:
  98:/home/takumi/takumique/main/reservoir/app/cmcis/mat.c **** 
  99:/home/takumi/takumique/main/reservoir/app/cmcis/mat.c **** int mat_f32_add(mat_f32_t *c, mat_f32_t *a, float l) {
 722              		.loc 1 99 54 is_stmt 1 view -0
 723              		.cfi_startproc
 724              		@ args = 0, pretend = 0, frame = 0
 725              		@ frame_needed = 0, uses_anonymous_args = 0
 726              		@ link register save eliminated.
 100:/home/takumi/takumique/main/reservoir/app/cmcis/mat.c **** #ifdef CHECK_ARGS
 101:/home/takumi/takumique/main/reservoir/app/cmcis/mat.c ****   if(c->n != a->n) {
 727              		.loc 1 101 3 view .LVU223
 728              		.loc 1 101 7 is_stmt 0 view .LVU224
 729 0000 4268     		ldr	r2, [r0, #4]
 730              		.loc 1 101 15 view .LVU225
 731 0002 4B68     		ldr	r3, [r1, #4]
 732              		.loc 1 101 5 view .LVU226
 733 0004 9A42     		cmp	r2, r3
 734 0006 1ED1     		bne	.L69
 102:/home/takumi/takumique/main/reservoir/app/cmcis/mat.c ****     return -1;
 103:/home/takumi/takumique/main/reservoir/app/cmcis/mat.c ****   }
 104:/home/takumi/takumique/main/reservoir/app/cmcis/mat.c ****   if(c->m != a->m) {
 735              		.loc 1 104 3 is_stmt 1 view .LVU227
 736              		.loc 1 104 7 is_stmt 0 view .LVU228
 737 0008 8268     		ldr	r2, [r0, #8]
 738              		.loc 1 104 15 view .LVU229
 739 000a 8B68     		ldr	r3, [r1, #8]
 740              		.loc 1 104 5 view .LVU230
ARM GAS  /tmp/ccgNCQ0i.s 			page 18


 741 000c 9A42     		cmp	r2, r3
 742 000e 1DD1     		bne	.L70
  99:/home/takumi/takumique/main/reservoir/app/cmcis/mat.c **** #ifdef CHECK_ARGS
 743              		.loc 1 99 54 view .LVU231
 744 0010 10B4     		push	{r4}
 745              	.LCFI8:
 746              		.cfi_def_cfa_offset 4
 747              		.cfi_offset 4, -4
 105:/home/takumi/takumique/main/reservoir/app/cmcis/mat.c ****     return -1;
 106:/home/takumi/takumique/main/reservoir/app/cmcis/mat.c ****   }
 107:/home/takumi/takumique/main/reservoir/app/cmcis/mat.c **** #endif
 108:/home/takumi/takumique/main/reservoir/app/cmcis/mat.c ****   c->t = 0;
 748              		.loc 1 108 3 is_stmt 1 view .LVU232
 749              		.loc 1 108 8 is_stmt 0 view .LVU233
 750 0012 0023     		movs	r3, #0
 751 0014 C360     		str	r3, [r0, #12]
 109:/home/takumi/takumique/main/reservoir/app/cmcis/mat.c ****   for(unsigned i = 0; i < c->n * c->m; i++) {
 752              		.loc 1 109 3 is_stmt 1 view .LVU234
 753              	.LBB15:
 754              		.loc 1 109 7 view .LVU235
 755              	.LVL57:
 756              		.loc 1 109 3 is_stmt 0 view .LVU236
 757 0016 0CE0     		b	.L67
 758              	.LVL58:
 759              	.L68:
 110:/home/takumi/takumique/main/reservoir/app/cmcis/mat.c ****     *(c->data + i) = *(a->data + i) + l;
 760              		.loc 1 110 5 is_stmt 1 discriminator 3 view .LVU237
 761              		.loc 1 110 25 is_stmt 0 discriminator 3 view .LVU238
 762 0018 0A68     		ldr	r2, [r1]
 763              		.loc 1 110 32 discriminator 3 view .LVU239
 764 001a 02EB8302 		add	r2, r2, r3, lsl #2
 765              		.loc 1 110 22 discriminator 3 view .LVU240
 766 001e D2ED007A 		vldr.32	s15, [r2]
 767              		.loc 1 110 8 discriminator 3 view .LVU241
 768 0022 0268     		ldr	r2, [r0]
 769              		.loc 1 110 15 discriminator 3 view .LVU242
 770 0024 02EB8302 		add	r2, r2, r3, lsl #2
 771              		.loc 1 110 37 discriminator 3 view .LVU243
 772 0028 77EE807A 		vadd.f32	s15, s15, s0
 773              		.loc 1 110 20 discriminator 3 view .LVU244
 774 002c C2ED007A 		vstr.32	s15, [r2]
 109:/home/takumi/takumique/main/reservoir/app/cmcis/mat.c ****   for(unsigned i = 0; i < c->n * c->m; i++) {
 775              		.loc 1 109 40 is_stmt 1 discriminator 3 view .LVU245
 109:/home/takumi/takumique/main/reservoir/app/cmcis/mat.c ****   for(unsigned i = 0; i < c->n * c->m; i++) {
 776              		.loc 1 109 41 is_stmt 0 discriminator 3 view .LVU246
 777 0030 0133     		adds	r3, r3, #1
 778              	.LVL59:
 779              	.L67:
 109:/home/takumi/takumique/main/reservoir/app/cmcis/mat.c ****   for(unsigned i = 0; i < c->n * c->m; i++) {
 780              		.loc 1 109 23 is_stmt 1 discriminator 1 view .LVU247
 109:/home/takumi/takumique/main/reservoir/app/cmcis/mat.c ****   for(unsigned i = 0; i < c->n * c->m; i++) {
 781              		.loc 1 109 28 is_stmt 0 discriminator 1 view .LVU248
 782 0032 4468     		ldr	r4, [r0, #4]
 109:/home/takumi/takumique/main/reservoir/app/cmcis/mat.c ****   for(unsigned i = 0; i < c->n * c->m; i++) {
 783              		.loc 1 109 35 discriminator 1 view .LVU249
 784 0034 8268     		ldr	r2, [r0, #8]
 109:/home/takumi/takumique/main/reservoir/app/cmcis/mat.c ****   for(unsigned i = 0; i < c->n * c->m; i++) {
ARM GAS  /tmp/ccgNCQ0i.s 			page 19


 785              		.loc 1 109 32 discriminator 1 view .LVU250
 786 0036 02FB04F2 		mul	r2, r2, r4
 109:/home/takumi/takumique/main/reservoir/app/cmcis/mat.c ****   for(unsigned i = 0; i < c->n * c->m; i++) {
 787              		.loc 1 109 3 discriminator 1 view .LVU251
 788 003a 9A42     		cmp	r2, r3
 789 003c ECD8     		bhi	.L68
 790              	.LBE15:
 111:/home/takumi/takumique/main/reservoir/app/cmcis/mat.c ****   }
 112:/home/takumi/takumique/main/reservoir/app/cmcis/mat.c ****   return 0;
 791              		.loc 1 112 10 view .LVU252
 792 003e 0020     		movs	r0, #0
 793              	.LVL60:
 113:/home/takumi/takumique/main/reservoir/app/cmcis/mat.c **** }
 794              		.loc 1 113 1 view .LVU253
 795 0040 5DF8044B 		ldr	r4, [sp], #4
 796              	.LCFI9:
 797              		.cfi_restore 4
 798              		.cfi_def_cfa_offset 0
 799 0044 7047     		bx	lr
 800              	.LVL61:
 801              	.L69:
 102:/home/takumi/takumique/main/reservoir/app/cmcis/mat.c ****   }
 802              		.loc 1 102 12 view .LVU254
 803 0046 4FF0FF30 		mov	r0, #-1
 804              	.LVL62:
 102:/home/takumi/takumique/main/reservoir/app/cmcis/mat.c ****   }
 805              		.loc 1 102 12 view .LVU255
 806 004a 7047     		bx	lr
 807              	.LVL63:
 808              	.L70:
 105:/home/takumi/takumique/main/reservoir/app/cmcis/mat.c ****   }
 809              		.loc 1 105 12 view .LVU256
 810 004c 4FF0FF30 		mov	r0, #-1
 811              	.LVL64:
 812              		.loc 1 113 1 view .LVU257
 813 0050 7047     		bx	lr
 814              		.cfi_endproc
 815              	.LFE150:
 817              		.section	.text.mat_f32_product,"ax",%progbits
 818              		.align	1
 819              		.global	mat_f32_product
 820              		.syntax unified
 821              		.thumb
 822              		.thumb_func
 823              		.fpu fpv4-sp-d16
 825              	mat_f32_product:
 826              	.LVL65:
 827              	.LFB151:
 114:/home/takumi/takumique/main/reservoir/app/cmcis/mat.c **** 
 115:/home/takumi/takumique/main/reservoir/app/cmcis/mat.c **** int mat_f32_product(mat_f32_t *c, mat_f32_t *a, mat_f32_t *b) {
 828              		.loc 1 115 63 is_stmt 1 view -0
 829              		.cfi_startproc
 830              		@ args = 0, pretend = 0, frame = 0
 831              		@ frame_needed = 0, uses_anonymous_args = 0
 832              		.loc 1 115 63 is_stmt 0 view .LVU259
 833 0000 F0B5     		push	{r4, r5, r6, r7, lr}
 834              	.LCFI10:
ARM GAS  /tmp/ccgNCQ0i.s 			page 20


 835              		.cfi_def_cfa_offset 20
 836              		.cfi_offset 4, -20
 837              		.cfi_offset 5, -16
 838              		.cfi_offset 6, -12
 839              		.cfi_offset 7, -8
 840              		.cfi_offset 14, -4
 116:/home/takumi/takumique/main/reservoir/app/cmcis/mat.c **** #ifdef CHECK_ARGS
 117:/home/takumi/takumique/main/reservoir/app/cmcis/mat.c ****   if(c->n != a->n) {
 841              		.loc 1 117 3 is_stmt 1 view .LVU260
 842              		.loc 1 117 7 is_stmt 0 view .LVU261
 843 0002 4468     		ldr	r4, [r0, #4]
 844              		.loc 1 117 15 view .LVU262
 845 0004 4B68     		ldr	r3, [r1, #4]
 846              		.loc 1 117 5 view .LVU263
 847 0006 9C42     		cmp	r4, r3
 848 0008 40F01381 		bne	.L102
 118:/home/takumi/takumique/main/reservoir/app/cmcis/mat.c ****     return -1;
 119:/home/takumi/takumique/main/reservoir/app/cmcis/mat.c ****   }
 120:/home/takumi/takumique/main/reservoir/app/cmcis/mat.c ****   if(c->m != b->m) {
 849              		.loc 1 120 3 is_stmt 1 view .LVU264
 850              		.loc 1 120 7 is_stmt 0 view .LVU265
 851 000c 8468     		ldr	r4, [r0, #8]
 852              		.loc 1 120 15 view .LVU266
 853 000e 9368     		ldr	r3, [r2, #8]
 854              		.loc 1 120 5 view .LVU267
 855 0010 9C42     		cmp	r4, r3
 856 0012 40F01181 		bne	.L103
 121:/home/takumi/takumique/main/reservoir/app/cmcis/mat.c ****     return -1;
 122:/home/takumi/takumique/main/reservoir/app/cmcis/mat.c ****   }
 123:/home/takumi/takumique/main/reservoir/app/cmcis/mat.c ****   if(a->m != b->n) {
 857              		.loc 1 123 3 is_stmt 1 view .LVU268
 858              		.loc 1 123 7 is_stmt 0 view .LVU269
 859 0016 8C68     		ldr	r4, [r1, #8]
 860              		.loc 1 123 15 view .LVU270
 861 0018 5368     		ldr	r3, [r2, #4]
 862              		.loc 1 123 5 view .LVU271
 863 001a 9C42     		cmp	r4, r3
 864 001c 40F00F81 		bne	.L104
 124:/home/takumi/takumique/main/reservoir/app/cmcis/mat.c ****     return -1;
 125:/home/takumi/takumique/main/reservoir/app/cmcis/mat.c ****   }
 126:/home/takumi/takumique/main/reservoir/app/cmcis/mat.c **** #endif
 127:/home/takumi/takumique/main/reservoir/app/cmcis/mat.c ****   c->t = 0;
 865              		.loc 1 127 3 is_stmt 1 view .LVU272
 866              		.loc 1 127 8 is_stmt 0 view .LVU273
 867 0020 0023     		movs	r3, #0
 868 0022 C360     		str	r3, [r0, #12]
 869 0024 ACE0     		b	.L95
 870              	.LVL66:
 871              	.L80:
 872              	.LBB16:
 873              	.LBB17:
 874              	.LBB18:
 128:/home/takumi/takumique/main/reservoir/app/cmcis/mat.c ****   for(;;) {
 129:/home/takumi/takumique/main/reservoir/app/cmcis/mat.c ****     if(!a->t && !b->t) {
 130:/home/takumi/takumique/main/reservoir/app/cmcis/mat.c ****       for(unsigned n = 0; n < c->n; n++) {
 131:/home/takumi/takumique/main/reservoir/app/cmcis/mat.c ****         for(unsigned m = 0; m < c->m; m++) {
 132:/home/takumi/takumique/main/reservoir/app/cmcis/mat.c ****           *_MAT(*c, n, m) = 0;
ARM GAS  /tmp/ccgNCQ0i.s 			page 21


 133:/home/takumi/takumique/main/reservoir/app/cmcis/mat.c ****           for(unsigned p = 0; p < a->m; p++) {
 134:/home/takumi/takumique/main/reservoir/app/cmcis/mat.c ****             *_MAT(*c, n, m) += *_MAT(*a, n, p) * *_MAT(*b, p, m);
 875              		.loc 1 134 13 is_stmt 1 discriminator 3 view .LVU274
 876              		.loc 1 134 14 is_stmt 0 discriminator 3 view .LVU275
 877 0026 0668     		ldr	r6, [r0]
 878 0028 8368     		ldr	r3, [r0, #8]
 879              		.loc 1 134 29 discriminator 3 view .LVU276
 880 002a 0CFB0373 		mla	r3, ip, r3, r7
 881 002e 06EB8303 		add	r3, r6, r3, lsl #2
 882              		.loc 1 134 33 discriminator 3 view .LVU277
 883 0032 0E68     		ldr	r6, [r1]
 884 0034 0CFB0545 		mla	r5, ip, r5, r4
 885 0038 06EB8505 		add	r5, r6, r5, lsl #2
 886              		.loc 1 134 32 discriminator 3 view .LVU278
 887 003c D5ED007A 		vldr.32	s15, [r5]
 888              		.loc 1 134 51 discriminator 3 view .LVU279
 889 0040 1568     		ldr	r5, [r2]
 890 0042 9668     		ldr	r6, [r2, #8]
 891 0044 04FB0676 		mla	r6, r4, r6, r7
 892 0048 05EB8605 		add	r5, r5, r6, lsl #2
 893              		.loc 1 134 50 discriminator 3 view .LVU280
 894 004c 95ED007A 		vldr.32	s14, [r5]
 895              		.loc 1 134 48 discriminator 3 view .LVU281
 896 0050 27EE877A 		vmul.f32	s14, s15, s14
 897              		.loc 1 134 29 discriminator 3 view .LVU282
 898 0054 D3ED007A 		vldr.32	s15, [r3]
 899 0058 77EE877A 		vadd.f32	s15, s15, s14
 900 005c C3ED007A 		vstr.32	s15, [r3]
 133:/home/takumi/takumique/main/reservoir/app/cmcis/mat.c ****             *_MAT(*c, n, m) += *_MAT(*a, n, p) * *_MAT(*b, p, m);
 901              		.loc 1 133 41 is_stmt 1 discriminator 3 view .LVU283
 133:/home/takumi/takumique/main/reservoir/app/cmcis/mat.c ****             *_MAT(*c, n, m) += *_MAT(*a, n, p) * *_MAT(*b, p, m);
 902              		.loc 1 133 42 is_stmt 0 discriminator 3 view .LVU284
 903 0060 0134     		adds	r4, r4, #1
 904              	.LVL67:
 905              	.L79:
 133:/home/takumi/takumique/main/reservoir/app/cmcis/mat.c ****             *_MAT(*c, n, m) += *_MAT(*a, n, p) * *_MAT(*b, p, m);
 906              		.loc 1 133 31 is_stmt 1 discriminator 1 view .LVU285
 133:/home/takumi/takumique/main/reservoir/app/cmcis/mat.c ****             *_MAT(*c, n, m) += *_MAT(*a, n, p) * *_MAT(*b, p, m);
 907              		.loc 1 133 36 is_stmt 0 discriminator 1 view .LVU286
 908 0062 8D68     		ldr	r5, [r1, #8]
 133:/home/takumi/takumique/main/reservoir/app/cmcis/mat.c ****             *_MAT(*c, n, m) += *_MAT(*a, n, p) * *_MAT(*b, p, m);
 909              		.loc 1 133 11 discriminator 1 view .LVU287
 910 0064 A542     		cmp	r5, r4
 911 0066 DED8     		bhi	.L80
 912              	.LBE18:
 131:/home/takumi/takumique/main/reservoir/app/cmcis/mat.c ****           *_MAT(*c, n, m) = 0;
 913              		.loc 1 131 39 is_stmt 1 discriminator 2 view .LVU288
 131:/home/takumi/takumique/main/reservoir/app/cmcis/mat.c ****           *_MAT(*c, n, m) = 0;
 914              		.loc 1 131 40 is_stmt 0 discriminator 2 view .LVU289
 915 0068 0137     		adds	r7, r7, #1
 916              	.LVL68:
 917              	.L82:
 131:/home/takumi/takumique/main/reservoir/app/cmcis/mat.c ****           *_MAT(*c, n, m) = 0;
 918              		.loc 1 131 29 is_stmt 1 discriminator 1 view .LVU290
 131:/home/takumi/takumique/main/reservoir/app/cmcis/mat.c ****           *_MAT(*c, n, m) = 0;
 919              		.loc 1 131 34 is_stmt 0 discriminator 1 view .LVU291
 920 006a 8368     		ldr	r3, [r0, #8]
ARM GAS  /tmp/ccgNCQ0i.s 			page 22


 131:/home/takumi/takumique/main/reservoir/app/cmcis/mat.c ****           *_MAT(*c, n, m) = 0;
 921              		.loc 1 131 9 discriminator 1 view .LVU292
 922 006c BB42     		cmp	r3, r7
 923 006e 08D9     		bls	.L114
 132:/home/takumi/takumique/main/reservoir/app/cmcis/mat.c ****           for(unsigned p = 0; p < a->m; p++) {
 924              		.loc 1 132 11 is_stmt 1 view .LVU293
 132:/home/takumi/takumique/main/reservoir/app/cmcis/mat.c ****           for(unsigned p = 0; p < a->m; p++) {
 925              		.loc 1 132 12 is_stmt 0 view .LVU294
 926 0070 0468     		ldr	r4, [r0]
 927 0072 0CFB0373 		mla	r3, ip, r3, r7
 928 0076 04EB8303 		add	r3, r4, r3, lsl #2
 132:/home/takumi/takumique/main/reservoir/app/cmcis/mat.c ****           for(unsigned p = 0; p < a->m; p++) {
 929              		.loc 1 132 27 view .LVU295
 930 007a 0024     		movs	r4, #0
 931 007c 1C60     		str	r4, [r3]	@ float
 133:/home/takumi/takumique/main/reservoir/app/cmcis/mat.c ****             *_MAT(*c, n, m) += *_MAT(*a, n, p) * *_MAT(*b, p, m);
 932              		.loc 1 133 11 is_stmt 1 view .LVU296
 933              	.LBB19:
 133:/home/takumi/takumique/main/reservoir/app/cmcis/mat.c ****             *_MAT(*c, n, m) += *_MAT(*a, n, p) * *_MAT(*b, p, m);
 934              		.loc 1 133 15 view .LVU297
 935              	.LVL69:
 133:/home/takumi/takumique/main/reservoir/app/cmcis/mat.c ****             *_MAT(*c, n, m) += *_MAT(*a, n, p) * *_MAT(*b, p, m);
 936              		.loc 1 133 24 is_stmt 0 view .LVU298
 937 007e 7446     		mov	r4, lr
 133:/home/takumi/takumique/main/reservoir/app/cmcis/mat.c ****             *_MAT(*c, n, m) += *_MAT(*a, n, p) * *_MAT(*b, p, m);
 938              		.loc 1 133 11 view .LVU299
 939 0080 EFE7     		b	.L79
 940              	.LVL70:
 941              	.L114:
 133:/home/takumi/takumique/main/reservoir/app/cmcis/mat.c ****             *_MAT(*c, n, m) += *_MAT(*a, n, p) * *_MAT(*b, p, m);
 942              		.loc 1 133 11 view .LVU300
 943              	.LBE19:
 944              	.LBE17:
 130:/home/takumi/takumique/main/reservoir/app/cmcis/mat.c ****         for(unsigned m = 0; m < c->m; m++) {
 945              		.loc 1 130 37 is_stmt 1 discriminator 2 view .LVU301
 130:/home/takumi/takumique/main/reservoir/app/cmcis/mat.c ****         for(unsigned m = 0; m < c->m; m++) {
 946              		.loc 1 130 38 is_stmt 0 discriminator 2 view .LVU302
 947 0082 0CF1010C 		add	ip, ip, #1
 948              	.LVL71:
 949              	.L78:
 130:/home/takumi/takumique/main/reservoir/app/cmcis/mat.c ****         for(unsigned m = 0; m < c->m; m++) {
 950              		.loc 1 130 27 is_stmt 1 discriminator 1 view .LVU303
 130:/home/takumi/takumique/main/reservoir/app/cmcis/mat.c ****         for(unsigned m = 0; m < c->m; m++) {
 951              		.loc 1 130 32 is_stmt 0 discriminator 1 view .LVU304
 952 0086 4368     		ldr	r3, [r0, #4]
 130:/home/takumi/takumique/main/reservoir/app/cmcis/mat.c ****         for(unsigned m = 0; m < c->m; m++) {
 953              		.loc 1 130 7 discriminator 1 view .LVU305
 954 0088 6345     		cmp	r3, ip
 955 008a 03D9     		bls	.L115
 956              	.LBB20:
 131:/home/takumi/takumique/main/reservoir/app/cmcis/mat.c ****           *_MAT(*c, n, m) = 0;
 957              		.loc 1 131 22 view .LVU306
 958 008c 7746     		mov	r7, lr
 959 008e ECE7     		b	.L82
 960              	.LVL72:
 961              	.L123:
 131:/home/takumi/takumique/main/reservoir/app/cmcis/mat.c ****           *_MAT(*c, n, m) = 0;
ARM GAS  /tmp/ccgNCQ0i.s 			page 23


 962              		.loc 1 131 22 view .LVU307
 963              	.LBE20:
 130:/home/takumi/takumique/main/reservoir/app/cmcis/mat.c ****         for(unsigned m = 0; m < c->m; m++) {
 964              		.loc 1 130 20 view .LVU308
 965 0090 F446     		mov	ip, lr
 966 0092 F8E7     		b	.L78
 967              	.LVL73:
 968              	.L115:
 130:/home/takumi/takumique/main/reservoir/app/cmcis/mat.c ****         for(unsigned m = 0; m < c->m; m++) {
 969              		.loc 1 130 20 view .LVU309
 970              	.LBE16:
 135:/home/takumi/takumique/main/reservoir/app/cmcis/mat.c ****           }
 136:/home/takumi/takumique/main/reservoir/app/cmcis/mat.c ****         }
 137:/home/takumi/takumique/main/reservoir/app/cmcis/mat.c ****       }
 138:/home/takumi/takumique/main/reservoir/app/cmcis/mat.c ****       break;
 139:/home/takumi/takumique/main/reservoir/app/cmcis/mat.c ****     }
 140:/home/takumi/takumique/main/reservoir/app/cmcis/mat.c ****     if(a->t && !b->t) {
 141:/home/takumi/takumique/main/reservoir/app/cmcis/mat.c ****       for(unsigned n = 0; n < c->n; n++) {
 142:/home/takumi/takumique/main/reservoir/app/cmcis/mat.c ****         for(unsigned m = 0; m < c->m; m++) {
 143:/home/takumi/takumique/main/reservoir/app/cmcis/mat.c ****           *_MAT(*c, n, m) = 0;
 144:/home/takumi/takumique/main/reservoir/app/cmcis/mat.c ****           for(unsigned p = 0; p < a->m; p++) {
 145:/home/takumi/takumique/main/reservoir/app/cmcis/mat.c ****             *_MAT(*c, n, m) += *_MAT_T(*a, n, p) * *_MAT(*b, p, m);
 146:/home/takumi/takumique/main/reservoir/app/cmcis/mat.c ****           }
 147:/home/takumi/takumique/main/reservoir/app/cmcis/mat.c ****         }
 148:/home/takumi/takumique/main/reservoir/app/cmcis/mat.c ****       }
 149:/home/takumi/takumique/main/reservoir/app/cmcis/mat.c ****       break;
 150:/home/takumi/takumique/main/reservoir/app/cmcis/mat.c ****     }
 151:/home/takumi/takumique/main/reservoir/app/cmcis/mat.c ****     if(!a->t && b->t) {
 152:/home/takumi/takumique/main/reservoir/app/cmcis/mat.c ****       for(unsigned n = 0; n < c->n; n++) {
 153:/home/takumi/takumique/main/reservoir/app/cmcis/mat.c ****         for(unsigned m = 0; m < c->m; m++) {
 154:/home/takumi/takumique/main/reservoir/app/cmcis/mat.c ****           *_MAT(*c, n, m) = 0;
 155:/home/takumi/takumique/main/reservoir/app/cmcis/mat.c ****           for(unsigned p = 0; p < a->m; p++) {
 156:/home/takumi/takumique/main/reservoir/app/cmcis/mat.c ****             *_MAT(*c, n, m) += *_MAT(*a, n, p) * *_MAT_T(*b, p, m);
 157:/home/takumi/takumique/main/reservoir/app/cmcis/mat.c ****           }
 158:/home/takumi/takumique/main/reservoir/app/cmcis/mat.c ****         }
 159:/home/takumi/takumique/main/reservoir/app/cmcis/mat.c ****       }
 160:/home/takumi/takumique/main/reservoir/app/cmcis/mat.c ****       break;
 161:/home/takumi/takumique/main/reservoir/app/cmcis/mat.c ****     }
 162:/home/takumi/takumique/main/reservoir/app/cmcis/mat.c ****     if(a->t && b->t) {
 163:/home/takumi/takumique/main/reservoir/app/cmcis/mat.c ****       for(unsigned n = 0; n < c->n; n++) {
 164:/home/takumi/takumique/main/reservoir/app/cmcis/mat.c ****         for(unsigned m = 0; m < c->m; m++) {
 165:/home/takumi/takumique/main/reservoir/app/cmcis/mat.c ****           *_MAT(*c, n, m) = 0;
 166:/home/takumi/takumique/main/reservoir/app/cmcis/mat.c ****           for(unsigned p = 0; p < a->m; p++) {
 167:/home/takumi/takumique/main/reservoir/app/cmcis/mat.c ****             *_MAT(*c, n, m) += *_MAT_T(*a, n, p) * *_MAT_T(*b, p, m);
 168:/home/takumi/takumique/main/reservoir/app/cmcis/mat.c ****           }
 169:/home/takumi/takumique/main/reservoir/app/cmcis/mat.c ****         }
 170:/home/takumi/takumique/main/reservoir/app/cmcis/mat.c ****       }
 171:/home/takumi/takumique/main/reservoir/app/cmcis/mat.c ****       break;
 172:/home/takumi/takumique/main/reservoir/app/cmcis/mat.c ****     }
 173:/home/takumi/takumique/main/reservoir/app/cmcis/mat.c ****   }
 174:/home/takumi/takumique/main/reservoir/app/cmcis/mat.c ****   return 0;
 971              		.loc 1 174 10 view .LVU310
 972 0094 0020     		movs	r0, #0
 973              	.LVL74:
 974              	.L75:
 175:/home/takumi/takumique/main/reservoir/app/cmcis/mat.c **** }
 975              		.loc 1 175 1 view .LVU311
ARM GAS  /tmp/ccgNCQ0i.s 			page 24


 976 0096 F0BD     		pop	{r4, r5, r6, r7, pc}
 977              	.LVL75:
 978              	.L117:
 979              	.LBB21:
 980              	.LBB22:
 142:/home/takumi/takumique/main/reservoir/app/cmcis/mat.c ****           *_MAT(*c, n, m) = 0;
 981              		.loc 1 142 39 is_stmt 1 discriminator 2 view .LVU312
 142:/home/takumi/takumique/main/reservoir/app/cmcis/mat.c ****           *_MAT(*c, n, m) = 0;
 982              		.loc 1 142 40 is_stmt 0 discriminator 2 view .LVU313
 983 0098 0137     		adds	r7, r7, #1
 984              	.LVL76:
 985              	.L88:
 142:/home/takumi/takumique/main/reservoir/app/cmcis/mat.c ****           *_MAT(*c, n, m) = 0;
 986              		.loc 1 142 29 is_stmt 1 discriminator 1 view .LVU314
 142:/home/takumi/takumique/main/reservoir/app/cmcis/mat.c ****           *_MAT(*c, n, m) = 0;
 987              		.loc 1 142 34 is_stmt 0 discriminator 1 view .LVU315
 988 009a 8368     		ldr	r3, [r0, #8]
 142:/home/takumi/takumique/main/reservoir/app/cmcis/mat.c ****           *_MAT(*c, n, m) = 0;
 989              		.loc 1 142 9 discriminator 1 view .LVU316
 990 009c BB42     		cmp	r3, r7
 991 009e 2AD9     		bls	.L116
 143:/home/takumi/takumique/main/reservoir/app/cmcis/mat.c ****           for(unsigned p = 0; p < a->m; p++) {
 992              		.loc 1 143 11 is_stmt 1 view .LVU317
 143:/home/takumi/takumique/main/reservoir/app/cmcis/mat.c ****           for(unsigned p = 0; p < a->m; p++) {
 993              		.loc 1 143 12 is_stmt 0 view .LVU318
 994 00a0 0468     		ldr	r4, [r0]
 995 00a2 0CFB0373 		mla	r3, ip, r3, r7
 996 00a6 04EB8303 		add	r3, r4, r3, lsl #2
 143:/home/takumi/takumique/main/reservoir/app/cmcis/mat.c ****           for(unsigned p = 0; p < a->m; p++) {
 997              		.loc 1 143 27 view .LVU319
 998 00aa 0024     		movs	r4, #0
 999 00ac 1C60     		str	r4, [r3]	@ float
 144:/home/takumi/takumique/main/reservoir/app/cmcis/mat.c ****             *_MAT(*c, n, m) += *_MAT_T(*a, n, p) * *_MAT(*b, p, m);
 1000              		.loc 1 144 11 is_stmt 1 view .LVU320
 1001              	.LBB23:
 144:/home/takumi/takumique/main/reservoir/app/cmcis/mat.c ****             *_MAT(*c, n, m) += *_MAT_T(*a, n, p) * *_MAT(*b, p, m);
 1002              		.loc 1 144 15 view .LVU321
 1003              	.LVL77:
 144:/home/takumi/takumique/main/reservoir/app/cmcis/mat.c ****             *_MAT(*c, n, m) += *_MAT_T(*a, n, p) * *_MAT(*b, p, m);
 1004              		.loc 1 144 24 is_stmt 0 view .LVU322
 1005 00ae 7446     		mov	r4, lr
 1006              	.LVL78:
 1007              	.L85:
 144:/home/takumi/takumique/main/reservoir/app/cmcis/mat.c ****             *_MAT(*c, n, m) += *_MAT_T(*a, n, p) * *_MAT(*b, p, m);
 1008              		.loc 1 144 31 is_stmt 1 discriminator 1 view .LVU323
 144:/home/takumi/takumique/main/reservoir/app/cmcis/mat.c ****             *_MAT(*c, n, m) += *_MAT_T(*a, n, p) * *_MAT(*b, p, m);
 1009              		.loc 1 144 36 is_stmt 0 discriminator 1 view .LVU324
 1010 00b0 8B68     		ldr	r3, [r1, #8]
 144:/home/takumi/takumique/main/reservoir/app/cmcis/mat.c ****             *_MAT(*c, n, m) += *_MAT_T(*a, n, p) * *_MAT(*b, p, m);
 1011              		.loc 1 144 11 discriminator 1 view .LVU325
 1012 00b2 A342     		cmp	r3, r4
 1013 00b4 F0D9     		bls	.L117
 145:/home/takumi/takumique/main/reservoir/app/cmcis/mat.c ****           }
 1014              		.loc 1 145 13 is_stmt 1 discriminator 3 view .LVU326
 145:/home/takumi/takumique/main/reservoir/app/cmcis/mat.c ****           }
 1015              		.loc 1 145 14 is_stmt 0 discriminator 3 view .LVU327
 1016 00b6 0568     		ldr	r5, [r0]
ARM GAS  /tmp/ccgNCQ0i.s 			page 25


 1017 00b8 8368     		ldr	r3, [r0, #8]
 145:/home/takumi/takumique/main/reservoir/app/cmcis/mat.c ****           }
 1018              		.loc 1 145 29 discriminator 3 view .LVU328
 1019 00ba 0CFB0373 		mla	r3, ip, r3, r7
 1020 00be 05EB8303 		add	r3, r5, r3, lsl #2
 145:/home/takumi/takumique/main/reservoir/app/cmcis/mat.c ****           }
 1021              		.loc 1 145 33 discriminator 3 view .LVU329
 1022 00c2 0D68     		ldr	r5, [r1]
 1023 00c4 4E68     		ldr	r6, [r1, #4]
 1024 00c6 04FB06C6 		mla	r6, r4, r6, ip
 1025 00ca 05EB8605 		add	r5, r5, r6, lsl #2
 145:/home/takumi/takumique/main/reservoir/app/cmcis/mat.c ****           }
 1026              		.loc 1 145 32 discriminator 3 view .LVU330
 1027 00ce D5ED007A 		vldr.32	s15, [r5]
 145:/home/takumi/takumique/main/reservoir/app/cmcis/mat.c ****           }
 1028              		.loc 1 145 53 discriminator 3 view .LVU331
 1029 00d2 1568     		ldr	r5, [r2]
 1030 00d4 9668     		ldr	r6, [r2, #8]
 1031 00d6 04FB0676 		mla	r6, r4, r6, r7
 1032 00da 05EB8605 		add	r5, r5, r6, lsl #2
 145:/home/takumi/takumique/main/reservoir/app/cmcis/mat.c ****           }
 1033              		.loc 1 145 52 discriminator 3 view .LVU332
 1034 00de 95ED007A 		vldr.32	s14, [r5]
 145:/home/takumi/takumique/main/reservoir/app/cmcis/mat.c ****           }
 1035              		.loc 1 145 50 discriminator 3 view .LVU333
 1036 00e2 27EE877A 		vmul.f32	s14, s15, s14
 145:/home/takumi/takumique/main/reservoir/app/cmcis/mat.c ****           }
 1037              		.loc 1 145 29 discriminator 3 view .LVU334
 1038 00e6 D3ED007A 		vldr.32	s15, [r3]
 1039 00ea 77EE877A 		vadd.f32	s15, s15, s14
 1040 00ee C3ED007A 		vstr.32	s15, [r3]
 144:/home/takumi/takumique/main/reservoir/app/cmcis/mat.c ****             *_MAT(*c, n, m) += *_MAT_T(*a, n, p) * *_MAT(*b, p, m);
 1041              		.loc 1 144 41 is_stmt 1 discriminator 3 view .LVU335
 144:/home/takumi/takumique/main/reservoir/app/cmcis/mat.c ****             *_MAT(*c, n, m) += *_MAT_T(*a, n, p) * *_MAT(*b, p, m);
 1042              		.loc 1 144 42 is_stmt 0 discriminator 3 view .LVU336
 1043 00f2 0134     		adds	r4, r4, #1
 1044              	.LVL79:
 144:/home/takumi/takumique/main/reservoir/app/cmcis/mat.c ****             *_MAT(*c, n, m) += *_MAT_T(*a, n, p) * *_MAT(*b, p, m);
 1045              		.loc 1 144 42 discriminator 3 view .LVU337
 1046 00f4 DCE7     		b	.L85
 1047              	.LVL80:
 1048              	.L116:
 144:/home/takumi/takumique/main/reservoir/app/cmcis/mat.c ****             *_MAT(*c, n, m) += *_MAT_T(*a, n, p) * *_MAT(*b, p, m);
 1049              		.loc 1 144 42 discriminator 3 view .LVU338
 1050              	.LBE23:
 1051              	.LBE22:
 141:/home/takumi/takumique/main/reservoir/app/cmcis/mat.c ****         for(unsigned m = 0; m < c->m; m++) {
 1052              		.loc 1 141 37 is_stmt 1 discriminator 2 view .LVU339
 141:/home/takumi/takumique/main/reservoir/app/cmcis/mat.c ****         for(unsigned m = 0; m < c->m; m++) {
 1053              		.loc 1 141 38 is_stmt 0 discriminator 2 view .LVU340
 1054 00f6 0CF1010C 		add	ip, ip, #1
 1055              	.LVL81:
 1056              	.L84:
 141:/home/takumi/takumique/main/reservoir/app/cmcis/mat.c ****         for(unsigned m = 0; m < c->m; m++) {
 1057              		.loc 1 141 27 is_stmt 1 discriminator 1 view .LVU341
 141:/home/takumi/takumique/main/reservoir/app/cmcis/mat.c ****         for(unsigned m = 0; m < c->m; m++) {
 1058              		.loc 1 141 32 is_stmt 0 discriminator 1 view .LVU342
ARM GAS  /tmp/ccgNCQ0i.s 			page 26


 1059 00fa 4368     		ldr	r3, [r0, #4]
 141:/home/takumi/takumique/main/reservoir/app/cmcis/mat.c ****         for(unsigned m = 0; m < c->m; m++) {
 1060              		.loc 1 141 7 discriminator 1 view .LVU343
 1061 00fc 6345     		cmp	r3, ip
 1062 00fe 03D9     		bls	.L118
 1063              	.LBB24:
 142:/home/takumi/takumique/main/reservoir/app/cmcis/mat.c ****           *_MAT(*c, n, m) = 0;
 1064              		.loc 1 142 22 view .LVU344
 1065 0100 7746     		mov	r7, lr
 1066 0102 CAE7     		b	.L88
 1067              	.LVL82:
 1068              	.L124:
 142:/home/takumi/takumique/main/reservoir/app/cmcis/mat.c ****           *_MAT(*c, n, m) = 0;
 1069              		.loc 1 142 22 view .LVU345
 1070              	.LBE24:
 141:/home/takumi/takumique/main/reservoir/app/cmcis/mat.c ****         for(unsigned m = 0; m < c->m; m++) {
 1071              		.loc 1 141 20 view .LVU346
 1072 0104 F446     		mov	ip, lr
 1073 0106 F8E7     		b	.L84
 1074              	.LVL83:
 1075              	.L118:
 141:/home/takumi/takumique/main/reservoir/app/cmcis/mat.c ****         for(unsigned m = 0; m < c->m; m++) {
 1076              		.loc 1 141 20 view .LVU347
 1077              	.LBE21:
 174:/home/takumi/takumique/main/reservoir/app/cmcis/mat.c **** }
 1078              		.loc 1 174 10 view .LVU348
 1079 0108 0020     		movs	r0, #0
 1080              	.LVL84:
 174:/home/takumi/takumique/main/reservoir/app/cmcis/mat.c **** }
 1081              		.loc 1 174 10 view .LVU349
 1082 010a C4E7     		b	.L75
 1083              	.LVL85:
 1084              	.L120:
 1085              	.LBB25:
 1086              	.LBB26:
 153:/home/takumi/takumique/main/reservoir/app/cmcis/mat.c ****           *_MAT(*c, n, m) = 0;
 1087              		.loc 1 153 39 is_stmt 1 discriminator 2 view .LVU350
 153:/home/takumi/takumique/main/reservoir/app/cmcis/mat.c ****           *_MAT(*c, n, m) = 0;
 1088              		.loc 1 153 40 is_stmt 0 discriminator 2 view .LVU351
 1089 010c 0137     		adds	r7, r7, #1
 1090              	.LVL86:
 1091              	.L94:
 153:/home/takumi/takumique/main/reservoir/app/cmcis/mat.c ****           *_MAT(*c, n, m) = 0;
 1092              		.loc 1 153 29 is_stmt 1 discriminator 1 view .LVU352
 153:/home/takumi/takumique/main/reservoir/app/cmcis/mat.c ****           *_MAT(*c, n, m) = 0;
 1093              		.loc 1 153 34 is_stmt 0 discriminator 1 view .LVU353
 1094 010e 8368     		ldr	r3, [r0, #8]
 153:/home/takumi/takumique/main/reservoir/app/cmcis/mat.c ****           *_MAT(*c, n, m) = 0;
 1095              		.loc 1 153 9 discriminator 1 view .LVU354
 1096 0110 BB42     		cmp	r3, r7
 1097 0112 29D9     		bls	.L119
 154:/home/takumi/takumique/main/reservoir/app/cmcis/mat.c ****           for(unsigned p = 0; p < a->m; p++) {
 1098              		.loc 1 154 11 is_stmt 1 view .LVU355
 154:/home/takumi/takumique/main/reservoir/app/cmcis/mat.c ****           for(unsigned p = 0; p < a->m; p++) {
 1099              		.loc 1 154 12 is_stmt 0 view .LVU356
 1100 0114 0468     		ldr	r4, [r0]
 1101 0116 0EFB0373 		mla	r3, lr, r3, r7
ARM GAS  /tmp/ccgNCQ0i.s 			page 27


 1102 011a 04EB8303 		add	r3, r4, r3, lsl #2
 154:/home/takumi/takumique/main/reservoir/app/cmcis/mat.c ****           for(unsigned p = 0; p < a->m; p++) {
 1103              		.loc 1 154 27 view .LVU357
 1104 011e 0024     		movs	r4, #0
 1105 0120 1C60     		str	r4, [r3]	@ float
 155:/home/takumi/takumique/main/reservoir/app/cmcis/mat.c ****             *_MAT(*c, n, m) += *_MAT(*a, n, p) * *_MAT_T(*b, p, m);
 1106              		.loc 1 155 11 is_stmt 1 view .LVU358
 1107              	.LBB27:
 155:/home/takumi/takumique/main/reservoir/app/cmcis/mat.c ****             *_MAT(*c, n, m) += *_MAT(*a, n, p) * *_MAT_T(*b, p, m);
 1108              		.loc 1 155 15 view .LVU359
 1109              	.LVL87:
 155:/home/takumi/takumique/main/reservoir/app/cmcis/mat.c ****             *_MAT(*c, n, m) += *_MAT(*a, n, p) * *_MAT_T(*b, p, m);
 1110              		.loc 1 155 24 is_stmt 0 view .LVU360
 1111 0122 6446     		mov	r4, ip
 1112              	.LVL88:
 1113              	.L91:
 155:/home/takumi/takumique/main/reservoir/app/cmcis/mat.c ****             *_MAT(*c, n, m) += *_MAT(*a, n, p) * *_MAT_T(*b, p, m);
 1114              		.loc 1 155 31 is_stmt 1 discriminator 1 view .LVU361
 155:/home/takumi/takumique/main/reservoir/app/cmcis/mat.c ****             *_MAT(*c, n, m) += *_MAT(*a, n, p) * *_MAT_T(*b, p, m);
 1115              		.loc 1 155 36 is_stmt 0 discriminator 1 view .LVU362
 1116 0124 8D68     		ldr	r5, [r1, #8]
 155:/home/takumi/takumique/main/reservoir/app/cmcis/mat.c ****             *_MAT(*c, n, m) += *_MAT(*a, n, p) * *_MAT_T(*b, p, m);
 1117              		.loc 1 155 11 discriminator 1 view .LVU363
 1118 0126 A542     		cmp	r5, r4
 1119 0128 F0D9     		bls	.L120
 156:/home/takumi/takumique/main/reservoir/app/cmcis/mat.c ****           }
 1120              		.loc 1 156 13 is_stmt 1 discriminator 3 view .LVU364
 156:/home/takumi/takumique/main/reservoir/app/cmcis/mat.c ****           }
 1121              		.loc 1 156 14 is_stmt 0 discriminator 3 view .LVU365
 1122 012a 0668     		ldr	r6, [r0]
 1123 012c 8368     		ldr	r3, [r0, #8]
 156:/home/takumi/takumique/main/reservoir/app/cmcis/mat.c ****           }
 1124              		.loc 1 156 29 discriminator 3 view .LVU366
 1125 012e 0EFB0373 		mla	r3, lr, r3, r7
 1126 0132 06EB8303 		add	r3, r6, r3, lsl #2
 156:/home/takumi/takumique/main/reservoir/app/cmcis/mat.c ****           }
 1127              		.loc 1 156 33 discriminator 3 view .LVU367
 1128 0136 0E68     		ldr	r6, [r1]
 1129 0138 0EFB0545 		mla	r5, lr, r5, r4
 1130 013c 06EB8505 		add	r5, r6, r5, lsl #2
 156:/home/takumi/takumique/main/reservoir/app/cmcis/mat.c ****           }
 1131              		.loc 1 156 32 discriminator 3 view .LVU368
 1132 0140 D5ED007A 		vldr.32	s15, [r5]
 156:/home/takumi/takumique/main/reservoir/app/cmcis/mat.c ****           }
 1133              		.loc 1 156 51 discriminator 3 view .LVU369
 1134 0144 1568     		ldr	r5, [r2]
 1135 0146 5668     		ldr	r6, [r2, #4]
 1136 0148 07FB0646 		mla	r6, r7, r6, r4
 1137 014c 05EB8605 		add	r5, r5, r6, lsl #2
 156:/home/takumi/takumique/main/reservoir/app/cmcis/mat.c ****           }
 1138              		.loc 1 156 50 discriminator 3 view .LVU370
 1139 0150 95ED007A 		vldr.32	s14, [r5]
 156:/home/takumi/takumique/main/reservoir/app/cmcis/mat.c ****           }
 1140              		.loc 1 156 48 discriminator 3 view .LVU371
 1141 0154 27EE877A 		vmul.f32	s14, s15, s14
 156:/home/takumi/takumique/main/reservoir/app/cmcis/mat.c ****           }
 1142              		.loc 1 156 29 discriminator 3 view .LVU372
ARM GAS  /tmp/ccgNCQ0i.s 			page 28


 1143 0158 D3ED007A 		vldr.32	s15, [r3]
 1144 015c 77EE877A 		vadd.f32	s15, s15, s14
 1145 0160 C3ED007A 		vstr.32	s15, [r3]
 155:/home/takumi/takumique/main/reservoir/app/cmcis/mat.c ****             *_MAT(*c, n, m) += *_MAT(*a, n, p) * *_MAT_T(*b, p, m);
 1146              		.loc 1 155 41 is_stmt 1 discriminator 3 view .LVU373
 155:/home/takumi/takumique/main/reservoir/app/cmcis/mat.c ****             *_MAT(*c, n, m) += *_MAT(*a, n, p) * *_MAT_T(*b, p, m);
 1147              		.loc 1 155 42 is_stmt 0 discriminator 3 view .LVU374
 1148 0164 0134     		adds	r4, r4, #1
 1149              	.LVL89:
 155:/home/takumi/takumique/main/reservoir/app/cmcis/mat.c ****             *_MAT(*c, n, m) += *_MAT(*a, n, p) * *_MAT_T(*b, p, m);
 1150              		.loc 1 155 42 discriminator 3 view .LVU375
 1151 0166 DDE7     		b	.L91
 1152              	.LVL90:
 1153              	.L119:
 155:/home/takumi/takumique/main/reservoir/app/cmcis/mat.c ****             *_MAT(*c, n, m) += *_MAT(*a, n, p) * *_MAT_T(*b, p, m);
 1154              		.loc 1 155 42 discriminator 3 view .LVU376
 1155              	.LBE27:
 1156              	.LBE26:
 152:/home/takumi/takumique/main/reservoir/app/cmcis/mat.c ****         for(unsigned m = 0; m < c->m; m++) {
 1157              		.loc 1 152 37 is_stmt 1 discriminator 2 view .LVU377
 152:/home/takumi/takumique/main/reservoir/app/cmcis/mat.c ****         for(unsigned m = 0; m < c->m; m++) {
 1158              		.loc 1 152 38 is_stmt 0 discriminator 2 view .LVU378
 1159 0168 0EF1010E 		add	lr, lr, #1
 1160              	.LVL91:
 1161              	.L90:
 152:/home/takumi/takumique/main/reservoir/app/cmcis/mat.c ****         for(unsigned m = 0; m < c->m; m++) {
 1162              		.loc 1 152 27 is_stmt 1 discriminator 1 view .LVU379
 152:/home/takumi/takumique/main/reservoir/app/cmcis/mat.c ****         for(unsigned m = 0; m < c->m; m++) {
 1163              		.loc 1 152 32 is_stmt 0 discriminator 1 view .LVU380
 1164 016c 4368     		ldr	r3, [r0, #4]
 152:/home/takumi/takumique/main/reservoir/app/cmcis/mat.c ****         for(unsigned m = 0; m < c->m; m++) {
 1165              		.loc 1 152 7 discriminator 1 view .LVU381
 1166 016e 7345     		cmp	r3, lr
 1167 0170 01D9     		bls	.L121
 1168              	.LBB28:
 153:/home/takumi/takumique/main/reservoir/app/cmcis/mat.c ****           *_MAT(*c, n, m) = 0;
 1169              		.loc 1 153 22 view .LVU382
 1170 0172 6746     		mov	r7, ip
 1171 0174 CBE7     		b	.L94
 1172              	.L121:
 1173              	.LBE28:
 1174              	.LBE25:
 174:/home/takumi/takumique/main/reservoir/app/cmcis/mat.c **** }
 1175              		.loc 1 174 10 view .LVU383
 1176 0176 0020     		movs	r0, #0
 1177              	.LVL92:
 174:/home/takumi/takumique/main/reservoir/app/cmcis/mat.c **** }
 1178              		.loc 1 174 10 view .LVU384
 1179 0178 8DE7     		b	.L75
 1180              	.LVL93:
 1181              	.L89:
 162:/home/takumi/takumique/main/reservoir/app/cmcis/mat.c ****       for(unsigned n = 0; n < c->n; n++) {
 1182              		.loc 1 162 5 is_stmt 1 view .LVU385
 162:/home/takumi/takumique/main/reservoir/app/cmcis/mat.c ****       for(unsigned n = 0; n < c->n; n++) {
 1183              		.loc 1 162 7 is_stmt 0 view .LVU386
 1184 017a BCF1000F 		cmp	ip, #0
 1185 017e 1AD1     		bne	.L122
ARM GAS  /tmp/ccgNCQ0i.s 			page 29


 1186              	.L95:
 128:/home/takumi/takumique/main/reservoir/app/cmcis/mat.c ****     if(!a->t && !b->t) {
 1187              		.loc 1 128 3 is_stmt 1 view .LVU387
 129:/home/takumi/takumique/main/reservoir/app/cmcis/mat.c ****       for(unsigned n = 0; n < c->n; n++) {
 1188              		.loc 1 129 5 view .LVU388
 129:/home/takumi/takumique/main/reservoir/app/cmcis/mat.c ****       for(unsigned n = 0; n < c->n; n++) {
 1189              		.loc 1 129 10 is_stmt 0 view .LVU389
 1190 0180 D1F80CC0 		ldr	ip, [r1, #12]
 129:/home/takumi/takumique/main/reservoir/app/cmcis/mat.c ****       for(unsigned n = 0; n < c->n; n++) {
 1191              		.loc 1 129 7 view .LVU390
 1192 0184 BCF1000F 		cmp	ip, #0
 1193 0188 05D1     		bne	.L77
 129:/home/takumi/takumique/main/reservoir/app/cmcis/mat.c ****       for(unsigned n = 0; n < c->n; n++) {
 1194              		.loc 1 129 19 discriminator 1 view .LVU391
 1195 018a D2F80CE0 		ldr	lr, [r2, #12]
 129:/home/takumi/takumique/main/reservoir/app/cmcis/mat.c ****       for(unsigned n = 0; n < c->n; n++) {
 1196              		.loc 1 129 14 discriminator 1 view .LVU392
 1197 018e BEF1000F 		cmp	lr, #0
 1198 0192 3FF47DAF 		beq	.L123
 1199              	.L77:
 140:/home/takumi/takumique/main/reservoir/app/cmcis/mat.c ****       for(unsigned n = 0; n < c->n; n++) {
 1200              		.loc 1 140 5 is_stmt 1 view .LVU393
 140:/home/takumi/takumique/main/reservoir/app/cmcis/mat.c ****       for(unsigned n = 0; n < c->n; n++) {
 1201              		.loc 1 140 7 is_stmt 0 view .LVU394
 1202 0196 BCF1000F 		cmp	ip, #0
 1203 019a 04D0     		beq	.L83
 140:/home/takumi/takumique/main/reservoir/app/cmcis/mat.c ****       for(unsigned n = 0; n < c->n; n++) {
 1204              		.loc 1 140 18 discriminator 1 view .LVU395
 1205 019c D2F80CE0 		ldr	lr, [r2, #12]
 140:/home/takumi/takumique/main/reservoir/app/cmcis/mat.c ****       for(unsigned n = 0; n < c->n; n++) {
 1206              		.loc 1 140 13 discriminator 1 view .LVU396
 1207 01a0 BEF1000F 		cmp	lr, #0
 1208 01a4 AED0     		beq	.L124
 1209              	.L83:
 151:/home/takumi/takumique/main/reservoir/app/cmcis/mat.c ****       for(unsigned n = 0; n < c->n; n++) {
 1210              		.loc 1 151 5 is_stmt 1 view .LVU397
 151:/home/takumi/takumique/main/reservoir/app/cmcis/mat.c ****       for(unsigned n = 0; n < c->n; n++) {
 1211              		.loc 1 151 7 is_stmt 0 view .LVU398
 1212 01a6 BCF1000F 		cmp	ip, #0
 1213 01aa E6D1     		bne	.L89
 151:/home/takumi/takumique/main/reservoir/app/cmcis/mat.c ****       for(unsigned n = 0; n < c->n; n++) {
 1214              		.loc 1 151 18 discriminator 1 view .LVU399
 1215 01ac D368     		ldr	r3, [r2, #12]
 151:/home/takumi/takumique/main/reservoir/app/cmcis/mat.c ****       for(unsigned n = 0; n < c->n; n++) {
 1216              		.loc 1 151 14 discriminator 1 view .LVU400
 1217 01ae 002B     		cmp	r3, #0
 1218 01b0 E3D0     		beq	.L89
 1219              	.LBB29:
 152:/home/takumi/takumique/main/reservoir/app/cmcis/mat.c ****         for(unsigned m = 0; m < c->m; m++) {
 1220              		.loc 1 152 20 view .LVU401
 1221 01b2 E646     		mov	lr, ip
 1222 01b4 DAE7     		b	.L90
 1223              	.L122:
 152:/home/takumi/takumique/main/reservoir/app/cmcis/mat.c ****         for(unsigned m = 0; m < c->m; m++) {
 1224              		.loc 1 152 20 view .LVU402
 1225              	.LBE29:
 162:/home/takumi/takumique/main/reservoir/app/cmcis/mat.c ****       for(unsigned n = 0; n < c->n; n++) {
ARM GAS  /tmp/ccgNCQ0i.s 			page 30


 1226              		.loc 1 162 17 discriminator 1 view .LVU403
 1227 01b6 D368     		ldr	r3, [r2, #12]
 162:/home/takumi/takumique/main/reservoir/app/cmcis/mat.c ****       for(unsigned n = 0; n < c->n; n++) {
 1228              		.loc 1 162 13 discriminator 1 view .LVU404
 1229 01b8 002B     		cmp	r3, #0
 1230 01ba E1D0     		beq	.L95
 1231              	.LBB30:
 163:/home/takumi/takumique/main/reservoir/app/cmcis/mat.c ****         for(unsigned m = 0; m < c->m; m++) {
 1232              		.loc 1 163 20 view .LVU405
 1233 01bc 4FF0000C 		mov	ip, #0
 1234 01c0 30E0     		b	.L96
 1235              	.LVL94:
 1236              	.L99:
 1237              	.LBB31:
 1238              	.LBB32:
 167:/home/takumi/takumique/main/reservoir/app/cmcis/mat.c ****           }
 1239              		.loc 1 167 13 is_stmt 1 discriminator 3 view .LVU406
 167:/home/takumi/takumique/main/reservoir/app/cmcis/mat.c ****           }
 1240              		.loc 1 167 14 is_stmt 0 discriminator 3 view .LVU407
 1241 01c2 0468     		ldr	r4, [r0]
 1242 01c4 8568     		ldr	r5, [r0, #8]
 167:/home/takumi/takumique/main/reservoir/app/cmcis/mat.c ****           }
 1243              		.loc 1 167 29 discriminator 3 view .LVU408
 1244 01c6 0CFB0575 		mla	r5, ip, r5, r7
 1245 01ca 04EB8504 		add	r4, r4, r5, lsl #2
 167:/home/takumi/takumique/main/reservoir/app/cmcis/mat.c ****           }
 1246              		.loc 1 167 33 discriminator 3 view .LVU409
 1247 01ce 0D68     		ldr	r5, [r1]
 1248 01d0 4E68     		ldr	r6, [r1, #4]
 1249 01d2 03FB06C6 		mla	r6, r3, r6, ip
 1250 01d6 05EB8605 		add	r5, r5, r6, lsl #2
 167:/home/takumi/takumique/main/reservoir/app/cmcis/mat.c ****           }
 1251              		.loc 1 167 32 discriminator 3 view .LVU410
 1252 01da D5ED007A 		vldr.32	s15, [r5]
 167:/home/takumi/takumique/main/reservoir/app/cmcis/mat.c ****           }
 1253              		.loc 1 167 53 discriminator 3 view .LVU411
 1254 01de 1568     		ldr	r5, [r2]
 1255 01e0 5668     		ldr	r6, [r2, #4]
 1256 01e2 07FB0636 		mla	r6, r7, r6, r3
 1257 01e6 05EB8605 		add	r5, r5, r6, lsl #2
 167:/home/takumi/takumique/main/reservoir/app/cmcis/mat.c ****           }
 1258              		.loc 1 167 52 discriminator 3 view .LVU412
 1259 01ea 95ED007A 		vldr.32	s14, [r5]
 167:/home/takumi/takumique/main/reservoir/app/cmcis/mat.c ****           }
 1260              		.loc 1 167 50 discriminator 3 view .LVU413
 1261 01ee 27EE877A 		vmul.f32	s14, s15, s14
 167:/home/takumi/takumique/main/reservoir/app/cmcis/mat.c ****           }
 1262              		.loc 1 167 29 discriminator 3 view .LVU414
 1263 01f2 D4ED007A 		vldr.32	s15, [r4]
 1264 01f6 77EE877A 		vadd.f32	s15, s15, s14
 1265 01fa C4ED007A 		vstr.32	s15, [r4]
 166:/home/takumi/takumique/main/reservoir/app/cmcis/mat.c ****             *_MAT(*c, n, m) += *_MAT_T(*a, n, p) * *_MAT_T(*b, p, m);
 1266              		.loc 1 166 41 is_stmt 1 discriminator 3 view .LVU415
 166:/home/takumi/takumique/main/reservoir/app/cmcis/mat.c ****             *_MAT(*c, n, m) += *_MAT_T(*a, n, p) * *_MAT_T(*b, p, m);
 1267              		.loc 1 166 42 is_stmt 0 discriminator 3 view .LVU416
 1268 01fe 0133     		adds	r3, r3, #1
 1269              	.LVL95:
ARM GAS  /tmp/ccgNCQ0i.s 			page 31


 1270              	.L98:
 166:/home/takumi/takumique/main/reservoir/app/cmcis/mat.c ****             *_MAT(*c, n, m) += *_MAT_T(*a, n, p) * *_MAT_T(*b, p, m);
 1271              		.loc 1 166 31 is_stmt 1 discriminator 1 view .LVU417
 166:/home/takumi/takumique/main/reservoir/app/cmcis/mat.c ****             *_MAT(*c, n, m) += *_MAT_T(*a, n, p) * *_MAT_T(*b, p, m);
 1272              		.loc 1 166 36 is_stmt 0 discriminator 1 view .LVU418
 1273 0200 8C68     		ldr	r4, [r1, #8]
 166:/home/takumi/takumique/main/reservoir/app/cmcis/mat.c ****             *_MAT(*c, n, m) += *_MAT_T(*a, n, p) * *_MAT_T(*b, p, m);
 1274              		.loc 1 166 11 discriminator 1 view .LVU419
 1275 0202 9C42     		cmp	r4, r3
 1276 0204 DDD8     		bhi	.L99
 1277              	.LBE32:
 164:/home/takumi/takumique/main/reservoir/app/cmcis/mat.c ****           *_MAT(*c, n, m) = 0;
 1278              		.loc 1 164 39 is_stmt 1 discriminator 2 view .LVU420
 164:/home/takumi/takumique/main/reservoir/app/cmcis/mat.c ****           *_MAT(*c, n, m) = 0;
 1279              		.loc 1 164 40 is_stmt 0 discriminator 2 view .LVU421
 1280 0206 0137     		adds	r7, r7, #1
 1281              	.LVL96:
 1282              	.L101:
 164:/home/takumi/takumique/main/reservoir/app/cmcis/mat.c ****           *_MAT(*c, n, m) = 0;
 1283              		.loc 1 164 29 is_stmt 1 discriminator 1 view .LVU422
 164:/home/takumi/takumique/main/reservoir/app/cmcis/mat.c ****           *_MAT(*c, n, m) = 0;
 1284              		.loc 1 164 34 is_stmt 0 discriminator 1 view .LVU423
 1285 0208 8368     		ldr	r3, [r0, #8]
 164:/home/takumi/takumique/main/reservoir/app/cmcis/mat.c ****           *_MAT(*c, n, m) = 0;
 1286              		.loc 1 164 9 discriminator 1 view .LVU424
 1287 020a BB42     		cmp	r3, r7
 1288 020c 08D9     		bls	.L125
 165:/home/takumi/takumique/main/reservoir/app/cmcis/mat.c ****           for(unsigned p = 0; p < a->m; p++) {
 1289              		.loc 1 165 11 is_stmt 1 view .LVU425
 165:/home/takumi/takumique/main/reservoir/app/cmcis/mat.c ****           for(unsigned p = 0; p < a->m; p++) {
 1290              		.loc 1 165 12 is_stmt 0 view .LVU426
 1291 020e 0468     		ldr	r4, [r0]
 1292 0210 0CFB0373 		mla	r3, ip, r3, r7
 1293 0214 04EB8303 		add	r3, r4, r3, lsl #2
 165:/home/takumi/takumique/main/reservoir/app/cmcis/mat.c ****           for(unsigned p = 0; p < a->m; p++) {
 1294              		.loc 1 165 27 view .LVU427
 1295 0218 0024     		movs	r4, #0
 1296 021a 1C60     		str	r4, [r3]	@ float
 166:/home/takumi/takumique/main/reservoir/app/cmcis/mat.c ****             *_MAT(*c, n, m) += *_MAT_T(*a, n, p) * *_MAT_T(*b, p, m);
 1297              		.loc 1 166 11 is_stmt 1 view .LVU428
 1298              	.LBB33:
 166:/home/takumi/takumique/main/reservoir/app/cmcis/mat.c ****             *_MAT(*c, n, m) += *_MAT_T(*a, n, p) * *_MAT_T(*b, p, m);
 1299              		.loc 1 166 15 view .LVU429
 1300              	.LVL97:
 166:/home/takumi/takumique/main/reservoir/app/cmcis/mat.c ****             *_MAT(*c, n, m) += *_MAT_T(*a, n, p) * *_MAT_T(*b, p, m);
 1301              		.loc 1 166 24 is_stmt 0 view .LVU430
 1302 021c 0023     		movs	r3, #0
 166:/home/takumi/takumique/main/reservoir/app/cmcis/mat.c ****             *_MAT(*c, n, m) += *_MAT_T(*a, n, p) * *_MAT_T(*b, p, m);
 1303              		.loc 1 166 11 view .LVU431
 1304 021e EFE7     		b	.L98
 1305              	.LVL98:
 1306              	.L125:
 166:/home/takumi/takumique/main/reservoir/app/cmcis/mat.c ****             *_MAT(*c, n, m) += *_MAT_T(*a, n, p) * *_MAT_T(*b, p, m);
 1307              		.loc 1 166 11 view .LVU432
 1308              	.LBE33:
 1309              	.LBE31:
 163:/home/takumi/takumique/main/reservoir/app/cmcis/mat.c ****         for(unsigned m = 0; m < c->m; m++) {
ARM GAS  /tmp/ccgNCQ0i.s 			page 32


 1310              		.loc 1 163 37 is_stmt 1 discriminator 2 view .LVU433
 163:/home/takumi/takumique/main/reservoir/app/cmcis/mat.c ****         for(unsigned m = 0; m < c->m; m++) {
 1311              		.loc 1 163 38 is_stmt 0 discriminator 2 view .LVU434
 1312 0220 0CF1010C 		add	ip, ip, #1
 1313              	.LVL99:
 1314              	.L96:
 163:/home/takumi/takumique/main/reservoir/app/cmcis/mat.c ****         for(unsigned m = 0; m < c->m; m++) {
 1315              		.loc 1 163 27 is_stmt 1 discriminator 1 view .LVU435
 163:/home/takumi/takumique/main/reservoir/app/cmcis/mat.c ****         for(unsigned m = 0; m < c->m; m++) {
 1316              		.loc 1 163 32 is_stmt 0 discriminator 1 view .LVU436
 1317 0224 4368     		ldr	r3, [r0, #4]
 163:/home/takumi/takumique/main/reservoir/app/cmcis/mat.c ****         for(unsigned m = 0; m < c->m; m++) {
 1318              		.loc 1 163 7 discriminator 1 view .LVU437
 1319 0226 6345     		cmp	r3, ip
 1320 0228 01D9     		bls	.L126
 1321              	.LBB34:
 164:/home/takumi/takumique/main/reservoir/app/cmcis/mat.c ****           *_MAT(*c, n, m) = 0;
 1322              		.loc 1 164 22 view .LVU438
 1323 022a 0027     		movs	r7, #0
 1324 022c ECE7     		b	.L101
 1325              	.L126:
 1326              	.LBE34:
 1327              	.LBE30:
 174:/home/takumi/takumique/main/reservoir/app/cmcis/mat.c **** }
 1328              		.loc 1 174 10 view .LVU439
 1329 022e 0020     		movs	r0, #0
 1330              	.LVL100:
 1331              	.LBB35:
 174:/home/takumi/takumique/main/reservoir/app/cmcis/mat.c **** }
 1332              		.loc 1 174 10 view .LVU440
 1333 0230 31E7     		b	.L75
 1334              	.LVL101:
 1335              	.L102:
 174:/home/takumi/takumique/main/reservoir/app/cmcis/mat.c **** }
 1336              		.loc 1 174 10 view .LVU441
 1337              	.LBE35:
 118:/home/takumi/takumique/main/reservoir/app/cmcis/mat.c ****   }
 1338              		.loc 1 118 12 view .LVU442
 1339 0232 4FF0FF30 		mov	r0, #-1
 1340              	.LVL102:
 118:/home/takumi/takumique/main/reservoir/app/cmcis/mat.c ****   }
 1341              		.loc 1 118 12 view .LVU443
 1342 0236 2EE7     		b	.L75
 1343              	.LVL103:
 1344              	.L103:
 121:/home/takumi/takumique/main/reservoir/app/cmcis/mat.c ****   }
 1345              		.loc 1 121 12 view .LVU444
 1346 0238 4FF0FF30 		mov	r0, #-1
 1347              	.LVL104:
 121:/home/takumi/takumique/main/reservoir/app/cmcis/mat.c ****   }
 1348              		.loc 1 121 12 view .LVU445
 1349 023c 2BE7     		b	.L75
 1350              	.LVL105:
 1351              	.L104:
 124:/home/takumi/takumique/main/reservoir/app/cmcis/mat.c ****   }
 1352              		.loc 1 124 12 view .LVU446
 1353 023e 4FF0FF30 		mov	r0, #-1
ARM GAS  /tmp/ccgNCQ0i.s 			page 33


 1354              	.LVL106:
 124:/home/takumi/takumique/main/reservoir/app/cmcis/mat.c ****   }
 1355              		.loc 1 124 12 view .LVU447
 1356 0242 28E7     		b	.L75
 1357              		.cfi_endproc
 1358              	.LFE151:
 1360              		.section	.text.mat_f32_mul,"ax",%progbits
 1361              		.align	1
 1362              		.global	mat_f32_mul
 1363              		.syntax unified
 1364              		.thumb
 1365              		.thumb_func
 1366              		.fpu fpv4-sp-d16
 1368              	mat_f32_mul:
 1369              	.LVL107:
 1370              	.LFB152:
 176:/home/takumi/takumique/main/reservoir/app/cmcis/mat.c **** 
 177:/home/takumi/takumique/main/reservoir/app/cmcis/mat.c **** int mat_f32_mul(mat_f32_t *c, mat_f32_t *a, float l) {
 1371              		.loc 1 177 54 is_stmt 1 view -0
 1372              		.cfi_startproc
 1373              		@ args = 0, pretend = 0, frame = 0
 1374              		@ frame_needed = 0, uses_anonymous_args = 0
 1375              		@ link register save eliminated.
 178:/home/takumi/takumique/main/reservoir/app/cmcis/mat.c **** #ifdef CHECK_ARGS
 179:/home/takumi/takumique/main/reservoir/app/cmcis/mat.c ****   if(c->n != a->n) {
 1376              		.loc 1 179 3 view .LVU449
 1377              		.loc 1 179 7 is_stmt 0 view .LVU450
 1378 0000 4268     		ldr	r2, [r0, #4]
 1379              		.loc 1 179 15 view .LVU451
 1380 0002 4B68     		ldr	r3, [r1, #4]
 1381              		.loc 1 179 5 view .LVU452
 1382 0004 9A42     		cmp	r2, r3
 1383 0006 1ED1     		bne	.L131
 180:/home/takumi/takumique/main/reservoir/app/cmcis/mat.c ****     return -1;
 181:/home/takumi/takumique/main/reservoir/app/cmcis/mat.c ****   }
 182:/home/takumi/takumique/main/reservoir/app/cmcis/mat.c ****   if(c->m != a->m) {
 1384              		.loc 1 182 3 is_stmt 1 view .LVU453
 1385              		.loc 1 182 7 is_stmt 0 view .LVU454
 1386 0008 8268     		ldr	r2, [r0, #8]
 1387              		.loc 1 182 15 view .LVU455
 1388 000a 8B68     		ldr	r3, [r1, #8]
 1389              		.loc 1 182 5 view .LVU456
 1390 000c 9A42     		cmp	r2, r3
 1391 000e 1DD1     		bne	.L132
 177:/home/takumi/takumique/main/reservoir/app/cmcis/mat.c **** #ifdef CHECK_ARGS
 1392              		.loc 1 177 54 view .LVU457
 1393 0010 10B4     		push	{r4}
 1394              	.LCFI11:
 1395              		.cfi_def_cfa_offset 4
 1396              		.cfi_offset 4, -4
 183:/home/takumi/takumique/main/reservoir/app/cmcis/mat.c ****     return -1;
 184:/home/takumi/takumique/main/reservoir/app/cmcis/mat.c ****   }
 185:/home/takumi/takumique/main/reservoir/app/cmcis/mat.c **** #endif
 186:/home/takumi/takumique/main/reservoir/app/cmcis/mat.c ****   c->t = 0;
 1397              		.loc 1 186 3 is_stmt 1 view .LVU458
 1398              		.loc 1 186 8 is_stmt 0 view .LVU459
 1399 0012 0023     		movs	r3, #0
ARM GAS  /tmp/ccgNCQ0i.s 			page 34


 1400 0014 C360     		str	r3, [r0, #12]
 187:/home/takumi/takumique/main/reservoir/app/cmcis/mat.c ****   for(unsigned i = 0; i < c->n * c->m; i++) {
 1401              		.loc 1 187 3 is_stmt 1 view .LVU460
 1402              	.LBB36:
 1403              		.loc 1 187 7 view .LVU461
 1404              	.LVL108:
 1405              		.loc 1 187 3 is_stmt 0 view .LVU462
 1406 0016 0CE0     		b	.L129
 1407              	.LVL109:
 1408              	.L130:
 188:/home/takumi/takumique/main/reservoir/app/cmcis/mat.c ****     *(c->data + i) = *(a->data + i) * l;
 1409              		.loc 1 188 5 is_stmt 1 discriminator 3 view .LVU463
 1410              		.loc 1 188 25 is_stmt 0 discriminator 3 view .LVU464
 1411 0018 0A68     		ldr	r2, [r1]
 1412              		.loc 1 188 32 discriminator 3 view .LVU465
 1413 001a 02EB8302 		add	r2, r2, r3, lsl #2
 1414              		.loc 1 188 22 discriminator 3 view .LVU466
 1415 001e D2ED007A 		vldr.32	s15, [r2]
 1416              		.loc 1 188 8 discriminator 3 view .LVU467
 1417 0022 0268     		ldr	r2, [r0]
 1418              		.loc 1 188 15 discriminator 3 view .LVU468
 1419 0024 02EB8302 		add	r2, r2, r3, lsl #2
 1420              		.loc 1 188 37 discriminator 3 view .LVU469
 1421 0028 67EE807A 		vmul.f32	s15, s15, s0
 1422              		.loc 1 188 20 discriminator 3 view .LVU470
 1423 002c C2ED007A 		vstr.32	s15, [r2]
 187:/home/takumi/takumique/main/reservoir/app/cmcis/mat.c ****   for(unsigned i = 0; i < c->n * c->m; i++) {
 1424              		.loc 1 187 40 is_stmt 1 discriminator 3 view .LVU471
 187:/home/takumi/takumique/main/reservoir/app/cmcis/mat.c ****   for(unsigned i = 0; i < c->n * c->m; i++) {
 1425              		.loc 1 187 41 is_stmt 0 discriminator 3 view .LVU472
 1426 0030 0133     		adds	r3, r3, #1
 1427              	.LVL110:
 1428              	.L129:
 187:/home/takumi/takumique/main/reservoir/app/cmcis/mat.c ****   for(unsigned i = 0; i < c->n * c->m; i++) {
 1429              		.loc 1 187 23 is_stmt 1 discriminator 1 view .LVU473
 187:/home/takumi/takumique/main/reservoir/app/cmcis/mat.c ****   for(unsigned i = 0; i < c->n * c->m; i++) {
 1430              		.loc 1 187 28 is_stmt 0 discriminator 1 view .LVU474
 1431 0032 4468     		ldr	r4, [r0, #4]
 187:/home/takumi/takumique/main/reservoir/app/cmcis/mat.c ****   for(unsigned i = 0; i < c->n * c->m; i++) {
 1432              		.loc 1 187 35 discriminator 1 view .LVU475
 1433 0034 8268     		ldr	r2, [r0, #8]
 187:/home/takumi/takumique/main/reservoir/app/cmcis/mat.c ****   for(unsigned i = 0; i < c->n * c->m; i++) {
 1434              		.loc 1 187 32 discriminator 1 view .LVU476
 1435 0036 02FB04F2 		mul	r2, r2, r4
 187:/home/takumi/takumique/main/reservoir/app/cmcis/mat.c ****   for(unsigned i = 0; i < c->n * c->m; i++) {
 1436              		.loc 1 187 3 discriminator 1 view .LVU477
 1437 003a 9A42     		cmp	r2, r3
 1438 003c ECD8     		bhi	.L130
 1439              	.LBE36:
 189:/home/takumi/takumique/main/reservoir/app/cmcis/mat.c ****   }
 190:/home/takumi/takumique/main/reservoir/app/cmcis/mat.c ****   return 0;
 1440              		.loc 1 190 10 view .LVU478
 1441 003e 0020     		movs	r0, #0
 1442              	.LVL111:
 191:/home/takumi/takumique/main/reservoir/app/cmcis/mat.c **** }
 1443              		.loc 1 191 1 view .LVU479
 1444 0040 5DF8044B 		ldr	r4, [sp], #4
ARM GAS  /tmp/ccgNCQ0i.s 			page 35


 1445              	.LCFI12:
 1446              		.cfi_restore 4
 1447              		.cfi_def_cfa_offset 0
 1448 0044 7047     		bx	lr
 1449              	.LVL112:
 1450              	.L131:
 180:/home/takumi/takumique/main/reservoir/app/cmcis/mat.c ****   }
 1451              		.loc 1 180 12 view .LVU480
 1452 0046 4FF0FF30 		mov	r0, #-1
 1453              	.LVL113:
 180:/home/takumi/takumique/main/reservoir/app/cmcis/mat.c ****   }
 1454              		.loc 1 180 12 view .LVU481
 1455 004a 7047     		bx	lr
 1456              	.LVL114:
 1457              	.L132:
 183:/home/takumi/takumique/main/reservoir/app/cmcis/mat.c ****   }
 1458              		.loc 1 183 12 view .LVU482
 1459 004c 4FF0FF30 		mov	r0, #-1
 1460              	.LVL115:
 1461              		.loc 1 191 1 view .LVU483
 1462 0050 7047     		bx	lr
 1463              		.cfi_endproc
 1464              	.LFE152:
 1466              		.section	.text.mat_f32_identity,"ax",%progbits
 1467              		.align	1
 1468              		.global	mat_f32_identity
 1469              		.syntax unified
 1470              		.thumb
 1471              		.thumb_func
 1472              		.fpu fpv4-sp-d16
 1474              	mat_f32_identity:
 1475              	.LVL116:
 1476              	.LFB153:
 192:/home/takumi/takumique/main/reservoir/app/cmcis/mat.c **** 
 193:/home/takumi/takumique/main/reservoir/app/cmcis/mat.c **** int mat_f32_identity(mat_f32_t *c, f32_t l) {
 1477              		.loc 1 193 45 is_stmt 1 view -0
 1478              		.cfi_startproc
 1479              		@ args = 0, pretend = 0, frame = 0
 1480              		@ frame_needed = 0, uses_anonymous_args = 0
 194:/home/takumi/takumique/main/reservoir/app/cmcis/mat.c **** #ifdef CHECK_ARGS
 195:/home/takumi/takumique/main/reservoir/app/cmcis/mat.c ****   if(c->n != c->m) {
 1481              		.loc 1 195 3 view .LVU485
 1482              		.loc 1 195 7 is_stmt 0 view .LVU486
 1483 0000 4268     		ldr	r2, [r0, #4]
 1484              		.loc 1 195 15 view .LVU487
 1485 0002 8368     		ldr	r3, [r0, #8]
 1486              		.loc 1 195 5 view .LVU488
 1487 0004 9A42     		cmp	r2, r3
 1488 0006 16D1     		bne	.L141
 193:/home/takumi/takumique/main/reservoir/app/cmcis/mat.c **** #ifdef CHECK_ARGS
 1489              		.loc 1 193 45 view .LVU489
 1490 0008 70B5     		push	{r4, r5, r6, lr}
 1491              	.LCFI13:
 1492              		.cfi_def_cfa_offset 16
 1493              		.cfi_offset 4, -16
 1494              		.cfi_offset 5, -12
 1495              		.cfi_offset 6, -8
ARM GAS  /tmp/ccgNCQ0i.s 			page 36


 1496              		.cfi_offset 14, -4
 1497 000a 0546     		mov	r5, r0
 1498 000c 10EE106A 		vmov	r6, s0
 196:/home/takumi/takumique/main/reservoir/app/cmcis/mat.c ****     return -1;
 197:/home/takumi/takumique/main/reservoir/app/cmcis/mat.c ****   }
 198:/home/takumi/takumique/main/reservoir/app/cmcis/mat.c **** #endif
 199:/home/takumi/takumique/main/reservoir/app/cmcis/mat.c ****   c->t = 0;
 1499              		.loc 1 199 3 is_stmt 1 view .LVU490
 1500              		.loc 1 199 8 is_stmt 0 view .LVU491
 1501 0010 0024     		movs	r4, #0
 1502 0012 C460     		str	r4, [r0, #12]
 200:/home/takumi/takumique/main/reservoir/app/cmcis/mat.c ****   mat_f32_zeros(c);
 1503              		.loc 1 200 3 is_stmt 1 view .LVU492
 1504 0014 FFF7FEFF 		bl	mat_f32_zeros
 1505              	.LVL117:
 201:/home/takumi/takumique/main/reservoir/app/cmcis/mat.c ****   for(unsigned i = 0; i < c->n; i++) {
 1506              		.loc 1 201 3 view .LVU493
 1507              	.LBB37:
 1508              		.loc 1 201 7 view .LVU494
 1509              		.loc 1 201 16 is_stmt 0 view .LVU495
 1510 0018 2346     		mov	r3, r4
 1511              		.loc 1 201 3 view .LVU496
 1512 001a 07E0     		b	.L139
 1513              	.LVL118:
 1514              	.L140:
 202:/home/takumi/takumique/main/reservoir/app/cmcis/mat.c ****     *_MAT(*c, i, i) = l;
 1515              		.loc 1 202 5 is_stmt 1 discriminator 3 view .LVU497
 1516              		.loc 1 202 6 is_stmt 0 discriminator 3 view .LVU498
 1517 001c 2A68     		ldr	r2, [r5]
 1518 001e A968     		ldr	r1, [r5, #8]
 1519 0020 01FB0331 		mla	r1, r1, r3, r3
 1520 0024 02EB8102 		add	r2, r2, r1, lsl #2
 1521              		.loc 1 202 21 discriminator 3 view .LVU499
 1522 0028 1660     		str	r6, [r2]	@ float
 201:/home/takumi/takumique/main/reservoir/app/cmcis/mat.c ****   for(unsigned i = 0; i < c->n; i++) {
 1523              		.loc 1 201 33 is_stmt 1 discriminator 3 view .LVU500
 201:/home/takumi/takumique/main/reservoir/app/cmcis/mat.c ****   for(unsigned i = 0; i < c->n; i++) {
 1524              		.loc 1 201 34 is_stmt 0 discriminator 3 view .LVU501
 1525 002a 0133     		adds	r3, r3, #1
 1526              	.LVL119:
 1527              	.L139:
 201:/home/takumi/takumique/main/reservoir/app/cmcis/mat.c ****   for(unsigned i = 0; i < c->n; i++) {
 1528              		.loc 1 201 23 is_stmt 1 discriminator 1 view .LVU502
 201:/home/takumi/takumique/main/reservoir/app/cmcis/mat.c ****   for(unsigned i = 0; i < c->n; i++) {
 1529              		.loc 1 201 28 is_stmt 0 discriminator 1 view .LVU503
 1530 002c 6A68     		ldr	r2, [r5, #4]
 201:/home/takumi/takumique/main/reservoir/app/cmcis/mat.c ****   for(unsigned i = 0; i < c->n; i++) {
 1531              		.loc 1 201 3 discriminator 1 view .LVU504
 1532 002e 9A42     		cmp	r2, r3
 1533 0030 F4D8     		bhi	.L140
 1534              	.LBE37:
 203:/home/takumi/takumique/main/reservoir/app/cmcis/mat.c ****   }
 204:/home/takumi/takumique/main/reservoir/app/cmcis/mat.c ****   return 0;
 1535              		.loc 1 204 10 view .LVU505
 1536 0032 0020     		movs	r0, #0
 205:/home/takumi/takumique/main/reservoir/app/cmcis/mat.c **** }
 1537              		.loc 1 205 1 view .LVU506
ARM GAS  /tmp/ccgNCQ0i.s 			page 37


 1538 0034 70BD     		pop	{r4, r5, r6, pc}
 1539              	.LVL120:
 1540              	.L141:
 1541              	.LCFI14:
 1542              		.cfi_def_cfa_offset 0
 1543              		.cfi_restore 4
 1544              		.cfi_restore 5
 1545              		.cfi_restore 6
 1546              		.cfi_restore 14
 196:/home/takumi/takumique/main/reservoir/app/cmcis/mat.c ****   }
 1547              		.loc 1 196 12 view .LVU507
 1548 0036 4FF0FF30 		mov	r0, #-1
 1549              	.LVL121:
 1550              		.loc 1 205 1 view .LVU508
 1551 003a 7047     		bx	lr
 1552              		.cfi_endproc
 1553              	.LFE153:
 1555              		.section	.text.mat_f32_inv,"ax",%progbits
 1556              		.align	1
 1557              		.global	mat_f32_inv
 1558              		.syntax unified
 1559              		.thumb
 1560              		.thumb_func
 1561              		.fpu fpv4-sp-d16
 1563              	mat_f32_inv:
 1564              	.LVL122:
 1565              	.LFB154:
 206:/home/takumi/takumique/main/reservoir/app/cmcis/mat.c **** 
 207:/home/takumi/takumique/main/reservoir/app/cmcis/mat.c **** int mat_f32_inv(mat_f32_t *inv_a, mat_f32_t *a) {
 1566              		.loc 1 207 49 is_stmt 1 view -0
 1567              		.cfi_startproc
 1568              		@ args = 0, pretend = 0, frame = 0
 1569              		@ frame_needed = 0, uses_anonymous_args = 0
 1570              		.loc 1 207 49 is_stmt 0 view .LVU510
 1571 0000 F8B5     		push	{r3, r4, r5, r6, r7, lr}
 1572              	.LCFI15:
 1573              		.cfi_def_cfa_offset 24
 1574              		.cfi_offset 3, -24
 1575              		.cfi_offset 4, -20
 1576              		.cfi_offset 5, -16
 1577              		.cfi_offset 6, -12
 1578              		.cfi_offset 7, -8
 1579              		.cfi_offset 14, -4
 208:/home/takumi/takumique/main/reservoir/app/cmcis/mat.c **** #ifdef CHECK_ARGS
 209:/home/takumi/takumique/main/reservoir/app/cmcis/mat.c ****   if(inv_a->n != a->n) {
 1580              		.loc 1 209 3 is_stmt 1 view .LVU511
 1581              		.loc 1 209 11 is_stmt 0 view .LVU512
 1582 0002 4268     		ldr	r2, [r0, #4]
 1583              		.loc 1 209 19 view .LVU513
 1584 0004 4B68     		ldr	r3, [r1, #4]
 1585              		.loc 1 209 5 view .LVU514
 1586 0006 9A42     		cmp	r2, r3
 1587 0008 40F0F380 		bne	.L166
 1588 000c 0446     		mov	r4, r0
 1589 000e 0D46     		mov	r5, r1
 210:/home/takumi/takumique/main/reservoir/app/cmcis/mat.c ****     return -1;
 211:/home/takumi/takumique/main/reservoir/app/cmcis/mat.c ****   }
ARM GAS  /tmp/ccgNCQ0i.s 			page 38


 212:/home/takumi/takumique/main/reservoir/app/cmcis/mat.c ****   if(inv_a->m != a->m) {
 1590              		.loc 1 212 3 is_stmt 1 view .LVU515
 1591              		.loc 1 212 11 is_stmt 0 view .LVU516
 1592 0010 8368     		ldr	r3, [r0, #8]
 1593              		.loc 1 212 19 view .LVU517
 1594 0012 8968     		ldr	r1, [r1, #8]
 1595              	.LVL123:
 1596              		.loc 1 212 5 view .LVU518
 1597 0014 8B42     		cmp	r3, r1
 1598 0016 40F0EF80 		bne	.L167
 213:/home/takumi/takumique/main/reservoir/app/cmcis/mat.c ****     return -1;
 214:/home/takumi/takumique/main/reservoir/app/cmcis/mat.c ****   }
 215:/home/takumi/takumique/main/reservoir/app/cmcis/mat.c ****   if(inv_a->n != inv_a->m) {
 1599              		.loc 1 215 3 is_stmt 1 view .LVU519
 1600              		.loc 1 215 5 is_stmt 0 view .LVU520
 1601 001a 9A42     		cmp	r2, r3
 1602 001c 40F0EF80 		bne	.L168
 216:/home/takumi/takumique/main/reservoir/app/cmcis/mat.c ****     return -1;
 217:/home/takumi/takumique/main/reservoir/app/cmcis/mat.c ****   }
 218:/home/takumi/takumique/main/reservoir/app/cmcis/mat.c **** #endif
 219:/home/takumi/takumique/main/reservoir/app/cmcis/mat.c ****   float temp;
 1603              		.loc 1 219 3 is_stmt 1 view .LVU521
 220:/home/takumi/takumique/main/reservoir/app/cmcis/mat.c ****   mat_f32_identity(inv_a, 1.0f);
 1604              		.loc 1 220 3 view .LVU522
 1605 0020 B7EE000A 		vmov.f32	s0, #1.0e+0
 1606 0024 FFF7FEFF 		bl	mat_f32_identity
 1607              	.LVL124:
 221:/home/takumi/takumique/main/reservoir/app/cmcis/mat.c ****   if(a->t) {
 1608              		.loc 1 221 3 view .LVU523
 1609              		.loc 1 221 7 is_stmt 0 view .LVU524
 1610 0028 D5F80CC0 		ldr	ip, [r5, #12]
 1611              		.loc 1 221 5 view .LVU525
 1612 002c BCF1000F 		cmp	ip, #0
 1613 0030 6DD1     		bne	.L169
 1614              	.LBB38:
 222:/home/takumi/takumique/main/reservoir/app/cmcis/mat.c ****     for(unsigned i = 0; i < inv_a->n; i++) {
 223:/home/takumi/takumique/main/reservoir/app/cmcis/mat.c ****       temp = 1.0f / *_MAT_T(*a, i, i);
 224:/home/takumi/takumique/main/reservoir/app/cmcis/mat.c ****       for(unsigned j = 0; j < inv_a->n; j++) {
 225:/home/takumi/takumique/main/reservoir/app/cmcis/mat.c ****         *_MAT_T(*a, i, j) *= temp;
 226:/home/takumi/takumique/main/reservoir/app/cmcis/mat.c ****         *_MAT(*inv_a, i, j) *= temp;
 227:/home/takumi/takumique/main/reservoir/app/cmcis/mat.c ****       }
 228:/home/takumi/takumique/main/reservoir/app/cmcis/mat.c ****       for(unsigned j = 0; j < inv_a->n; j++) {
 229:/home/takumi/takumique/main/reservoir/app/cmcis/mat.c ****         if(i != j) {
 230:/home/takumi/takumique/main/reservoir/app/cmcis/mat.c ****           temp = *_MAT_T(*a, j, i);
 231:/home/takumi/takumique/main/reservoir/app/cmcis/mat.c ****           for(unsigned k = 0; k < inv_a->n; k++) {
 232:/home/takumi/takumique/main/reservoir/app/cmcis/mat.c ****             *_MAT_T(*a, j, k) -= *_MAT_T(*a, i, k) * temp;
 233:/home/takumi/takumique/main/reservoir/app/cmcis/mat.c ****             *_MAT(*inv_a, j, k) -= *_MAT(*inv_a, i, k) * temp;
 234:/home/takumi/takumique/main/reservoir/app/cmcis/mat.c ****           }
 235:/home/takumi/takumique/main/reservoir/app/cmcis/mat.c ****         }
 236:/home/takumi/takumique/main/reservoir/app/cmcis/mat.c ****       }
 237:/home/takumi/takumique/main/reservoir/app/cmcis/mat.c ****     }
 238:/home/takumi/takumique/main/reservoir/app/cmcis/mat.c ****   } else {
 239:/home/takumi/takumique/main/reservoir/app/cmcis/mat.c ****     for(unsigned i = 0; i < inv_a->n; i++) {
 1615              		.loc 1 239 18 view .LVU526
 1616 0032 6746     		mov	r7, ip
 1617 0034 AEE0     		b	.L149
 1618              	.LVL125:
ARM GAS  /tmp/ccgNCQ0i.s 			page 39


 1619              	.L173:
 1620              		.loc 1 239 18 view .LVU527
 1621              	.LBE38:
 1622              	.LBB43:
 1623              	.LBB44:
 228:/home/takumi/takumique/main/reservoir/app/cmcis/mat.c ****         if(i != j) {
 1624              		.loc 1 228 20 view .LVU528
 1625 0036 0026     		movs	r6, #0
 1626 0038 2CE0     		b	.L152
 1627              	.LVL126:
 1628              	.L155:
 1629              	.LBB45:
 232:/home/takumi/takumique/main/reservoir/app/cmcis/mat.c ****             *_MAT(*inv_a, j, k) -= *_MAT(*inv_a, i, k) * temp;
 1630              		.loc 1 232 13 is_stmt 1 discriminator 3 view .LVU529
 232:/home/takumi/takumique/main/reservoir/app/cmcis/mat.c ****             *_MAT(*inv_a, j, k) -= *_MAT(*inv_a, i, k) * temp;
 1631              		.loc 1 232 14 is_stmt 0 discriminator 3 view .LVU530
 1632 003a 2868     		ldr	r0, [r5]
 1633 003c 6B68     		ldr	r3, [r5, #4]
 232:/home/takumi/takumique/main/reservoir/app/cmcis/mat.c ****             *_MAT(*inv_a, j, k) -= *_MAT(*inv_a, i, k) * temp;
 1634              		.loc 1 232 31 discriminator 3 view .LVU531
 1635 003e 02FB03F3 		mul	r3, r2, r3
 1636 0042 9919     		adds	r1, r3, r6
 1637 0044 00EB8101 		add	r1, r0, r1, lsl #2
 232:/home/takumi/takumique/main/reservoir/app/cmcis/mat.c ****             *_MAT(*inv_a, j, k) -= *_MAT(*inv_a, i, k) * temp;
 1638              		.loc 1 232 35 discriminator 3 view .LVU532
 1639 0048 3B44     		add	r3, r3, r7
 1640 004a 00EB8303 		add	r3, r0, r3, lsl #2
 232:/home/takumi/takumique/main/reservoir/app/cmcis/mat.c ****             *_MAT(*inv_a, j, k) -= *_MAT(*inv_a, i, k) * temp;
 1641              		.loc 1 232 34 discriminator 3 view .LVU533
 1642 004e D3ED007A 		vldr.32	s15, [r3]
 232:/home/takumi/takumique/main/reservoir/app/cmcis/mat.c ****             *_MAT(*inv_a, j, k) -= *_MAT(*inv_a, i, k) * temp;
 1643              		.loc 1 232 52 discriminator 3 view .LVU534
 1644 0052 27EEA67A 		vmul.f32	s14, s15, s13
 232:/home/takumi/takumique/main/reservoir/app/cmcis/mat.c ****             *_MAT(*inv_a, j, k) -= *_MAT(*inv_a, i, k) * temp;
 1645              		.loc 1 232 31 discriminator 3 view .LVU535
 1646 0056 D1ED007A 		vldr.32	s15, [r1]
 1647 005a 77EEC77A 		vsub.f32	s15, s15, s14
 1648 005e C1ED007A 		vstr.32	s15, [r1]
 233:/home/takumi/takumique/main/reservoir/app/cmcis/mat.c ****           }
 1649              		.loc 1 233 13 is_stmt 1 discriminator 3 view .LVU536
 233:/home/takumi/takumique/main/reservoir/app/cmcis/mat.c ****           }
 1650              		.loc 1 233 14 is_stmt 0 discriminator 3 view .LVU537
 1651 0062 2168     		ldr	r1, [r4]
 1652 0064 A068     		ldr	r0, [r4, #8]
 233:/home/takumi/takumique/main/reservoir/app/cmcis/mat.c ****           }
 1653              		.loc 1 233 33 discriminator 3 view .LVU538
 1654 0066 06FB0023 		mla	r3, r6, r0, r2
 1655 006a 01EB8303 		add	r3, r1, r3, lsl #2
 233:/home/takumi/takumique/main/reservoir/app/cmcis/mat.c ****           }
 1656              		.loc 1 233 37 discriminator 3 view .LVU539
 1657 006e 07FB0020 		mla	r0, r7, r0, r2
 1658 0072 01EB8001 		add	r1, r1, r0, lsl #2
 233:/home/takumi/takumique/main/reservoir/app/cmcis/mat.c ****           }
 1659              		.loc 1 233 36 discriminator 3 view .LVU540
 1660 0076 D1ED007A 		vldr.32	s15, [r1]
 233:/home/takumi/takumique/main/reservoir/app/cmcis/mat.c ****           }
 1661              		.loc 1 233 56 discriminator 3 view .LVU541
ARM GAS  /tmp/ccgNCQ0i.s 			page 40


 1662 007a 27EEA67A 		vmul.f32	s14, s15, s13
 233:/home/takumi/takumique/main/reservoir/app/cmcis/mat.c ****           }
 1663              		.loc 1 233 33 discriminator 3 view .LVU542
 1664 007e D3ED007A 		vldr.32	s15, [r3]
 1665 0082 77EEC77A 		vsub.f32	s15, s15, s14
 1666 0086 C3ED007A 		vstr.32	s15, [r3]
 231:/home/takumi/takumique/main/reservoir/app/cmcis/mat.c ****             *_MAT_T(*a, j, k) -= *_MAT_T(*a, i, k) * temp;
 1667              		.loc 1 231 45 is_stmt 1 discriminator 3 view .LVU543
 231:/home/takumi/takumique/main/reservoir/app/cmcis/mat.c ****             *_MAT_T(*a, j, k) -= *_MAT_T(*a, i, k) * temp;
 1668              		.loc 1 231 46 is_stmt 0 discriminator 3 view .LVU544
 1669 008a 0132     		adds	r2, r2, #1
 1670              	.LVL127:
 1671              	.L154:
 231:/home/takumi/takumique/main/reservoir/app/cmcis/mat.c ****             *_MAT_T(*a, j, k) -= *_MAT_T(*a, i, k) * temp;
 1672              		.loc 1 231 31 is_stmt 1 discriminator 1 view .LVU545
 231:/home/takumi/takumique/main/reservoir/app/cmcis/mat.c ****             *_MAT_T(*a, j, k) -= *_MAT_T(*a, i, k) * temp;
 1673              		.loc 1 231 40 is_stmt 0 discriminator 1 view .LVU546
 1674 008c 6368     		ldr	r3, [r4, #4]
 231:/home/takumi/takumique/main/reservoir/app/cmcis/mat.c ****             *_MAT_T(*a, j, k) -= *_MAT_T(*a, i, k) * temp;
 1675              		.loc 1 231 11 discriminator 1 view .LVU547
 1676 008e 9342     		cmp	r3, r2
 1677 0090 D3D8     		bhi	.L155
 1678              	.LVL128:
 1679              	.L153:
 231:/home/takumi/takumique/main/reservoir/app/cmcis/mat.c ****             *_MAT_T(*a, j, k) -= *_MAT_T(*a, i, k) * temp;
 1680              		.loc 1 231 11 discriminator 1 view .LVU548
 1681              	.LBE45:
 228:/home/takumi/takumique/main/reservoir/app/cmcis/mat.c ****         if(i != j) {
 1682              		.loc 1 228 41 is_stmt 1 discriminator 2 view .LVU549
 228:/home/takumi/takumique/main/reservoir/app/cmcis/mat.c ****         if(i != j) {
 1683              		.loc 1 228 42 is_stmt 0 discriminator 2 view .LVU550
 1684 0092 0136     		adds	r6, r6, #1
 1685              	.LVL129:
 1686              	.L152:
 228:/home/takumi/takumique/main/reservoir/app/cmcis/mat.c ****         if(i != j) {
 1687              		.loc 1 228 27 is_stmt 1 discriminator 1 view .LVU551
 228:/home/takumi/takumique/main/reservoir/app/cmcis/mat.c ****         if(i != j) {
 1688              		.loc 1 228 36 is_stmt 0 discriminator 1 view .LVU552
 1689 0094 6368     		ldr	r3, [r4, #4]
 228:/home/takumi/takumique/main/reservoir/app/cmcis/mat.c ****         if(i != j) {
 1690              		.loc 1 228 7 discriminator 1 view .LVU553
 1691 0096 B342     		cmp	r3, r6
 1692 0098 0BD9     		bls	.L171
 229:/home/takumi/takumique/main/reservoir/app/cmcis/mat.c ****           temp = *_MAT_T(*a, j, i);
 1693              		.loc 1 229 9 is_stmt 1 view .LVU554
 229:/home/takumi/takumique/main/reservoir/app/cmcis/mat.c ****           temp = *_MAT_T(*a, j, i);
 1694              		.loc 1 229 11 is_stmt 0 view .LVU555
 1695 009a B742     		cmp	r7, r6
 1696 009c F9D0     		beq	.L153
 230:/home/takumi/takumique/main/reservoir/app/cmcis/mat.c ****           for(unsigned k = 0; k < inv_a->n; k++) {
 1697              		.loc 1 230 11 is_stmt 1 view .LVU556
 230:/home/takumi/takumique/main/reservoir/app/cmcis/mat.c ****           for(unsigned k = 0; k < inv_a->n; k++) {
 1698              		.loc 1 230 19 is_stmt 0 view .LVU557
 1699 009e 2B68     		ldr	r3, [r5]
 1700 00a0 6A68     		ldr	r2, [r5, #4]
 1701 00a2 07FB0262 		mla	r2, r7, r2, r6
 1702 00a6 03EB8203 		add	r3, r3, r2, lsl #2
ARM GAS  /tmp/ccgNCQ0i.s 			page 41


 230:/home/takumi/takumique/main/reservoir/app/cmcis/mat.c ****           for(unsigned k = 0; k < inv_a->n; k++) {
 1703              		.loc 1 230 16 view .LVU558
 1704 00aa D3ED006A 		vldr.32	s13, [r3]
 1705              	.LVL130:
 231:/home/takumi/takumique/main/reservoir/app/cmcis/mat.c ****             *_MAT_T(*a, j, k) -= *_MAT_T(*a, i, k) * temp;
 1706              		.loc 1 231 11 is_stmt 1 view .LVU559
 1707              	.LBB46:
 231:/home/takumi/takumique/main/reservoir/app/cmcis/mat.c ****             *_MAT_T(*a, j, k) -= *_MAT_T(*a, i, k) * temp;
 1708              		.loc 1 231 15 view .LVU560
 231:/home/takumi/takumique/main/reservoir/app/cmcis/mat.c ****             *_MAT_T(*a, j, k) -= *_MAT_T(*a, i, k) * temp;
 1709              		.loc 1 231 24 is_stmt 0 view .LVU561
 1710 00ae 0022     		movs	r2, #0
 231:/home/takumi/takumique/main/reservoir/app/cmcis/mat.c ****             *_MAT_T(*a, j, k) -= *_MAT_T(*a, i, k) * temp;
 1711              		.loc 1 231 11 view .LVU562
 1712 00b0 ECE7     		b	.L154
 1713              	.LVL131:
 1714              	.L171:
 231:/home/takumi/takumique/main/reservoir/app/cmcis/mat.c ****             *_MAT_T(*a, j, k) -= *_MAT_T(*a, i, k) * temp;
 1715              		.loc 1 231 11 view .LVU563
 1716              	.LBE46:
 1717              	.LBE44:
 222:/home/takumi/takumique/main/reservoir/app/cmcis/mat.c ****       temp = 1.0f / *_MAT_T(*a, i, i);
 1718              		.loc 1 222 39 is_stmt 1 discriminator 2 view .LVU564
 222:/home/takumi/takumique/main/reservoir/app/cmcis/mat.c ****       temp = 1.0f / *_MAT_T(*a, i, i);
 1719              		.loc 1 222 40 is_stmt 0 discriminator 2 view .LVU565
 1720 00b2 0137     		adds	r7, r7, #1
 1721              	.LVL132:
 1722              	.L148:
 222:/home/takumi/takumique/main/reservoir/app/cmcis/mat.c ****       temp = 1.0f / *_MAT_T(*a, i, i);
 1723              		.loc 1 222 25 is_stmt 1 discriminator 1 view .LVU566
 222:/home/takumi/takumique/main/reservoir/app/cmcis/mat.c ****       temp = 1.0f / *_MAT_T(*a, i, i);
 1724              		.loc 1 222 34 is_stmt 0 discriminator 1 view .LVU567
 1725 00b4 6368     		ldr	r3, [r4, #4]
 222:/home/takumi/takumique/main/reservoir/app/cmcis/mat.c ****       temp = 1.0f / *_MAT_T(*a, i, i);
 1726              		.loc 1 222 5 discriminator 1 view .LVU568
 1727 00b6 BB42     		cmp	r3, r7
 1728 00b8 2BD9     		bls	.L172
 223:/home/takumi/takumique/main/reservoir/app/cmcis/mat.c ****       for(unsigned j = 0; j < inv_a->n; j++) {
 1729              		.loc 1 223 7 is_stmt 1 view .LVU569
 223:/home/takumi/takumique/main/reservoir/app/cmcis/mat.c ****       for(unsigned j = 0; j < inv_a->n; j++) {
 1730              		.loc 1 223 22 is_stmt 0 view .LVU570
 1731 00ba 2B68     		ldr	r3, [r5]
 1732 00bc 6A68     		ldr	r2, [r5, #4]
 1733 00be 02FB0772 		mla	r2, r2, r7, r7
 1734 00c2 03EB8203 		add	r3, r3, r2, lsl #2
 223:/home/takumi/takumique/main/reservoir/app/cmcis/mat.c ****       for(unsigned j = 0; j < inv_a->n; j++) {
 1735              		.loc 1 223 21 view .LVU571
 1736 00c6 D3ED007A 		vldr.32	s15, [r3]
 223:/home/takumi/takumique/main/reservoir/app/cmcis/mat.c ****       for(unsigned j = 0; j < inv_a->n; j++) {
 1737              		.loc 1 223 12 view .LVU572
 1738 00ca F7EE006A 		vmov.f32	s13, #1.0e+0
 1739 00ce 86EEA77A 		vdiv.f32	s14, s13, s15
 1740              	.LVL133:
 224:/home/takumi/takumique/main/reservoir/app/cmcis/mat.c ****         *_MAT_T(*a, i, j) *= temp;
 1741              		.loc 1 224 7 is_stmt 1 view .LVU573
 1742              	.LBB47:
 224:/home/takumi/takumique/main/reservoir/app/cmcis/mat.c ****         *_MAT_T(*a, i, j) *= temp;
ARM GAS  /tmp/ccgNCQ0i.s 			page 42


 1743              		.loc 1 224 11 view .LVU574
 224:/home/takumi/takumique/main/reservoir/app/cmcis/mat.c ****         *_MAT_T(*a, i, j) *= temp;
 1744              		.loc 1 224 20 is_stmt 0 view .LVU575
 1745 00d2 0023     		movs	r3, #0
 1746              	.LVL134:
 1747              	.L150:
 224:/home/takumi/takumique/main/reservoir/app/cmcis/mat.c ****         *_MAT_T(*a, i, j) *= temp;
 1748              		.loc 1 224 27 is_stmt 1 discriminator 1 view .LVU576
 224:/home/takumi/takumique/main/reservoir/app/cmcis/mat.c ****         *_MAT_T(*a, i, j) *= temp;
 1749              		.loc 1 224 36 is_stmt 0 discriminator 1 view .LVU577
 1750 00d4 6268     		ldr	r2, [r4, #4]
 224:/home/takumi/takumique/main/reservoir/app/cmcis/mat.c ****         *_MAT_T(*a, i, j) *= temp;
 1751              		.loc 1 224 7 discriminator 1 view .LVU578
 1752 00d6 9A42     		cmp	r2, r3
 1753 00d8 ADD9     		bls	.L173
 225:/home/takumi/takumique/main/reservoir/app/cmcis/mat.c ****         *_MAT(*inv_a, i, j) *= temp;
 1754              		.loc 1 225 9 is_stmt 1 discriminator 3 view .LVU579
 225:/home/takumi/takumique/main/reservoir/app/cmcis/mat.c ****         *_MAT(*inv_a, i, j) *= temp;
 1755              		.loc 1 225 10 is_stmt 0 discriminator 3 view .LVU580
 1756 00da 2A68     		ldr	r2, [r5]
 1757 00dc 6968     		ldr	r1, [r5, #4]
 225:/home/takumi/takumique/main/reservoir/app/cmcis/mat.c ****         *_MAT(*inv_a, i, j) *= temp;
 1758              		.loc 1 225 27 discriminator 3 view .LVU581
 1759 00de 03FB0171 		mla	r1, r3, r1, r7
 1760 00e2 02EB8102 		add	r2, r2, r1, lsl #2
 1761 00e6 D2ED007A 		vldr.32	s15, [r2]
 1762 00ea 67EE877A 		vmul.f32	s15, s15, s14
 1763 00ee C2ED007A 		vstr.32	s15, [r2]
 226:/home/takumi/takumique/main/reservoir/app/cmcis/mat.c ****       }
 1764              		.loc 1 226 9 is_stmt 1 discriminator 3 view .LVU582
 226:/home/takumi/takumique/main/reservoir/app/cmcis/mat.c ****       }
 1765              		.loc 1 226 10 is_stmt 0 discriminator 3 view .LVU583
 1766 00f2 2268     		ldr	r2, [r4]
 1767 00f4 A168     		ldr	r1, [r4, #8]
 226:/home/takumi/takumique/main/reservoir/app/cmcis/mat.c ****       }
 1768              		.loc 1 226 29 discriminator 3 view .LVU584
 1769 00f6 07FB0131 		mla	r1, r7, r1, r3
 1770 00fa 02EB8102 		add	r2, r2, r1, lsl #2
 1771 00fe D2ED007A 		vldr.32	s15, [r2]
 1772 0102 67EE877A 		vmul.f32	s15, s15, s14
 1773 0106 C2ED007A 		vstr.32	s15, [r2]
 224:/home/takumi/takumique/main/reservoir/app/cmcis/mat.c ****         *_MAT_T(*a, i, j) *= temp;
 1774              		.loc 1 224 41 is_stmt 1 discriminator 3 view .LVU585
 224:/home/takumi/takumique/main/reservoir/app/cmcis/mat.c ****         *_MAT_T(*a, i, j) *= temp;
 1775              		.loc 1 224 42 is_stmt 0 discriminator 3 view .LVU586
 1776 010a 0133     		adds	r3, r3, #1
 1777              	.LVL135:
 224:/home/takumi/takumique/main/reservoir/app/cmcis/mat.c ****         *_MAT_T(*a, i, j) *= temp;
 1778              		.loc 1 224 42 discriminator 3 view .LVU587
 1779 010c E2E7     		b	.L150
 1780              	.LVL136:
 1781              	.L169:
 224:/home/takumi/takumique/main/reservoir/app/cmcis/mat.c ****         *_MAT_T(*a, i, j) *= temp;
 1782              		.loc 1 224 42 discriminator 3 view .LVU588
 1783              	.LBE47:
 222:/home/takumi/takumique/main/reservoir/app/cmcis/mat.c ****       temp = 1.0f / *_MAT_T(*a, i, i);
 1784              		.loc 1 222 18 view .LVU589
ARM GAS  /tmp/ccgNCQ0i.s 			page 43


 1785 010e 0027     		movs	r7, #0
 1786 0110 D0E7     		b	.L148
 1787              	.LVL137:
 1788              	.L172:
 222:/home/takumi/takumique/main/reservoir/app/cmcis/mat.c ****       temp = 1.0f / *_MAT_T(*a, i, i);
 1789              		.loc 1 222 18 view .LVU590
 1790              	.LBE43:
 240:/home/takumi/takumique/main/reservoir/app/cmcis/mat.c ****       temp = 1.0f / *_MAT(*a, i, i);
 241:/home/takumi/takumique/main/reservoir/app/cmcis/mat.c ****       for(unsigned j = 0; j < inv_a->n; j++) {
 242:/home/takumi/takumique/main/reservoir/app/cmcis/mat.c ****         *_MAT(*a, i, j) *= temp;
 243:/home/takumi/takumique/main/reservoir/app/cmcis/mat.c ****         *_MAT(*inv_a, i, j) *= temp;
 244:/home/takumi/takumique/main/reservoir/app/cmcis/mat.c ****       }
 245:/home/takumi/takumique/main/reservoir/app/cmcis/mat.c ****       for(unsigned j = 0; j < inv_a->n; j++) {
 246:/home/takumi/takumique/main/reservoir/app/cmcis/mat.c ****         if(i != j) {
 247:/home/takumi/takumique/main/reservoir/app/cmcis/mat.c ****           temp = *_MAT(*a, j, i);
 248:/home/takumi/takumique/main/reservoir/app/cmcis/mat.c ****           for(unsigned k = 0; k < inv_a->n; k++) {
 249:/home/takumi/takumique/main/reservoir/app/cmcis/mat.c ****             *_MAT(*a, j, k) -= *_MAT(*a, i, k) * temp;
 250:/home/takumi/takumique/main/reservoir/app/cmcis/mat.c ****             *_MAT(*inv_a, j, k) -= *_MAT(*inv_a, i, k) * temp;
 251:/home/takumi/takumique/main/reservoir/app/cmcis/mat.c ****           }
 252:/home/takumi/takumique/main/reservoir/app/cmcis/mat.c ****         }
 253:/home/takumi/takumique/main/reservoir/app/cmcis/mat.c ****       }
 254:/home/takumi/takumique/main/reservoir/app/cmcis/mat.c ****     }
 255:/home/takumi/takumique/main/reservoir/app/cmcis/mat.c ****   }
 256:/home/takumi/takumique/main/reservoir/app/cmcis/mat.c ****   return 0;
 1791              		.loc 1 256 10 view .LVU591
 1792 0112 0020     		movs	r0, #0
 1793              	.LVL138:
 1794              	.L146:
 257:/home/takumi/takumique/main/reservoir/app/cmcis/mat.c **** }
 1795              		.loc 1 257 1 view .LVU592
 1796 0114 F8BD     		pop	{r3, r4, r5, r6, r7, pc}
 1797              	.LVL139:
 1798              	.L176:
 1799              	.LBB48:
 1800              	.LBB39:
 245:/home/takumi/takumique/main/reservoir/app/cmcis/mat.c ****         if(i != j) {
 1801              		.loc 1 245 20 view .LVU593
 1802 0116 6646     		mov	r6, ip
 1803 0118 2CE0     		b	.L160
 1804              	.LVL140:
 1805              	.L163:
 1806              	.LBB40:
 249:/home/takumi/takumique/main/reservoir/app/cmcis/mat.c ****             *_MAT(*inv_a, j, k) -= *_MAT(*inv_a, i, k) * temp;
 1807              		.loc 1 249 13 is_stmt 1 discriminator 3 view .LVU594
 249:/home/takumi/takumique/main/reservoir/app/cmcis/mat.c ****             *_MAT(*inv_a, j, k) -= *_MAT(*inv_a, i, k) * temp;
 1808              		.loc 1 249 14 is_stmt 0 discriminator 3 view .LVU595
 1809 011a 2968     		ldr	r1, [r5]
 1810 011c A868     		ldr	r0, [r5, #8]
 249:/home/takumi/takumique/main/reservoir/app/cmcis/mat.c ****             *_MAT(*inv_a, j, k) -= *_MAT(*inv_a, i, k) * temp;
 1811              		.loc 1 249 29 discriminator 3 view .LVU596
 1812 011e 06FB0032 		mla	r2, r6, r0, r3
 1813 0122 01EB8202 		add	r2, r1, r2, lsl #2
 249:/home/takumi/takumique/main/reservoir/app/cmcis/mat.c ****             *_MAT(*inv_a, j, k) -= *_MAT(*inv_a, i, k) * temp;
 1814              		.loc 1 249 33 discriminator 3 view .LVU597
 1815 0126 07FB0030 		mla	r0, r7, r0, r3
 1816 012a 01EB8001 		add	r1, r1, r0, lsl #2
 249:/home/takumi/takumique/main/reservoir/app/cmcis/mat.c ****             *_MAT(*inv_a, j, k) -= *_MAT(*inv_a, i, k) * temp;
ARM GAS  /tmp/ccgNCQ0i.s 			page 44


 1817              		.loc 1 249 32 discriminator 3 view .LVU598
 1818 012e D1ED007A 		vldr.32	s15, [r1]
 249:/home/takumi/takumique/main/reservoir/app/cmcis/mat.c ****             *_MAT(*inv_a, j, k) -= *_MAT(*inv_a, i, k) * temp;
 1819              		.loc 1 249 48 discriminator 3 view .LVU599
 1820 0132 27EEA67A 		vmul.f32	s14, s15, s13
 249:/home/takumi/takumique/main/reservoir/app/cmcis/mat.c ****             *_MAT(*inv_a, j, k) -= *_MAT(*inv_a, i, k) * temp;
 1821              		.loc 1 249 29 discriminator 3 view .LVU600
 1822 0136 D2ED007A 		vldr.32	s15, [r2]
 1823 013a 77EEC77A 		vsub.f32	s15, s15, s14
 1824 013e C2ED007A 		vstr.32	s15, [r2]
 250:/home/takumi/takumique/main/reservoir/app/cmcis/mat.c ****           }
 1825              		.loc 1 250 13 is_stmt 1 discriminator 3 view .LVU601
 250:/home/takumi/takumique/main/reservoir/app/cmcis/mat.c ****           }
 1826              		.loc 1 250 14 is_stmt 0 discriminator 3 view .LVU602
 1827 0142 2168     		ldr	r1, [r4]
 1828 0144 A068     		ldr	r0, [r4, #8]
 250:/home/takumi/takumique/main/reservoir/app/cmcis/mat.c ****           }
 1829              		.loc 1 250 33 discriminator 3 view .LVU603
 1830 0146 06FB0032 		mla	r2, r6, r0, r3
 1831 014a 01EB8202 		add	r2, r1, r2, lsl #2
 250:/home/takumi/takumique/main/reservoir/app/cmcis/mat.c ****           }
 1832              		.loc 1 250 37 discriminator 3 view .LVU604
 1833 014e 07FB0030 		mla	r0, r7, r0, r3
 1834 0152 01EB8001 		add	r1, r1, r0, lsl #2
 250:/home/takumi/takumique/main/reservoir/app/cmcis/mat.c ****           }
 1835              		.loc 1 250 36 discriminator 3 view .LVU605
 1836 0156 D1ED007A 		vldr.32	s15, [r1]
 250:/home/takumi/takumique/main/reservoir/app/cmcis/mat.c ****           }
 1837              		.loc 1 250 56 discriminator 3 view .LVU606
 1838 015a 27EEA67A 		vmul.f32	s14, s15, s13
 250:/home/takumi/takumique/main/reservoir/app/cmcis/mat.c ****           }
 1839              		.loc 1 250 33 discriminator 3 view .LVU607
 1840 015e D2ED007A 		vldr.32	s15, [r2]
 1841 0162 77EEC77A 		vsub.f32	s15, s15, s14
 1842 0166 C2ED007A 		vstr.32	s15, [r2]
 248:/home/takumi/takumique/main/reservoir/app/cmcis/mat.c ****             *_MAT(*a, j, k) -= *_MAT(*a, i, k) * temp;
 1843              		.loc 1 248 45 is_stmt 1 discriminator 3 view .LVU608
 248:/home/takumi/takumique/main/reservoir/app/cmcis/mat.c ****             *_MAT(*a, j, k) -= *_MAT(*a, i, k) * temp;
 1844              		.loc 1 248 46 is_stmt 0 discriminator 3 view .LVU609
 1845 016a 0133     		adds	r3, r3, #1
 1846              	.LVL141:
 1847              	.L162:
 248:/home/takumi/takumique/main/reservoir/app/cmcis/mat.c ****             *_MAT(*a, j, k) -= *_MAT(*a, i, k) * temp;
 1848              		.loc 1 248 31 is_stmt 1 discriminator 1 view .LVU610
 248:/home/takumi/takumique/main/reservoir/app/cmcis/mat.c ****             *_MAT(*a, j, k) -= *_MAT(*a, i, k) * temp;
 1849              		.loc 1 248 40 is_stmt 0 discriminator 1 view .LVU611
 1850 016c 6268     		ldr	r2, [r4, #4]
 248:/home/takumi/takumique/main/reservoir/app/cmcis/mat.c ****             *_MAT(*a, j, k) -= *_MAT(*a, i, k) * temp;
 1851              		.loc 1 248 11 discriminator 1 view .LVU612
 1852 016e 9A42     		cmp	r2, r3
 1853 0170 D3D8     		bhi	.L163
 1854              	.LVL142:
 1855              	.L161:
 248:/home/takumi/takumique/main/reservoir/app/cmcis/mat.c ****             *_MAT(*a, j, k) -= *_MAT(*a, i, k) * temp;
 1856              		.loc 1 248 11 discriminator 1 view .LVU613
 1857              	.LBE40:
 245:/home/takumi/takumique/main/reservoir/app/cmcis/mat.c ****         if(i != j) {
ARM GAS  /tmp/ccgNCQ0i.s 			page 45


 1858              		.loc 1 245 41 is_stmt 1 discriminator 2 view .LVU614
 245:/home/takumi/takumique/main/reservoir/app/cmcis/mat.c ****         if(i != j) {
 1859              		.loc 1 245 42 is_stmt 0 discriminator 2 view .LVU615
 1860 0172 0136     		adds	r6, r6, #1
 1861              	.LVL143:
 1862              	.L160:
 245:/home/takumi/takumique/main/reservoir/app/cmcis/mat.c ****         if(i != j) {
 1863              		.loc 1 245 27 is_stmt 1 discriminator 1 view .LVU616
 245:/home/takumi/takumique/main/reservoir/app/cmcis/mat.c ****         if(i != j) {
 1864              		.loc 1 245 36 is_stmt 0 discriminator 1 view .LVU617
 1865 0174 6368     		ldr	r3, [r4, #4]
 245:/home/takumi/takumique/main/reservoir/app/cmcis/mat.c ****         if(i != j) {
 1866              		.loc 1 245 7 discriminator 1 view .LVU618
 1867 0176 B342     		cmp	r3, r6
 1868 0178 0BD9     		bls	.L174
 246:/home/takumi/takumique/main/reservoir/app/cmcis/mat.c ****           temp = *_MAT(*a, j, i);
 1869              		.loc 1 246 9 is_stmt 1 view .LVU619
 246:/home/takumi/takumique/main/reservoir/app/cmcis/mat.c ****           temp = *_MAT(*a, j, i);
 1870              		.loc 1 246 11 is_stmt 0 view .LVU620
 1871 017a B742     		cmp	r7, r6
 1872 017c F9D0     		beq	.L161
 247:/home/takumi/takumique/main/reservoir/app/cmcis/mat.c ****           for(unsigned k = 0; k < inv_a->n; k++) {
 1873              		.loc 1 247 11 is_stmt 1 view .LVU621
 247:/home/takumi/takumique/main/reservoir/app/cmcis/mat.c ****           for(unsigned k = 0; k < inv_a->n; k++) {
 1874              		.loc 1 247 19 is_stmt 0 view .LVU622
 1875 017e 2B68     		ldr	r3, [r5]
 1876 0180 AA68     		ldr	r2, [r5, #8]
 1877 0182 06FB0272 		mla	r2, r6, r2, r7
 1878 0186 03EB8203 		add	r3, r3, r2, lsl #2
 247:/home/takumi/takumique/main/reservoir/app/cmcis/mat.c ****           for(unsigned k = 0; k < inv_a->n; k++) {
 1879              		.loc 1 247 16 view .LVU623
 1880 018a D3ED006A 		vldr.32	s13, [r3]
 1881              	.LVL144:
 248:/home/takumi/takumique/main/reservoir/app/cmcis/mat.c ****             *_MAT(*a, j, k) -= *_MAT(*a, i, k) * temp;
 1882              		.loc 1 248 11 is_stmt 1 view .LVU624
 1883              	.LBB41:
 248:/home/takumi/takumique/main/reservoir/app/cmcis/mat.c ****             *_MAT(*a, j, k) -= *_MAT(*a, i, k) * temp;
 1884              		.loc 1 248 15 view .LVU625
 248:/home/takumi/takumique/main/reservoir/app/cmcis/mat.c ****             *_MAT(*a, j, k) -= *_MAT(*a, i, k) * temp;
 1885              		.loc 1 248 24 is_stmt 0 view .LVU626
 1886 018e 6346     		mov	r3, ip
 248:/home/takumi/takumique/main/reservoir/app/cmcis/mat.c ****             *_MAT(*a, j, k) -= *_MAT(*a, i, k) * temp;
 1887              		.loc 1 248 11 view .LVU627
 1888 0190 ECE7     		b	.L162
 1889              	.LVL145:
 1890              	.L174:
 248:/home/takumi/takumique/main/reservoir/app/cmcis/mat.c ****             *_MAT(*a, j, k) -= *_MAT(*a, i, k) * temp;
 1891              		.loc 1 248 11 view .LVU628
 1892              	.LBE41:
 1893              	.LBE39:
 239:/home/takumi/takumique/main/reservoir/app/cmcis/mat.c ****       temp = 1.0f / *_MAT(*a, i, i);
 1894              		.loc 1 239 39 is_stmt 1 discriminator 2 view .LVU629
 239:/home/takumi/takumique/main/reservoir/app/cmcis/mat.c ****       temp = 1.0f / *_MAT(*a, i, i);
 1895              		.loc 1 239 40 is_stmt 0 discriminator 2 view .LVU630
 1896 0192 0137     		adds	r7, r7, #1
 1897              	.LVL146:
 1898              	.L149:
ARM GAS  /tmp/ccgNCQ0i.s 			page 46


 239:/home/takumi/takumique/main/reservoir/app/cmcis/mat.c ****       temp = 1.0f / *_MAT(*a, i, i);
 1899              		.loc 1 239 25 is_stmt 1 discriminator 1 view .LVU631
 239:/home/takumi/takumique/main/reservoir/app/cmcis/mat.c ****       temp = 1.0f / *_MAT(*a, i, i);
 1900              		.loc 1 239 34 is_stmt 0 discriminator 1 view .LVU632
 1901 0194 6368     		ldr	r3, [r4, #4]
 239:/home/takumi/takumique/main/reservoir/app/cmcis/mat.c ****       temp = 1.0f / *_MAT(*a, i, i);
 1902              		.loc 1 239 5 discriminator 1 view .LVU633
 1903 0196 BB42     		cmp	r3, r7
 1904 0198 29D9     		bls	.L175
 240:/home/takumi/takumique/main/reservoir/app/cmcis/mat.c ****       for(unsigned j = 0; j < inv_a->n; j++) {
 1905              		.loc 1 240 7 is_stmt 1 view .LVU634
 240:/home/takumi/takumique/main/reservoir/app/cmcis/mat.c ****       for(unsigned j = 0; j < inv_a->n; j++) {
 1906              		.loc 1 240 22 is_stmt 0 view .LVU635
 1907 019a 2B68     		ldr	r3, [r5]
 1908 019c AA68     		ldr	r2, [r5, #8]
 1909 019e 02FB0772 		mla	r2, r2, r7, r7
 1910 01a2 03EB8203 		add	r3, r3, r2, lsl #2
 240:/home/takumi/takumique/main/reservoir/app/cmcis/mat.c ****       for(unsigned j = 0; j < inv_a->n; j++) {
 1911              		.loc 1 240 21 view .LVU636
 1912 01a6 D3ED007A 		vldr.32	s15, [r3]
 240:/home/takumi/takumique/main/reservoir/app/cmcis/mat.c ****       for(unsigned j = 0; j < inv_a->n; j++) {
 1913              		.loc 1 240 12 view .LVU637
 1914 01aa F7EE006A 		vmov.f32	s13, #1.0e+0
 1915 01ae 86EEA77A 		vdiv.f32	s14, s13, s15
 1916              	.LVL147:
 241:/home/takumi/takumique/main/reservoir/app/cmcis/mat.c ****         *_MAT(*a, i, j) *= temp;
 1917              		.loc 1 241 7 is_stmt 1 view .LVU638
 1918              	.LBB42:
 241:/home/takumi/takumique/main/reservoir/app/cmcis/mat.c ****         *_MAT(*a, i, j) *= temp;
 1919              		.loc 1 241 11 view .LVU639
 241:/home/takumi/takumique/main/reservoir/app/cmcis/mat.c ****         *_MAT(*a, i, j) *= temp;
 1920              		.loc 1 241 20 is_stmt 0 view .LVU640
 1921 01b2 6346     		mov	r3, ip
 1922              	.LVL148:
 1923              	.L158:
 241:/home/takumi/takumique/main/reservoir/app/cmcis/mat.c ****         *_MAT(*a, i, j) *= temp;
 1924              		.loc 1 241 27 is_stmt 1 discriminator 1 view .LVU641
 241:/home/takumi/takumique/main/reservoir/app/cmcis/mat.c ****         *_MAT(*a, i, j) *= temp;
 1925              		.loc 1 241 36 is_stmt 0 discriminator 1 view .LVU642
 1926 01b4 6268     		ldr	r2, [r4, #4]
 241:/home/takumi/takumique/main/reservoir/app/cmcis/mat.c ****         *_MAT(*a, i, j) *= temp;
 1927              		.loc 1 241 7 discriminator 1 view .LVU643
 1928 01b6 9A42     		cmp	r2, r3
 1929 01b8 ADD9     		bls	.L176
 242:/home/takumi/takumique/main/reservoir/app/cmcis/mat.c ****         *_MAT(*inv_a, i, j) *= temp;
 1930              		.loc 1 242 9 is_stmt 1 discriminator 3 view .LVU644
 242:/home/takumi/takumique/main/reservoir/app/cmcis/mat.c ****         *_MAT(*inv_a, i, j) *= temp;
 1931              		.loc 1 242 10 is_stmt 0 discriminator 3 view .LVU645
 1932 01ba 2A68     		ldr	r2, [r5]
 1933 01bc A968     		ldr	r1, [r5, #8]
 242:/home/takumi/takumique/main/reservoir/app/cmcis/mat.c ****         *_MAT(*inv_a, i, j) *= temp;
 1934              		.loc 1 242 25 discriminator 3 view .LVU646
 1935 01be 07FB0131 		mla	r1, r7, r1, r3
 1936 01c2 02EB8102 		add	r2, r2, r1, lsl #2
 1937 01c6 D2ED007A 		vldr.32	s15, [r2]
 1938 01ca 67EE877A 		vmul.f32	s15, s15, s14
 1939 01ce C2ED007A 		vstr.32	s15, [r2]
ARM GAS  /tmp/ccgNCQ0i.s 			page 47


 243:/home/takumi/takumique/main/reservoir/app/cmcis/mat.c ****       }
 1940              		.loc 1 243 9 is_stmt 1 discriminator 3 view .LVU647
 243:/home/takumi/takumique/main/reservoir/app/cmcis/mat.c ****       }
 1941              		.loc 1 243 10 is_stmt 0 discriminator 3 view .LVU648
 1942 01d2 2268     		ldr	r2, [r4]
 1943 01d4 A168     		ldr	r1, [r4, #8]
 243:/home/takumi/takumique/main/reservoir/app/cmcis/mat.c ****       }
 1944              		.loc 1 243 29 discriminator 3 view .LVU649
 1945 01d6 07FB0131 		mla	r1, r7, r1, r3
 1946 01da 02EB8102 		add	r2, r2, r1, lsl #2
 1947 01de D2ED007A 		vldr.32	s15, [r2]
 1948 01e2 67EE877A 		vmul.f32	s15, s15, s14
 1949 01e6 C2ED007A 		vstr.32	s15, [r2]
 241:/home/takumi/takumique/main/reservoir/app/cmcis/mat.c ****         *_MAT(*a, i, j) *= temp;
 1950              		.loc 1 241 41 is_stmt 1 discriminator 3 view .LVU650
 241:/home/takumi/takumique/main/reservoir/app/cmcis/mat.c ****         *_MAT(*a, i, j) *= temp;
 1951              		.loc 1 241 42 is_stmt 0 discriminator 3 view .LVU651
 1952 01ea 0133     		adds	r3, r3, #1
 1953              	.LVL149:
 241:/home/takumi/takumique/main/reservoir/app/cmcis/mat.c ****         *_MAT(*a, i, j) *= temp;
 1954              		.loc 1 241 42 discriminator 3 view .LVU652
 1955 01ec E2E7     		b	.L158
 1956              	.LVL150:
 1957              	.L175:
 241:/home/takumi/takumique/main/reservoir/app/cmcis/mat.c ****         *_MAT(*a, i, j) *= temp;
 1958              		.loc 1 241 42 discriminator 3 view .LVU653
 1959              	.LBE42:
 1960              	.LBE48:
 256:/home/takumi/takumique/main/reservoir/app/cmcis/mat.c **** }
 1961              		.loc 1 256 10 view .LVU654
 1962 01ee 0020     		movs	r0, #0
 1963              	.LBB49:
 1964 01f0 90E7     		b	.L146
 1965              	.LVL151:
 1966              	.L166:
 256:/home/takumi/takumique/main/reservoir/app/cmcis/mat.c **** }
 1967              		.loc 1 256 10 view .LVU655
 1968              	.LBE49:
 210:/home/takumi/takumique/main/reservoir/app/cmcis/mat.c ****   }
 1969              		.loc 1 210 12 view .LVU656
 1970 01f2 4FF0FF30 		mov	r0, #-1
 1971              	.LVL152:
 210:/home/takumi/takumique/main/reservoir/app/cmcis/mat.c ****   }
 1972              		.loc 1 210 12 view .LVU657
 1973 01f6 8DE7     		b	.L146
 1974              	.LVL153:
 1975              	.L167:
 213:/home/takumi/takumique/main/reservoir/app/cmcis/mat.c ****   }
 1976              		.loc 1 213 12 view .LVU658
 1977 01f8 4FF0FF30 		mov	r0, #-1
 1978              	.LVL154:
 213:/home/takumi/takumique/main/reservoir/app/cmcis/mat.c ****   }
 1979              		.loc 1 213 12 view .LVU659
 1980 01fc 8AE7     		b	.L146
 1981              	.LVL155:
 1982              	.L168:
 216:/home/takumi/takumique/main/reservoir/app/cmcis/mat.c ****   }
ARM GAS  /tmp/ccgNCQ0i.s 			page 48


 1983              		.loc 1 216 12 view .LVU660
 1984 01fe 4FF0FF30 		mov	r0, #-1
 1985              	.LVL156:
 216:/home/takumi/takumique/main/reservoir/app/cmcis/mat.c ****   }
 1986              		.loc 1 216 12 view .LVU661
 1987 0202 87E7     		b	.L146
 1988              		.cfi_endproc
 1989              	.LFE154:
 1991              		.global	__aeabi_f2d
 1992              		.global	__aeabi_dmul
 1993              		.global	__aeabi_d2f
 1994              		.section	.text.f32_random_normal,"ax",%progbits
 1995              		.align	1
 1996              		.global	f32_random_normal
 1997              		.syntax unified
 1998              		.thumb
 1999              		.thumb_func
 2000              		.fpu fpv4-sp-d16
 2002              	f32_random_normal:
 2003              	.LVL157:
 2004              	.LFB155:
 258:/home/takumi/takumique/main/reservoir/app/cmcis/mat.c **** 
 259:/home/takumi/takumique/main/reservoir/app/cmcis/mat.c **** f32_t f32_random_normal(float mu, float sigma) {
 2005              		.loc 1 259 48 is_stmt 1 view -0
 2006              		.cfi_startproc
 2007              		@ args = 0, pretend = 0, frame = 0
 2008              		@ frame_needed = 0, uses_anonymous_args = 0
 2009              		.loc 1 259 48 is_stmt 0 view .LVU663
 2010 0000 38B5     		push	{r3, r4, r5, lr}
 2011              	.LCFI16:
 2012              		.cfi_def_cfa_offset 16
 2013              		.cfi_offset 3, -16
 2014              		.cfi_offset 4, -12
 2015              		.cfi_offset 5, -8
 2016              		.cfi_offset 14, -4
 2017 0002 2DED048B 		vpush.64	{d8, d9}
 2018              	.LCFI17:
 2019              		.cfi_def_cfa_offset 32
 2020              		.cfi_offset 80, -32
 2021              		.cfi_offset 81, -28
 2022              		.cfi_offset 82, -24
 2023              		.cfi_offset 83, -20
 2024 0006 B0EE408A 		vmov.f32	s16, s0
 2025 000a F0EE608A 		vmov.f32	s17, s1
 260:/home/takumi/takumique/main/reservoir/app/cmcis/mat.c ****   float z = sqrt(-2.0f * log((float) random() / RAND_MAX)) * cos(2.0f * M_PI * ((float) random() / 
 2026              		.loc 1 260 3 is_stmt 1 view .LVU664
 2027              		.loc 1 260 38 is_stmt 0 view .LVU665
 2028 000e FFF7FEFF 		bl	random
 2029              	.LVL158:
 2030              		.loc 1 260 38 view .LVU666
 2031 0012 07EE900A 		vmov	s15, r0	@ int
 2032              		.loc 1 260 30 view .LVU667
 2033 0016 F8EEE77A 		vcvt.f32.s32	s15, s15
 2034              		.loc 1 260 47 view .LVU668
 2035 001a 9FED219A 		vldr.32	s18, .L179+8
 2036              		.loc 1 260 26 view .LVU669
 2037 001e 67EE897A 		vmul.f32	s15, s15, s18
ARM GAS  /tmp/ccgNCQ0i.s 			page 49


 2038 0022 17EE900A 		vmov	r0, s15
 2039 0026 FFF7FEFF 		bl	__aeabi_f2d
 2040              	.LVL159:
 2041 002a 41EC100B 		vmov	d0, r0, r1
 2042 002e FFF7FEFF 		bl	log
 2043              	.LVL160:
 2044 0032 51EC100B 		vmov	r0, r1, d0
 2045              		.loc 1 260 13 view .LVU670
 2046 0036 0022     		movs	r2, #0
 2047 0038 4FF04043 		mov	r3, #-1073741824
 2048 003c FFF7FEFF 		bl	__aeabi_dmul
 2049              	.LVL161:
 2050 0040 41EC100B 		vmov	d0, r0, r1
 2051 0044 FFF7FEFF 		bl	sqrt
 2052              	.LVL162:
 2053 0048 55EC104B 		vmov	r4, r5, d0
 2054              		.loc 1 260 89 view .LVU671
 2055 004c FFF7FEFF 		bl	random
 2056              	.LVL163:
 2057 0050 07EE900A 		vmov	s15, r0	@ int
 2058              		.loc 1 260 81 view .LVU672
 2059 0054 F8EEE77A 		vcvt.f32.s32	s15, s15
 2060              		.loc 1 260 98 view .LVU673
 2061 0058 67EE897A 		vmul.f32	s15, s15, s18
 2062 005c 17EE900A 		vmov	r0, s15
 2063 0060 FFF7FEFF 		bl	__aeabi_f2d
 2064              	.LVL164:
 2065              		.loc 1 260 62 view .LVU674
 2066 0064 0CA3     		adr	r3, .L179
 2067 0066 D3E90023 		ldrd	r2, [r3]
 2068 006a FFF7FEFF 		bl	__aeabi_dmul
 2069              	.LVL165:
 2070 006e 41EC100B 		vmov	d0, r0, r1
 2071 0072 FFF7FEFF 		bl	cos
 2072              	.LVL166:
 2073 0076 53EC102B 		vmov	r2, r3, d0
 2074              		.loc 1 260 60 view .LVU675
 2075 007a 2046     		mov	r0, r4
 2076 007c 2946     		mov	r1, r5
 2077 007e FFF7FEFF 		bl	__aeabi_dmul
 2078              	.LVL167:
 2079              		.loc 1 260 9 view .LVU676
 2080 0082 FFF7FEFF 		bl	__aeabi_d2f
 2081              	.LVL168:
 2082 0086 00EE100A 		vmov	s0, r0
 2083              	.LVL169:
 261:/home/takumi/takumique/main/reservoir/app/cmcis/mat.c ****   return mu + sigma * z;
 2084              		.loc 1 261 3 is_stmt 1 view .LVU677
 2085              		.loc 1 261 21 is_stmt 0 view .LVU678
 2086 008a 20EE280A 		vmul.f32	s0, s0, s17
 262:/home/takumi/takumique/main/reservoir/app/cmcis/mat.c **** }
 2087              		.loc 1 262 1 view .LVU679
 2088 008e 30EE080A 		vadd.f32	s0, s0, s16
 2089 0092 BDEC048B 		vldm	sp!, {d8-d9}
 2090              	.LCFI18:
 2091              		.cfi_restore 82
 2092              		.cfi_restore 83
ARM GAS  /tmp/ccgNCQ0i.s 			page 50


 2093              		.cfi_restore 80
 2094              		.cfi_restore 81
 2095              		.cfi_def_cfa_offset 16
 2096              	.LVL170:
 2097              		.loc 1 262 1 view .LVU680
 2098 0096 38BD     		pop	{r3, r4, r5, pc}
 2099              	.L180:
 2100              		.align	3
 2101              	.L179:
 2102 0098 182D4454 		.word	1413754136
 2103 009c FB211940 		.word	1075388923
 2104 00a0 00000030 		.word	805306368
 2105              		.cfi_endproc
 2106              	.LFE155:
 2108              		.section	.text.mat_f32_random_normal,"ax",%progbits
 2109              		.align	1
 2110              		.global	mat_f32_random_normal
 2111              		.syntax unified
 2112              		.thumb
 2113              		.thumb_func
 2114              		.fpu fpv4-sp-d16
 2116              	mat_f32_random_normal:
 2117              	.LVL171:
 2118              	.LFB156:
 263:/home/takumi/takumique/main/reservoir/app/cmcis/mat.c **** 
 264:/home/takumi/takumique/main/reservoir/app/cmcis/mat.c **** void mat_f32_random_normal(mat_f32_t *c, float mu, float sigma) {
 2119              		.loc 1 264 65 is_stmt 1 view -0
 2120              		.cfi_startproc
 2121              		@ args = 0, pretend = 0, frame = 0
 2122              		@ frame_needed = 0, uses_anonymous_args = 0
 2123              		.loc 1 264 65 is_stmt 0 view .LVU682
 2124 0000 F8B5     		push	{r3, r4, r5, r6, r7, lr}
 2125              	.LCFI19:
 2126              		.cfi_def_cfa_offset 24
 2127              		.cfi_offset 3, -24
 2128              		.cfi_offset 4, -20
 2129              		.cfi_offset 5, -16
 2130              		.cfi_offset 6, -12
 2131              		.cfi_offset 7, -8
 2132              		.cfi_offset 14, -4
 2133 0002 2DED028B 		vpush.64	{d8}
 2134              	.LCFI20:
 2135              		.cfi_def_cfa_offset 32
 2136              		.cfi_offset 80, -32
 2137              		.cfi_offset 81, -28
 2138 0006 0646     		mov	r6, r0
 2139 0008 F0EE408A 		vmov.f32	s17, s0
 2140 000c B0EE608A 		vmov.f32	s16, s1
 265:/home/takumi/takumique/main/reservoir/app/cmcis/mat.c ****   c->t = 0;
 2141              		.loc 1 265 3 is_stmt 1 view .LVU683
 2142              		.loc 1 265 8 is_stmt 0 view .LVU684
 2143 0010 0027     		movs	r7, #0
 2144 0012 C760     		str	r7, [r0, #12]
 266:/home/takumi/takumique/main/reservoir/app/cmcis/mat.c ****   for(unsigned n = 0; n < c->n; n++) {
 2145              		.loc 1 266 3 is_stmt 1 view .LVU685
 2146              	.LBB50:
 2147              		.loc 1 266 7 view .LVU686
ARM GAS  /tmp/ccgNCQ0i.s 			page 51


 2148              	.LVL172:
 2149              		.loc 1 266 3 is_stmt 0 view .LVU687
 2150 0014 11E0     		b	.L182
 2151              	.LVL173:
 2152              	.L183:
 2153              	.LBB51:
 267:/home/takumi/takumique/main/reservoir/app/cmcis/mat.c ****     for(unsigned m = 0; m < c->m; m++) {
 268:/home/takumi/takumique/main/reservoir/app/cmcis/mat.c ****       *_MAT(*c, n, m) = f32_random_normal(mu, sigma);
 2154              		.loc 1 268 7 is_stmt 1 discriminator 3 view .LVU688
 2155              		.loc 1 268 8 is_stmt 0 discriminator 3 view .LVU689
 2156 0016 3568     		ldr	r5, [r6]
 2157 0018 07FB0343 		mla	r3, r7, r3, r4
 2158 001c 05EB8305 		add	r5, r5, r3, lsl #2
 2159              		.loc 1 268 25 discriminator 3 view .LVU690
 2160 0020 F0EE480A 		vmov.f32	s1, s16
 2161 0024 B0EE680A 		vmov.f32	s0, s17
 2162 0028 FFF7FEFF 		bl	f32_random_normal
 2163              	.LVL174:
 2164              		.loc 1 268 23 discriminator 3 view .LVU691
 2165 002c 85ED000A 		vstr.32	s0, [r5]
 267:/home/takumi/takumique/main/reservoir/app/cmcis/mat.c ****     for(unsigned m = 0; m < c->m; m++) {
 2166              		.loc 1 267 35 is_stmt 1 discriminator 3 view .LVU692
 267:/home/takumi/takumique/main/reservoir/app/cmcis/mat.c ****     for(unsigned m = 0; m < c->m; m++) {
 2167              		.loc 1 267 36 is_stmt 0 discriminator 3 view .LVU693
 2168 0030 0134     		adds	r4, r4, #1
 2169              	.LVL175:
 2170              	.L184:
 267:/home/takumi/takumique/main/reservoir/app/cmcis/mat.c ****     for(unsigned m = 0; m < c->m; m++) {
 2171              		.loc 1 267 25 is_stmt 1 discriminator 1 view .LVU694
 267:/home/takumi/takumique/main/reservoir/app/cmcis/mat.c ****     for(unsigned m = 0; m < c->m; m++) {
 2172              		.loc 1 267 30 is_stmt 0 discriminator 1 view .LVU695
 2173 0032 B368     		ldr	r3, [r6, #8]
 267:/home/takumi/takumique/main/reservoir/app/cmcis/mat.c ****     for(unsigned m = 0; m < c->m; m++) {
 2174              		.loc 1 267 5 discriminator 1 view .LVU696
 2175 0034 A342     		cmp	r3, r4
 2176 0036 EED8     		bhi	.L183
 2177              	.LBE51:
 266:/home/takumi/takumique/main/reservoir/app/cmcis/mat.c ****   for(unsigned n = 0; n < c->n; n++) {
 2178              		.loc 1 266 33 is_stmt 1 discriminator 2 view .LVU697
 266:/home/takumi/takumique/main/reservoir/app/cmcis/mat.c ****   for(unsigned n = 0; n < c->n; n++) {
 2179              		.loc 1 266 34 is_stmt 0 discriminator 2 view .LVU698
 2180 0038 0137     		adds	r7, r7, #1
 2181              	.LVL176:
 2182              	.L182:
 266:/home/takumi/takumique/main/reservoir/app/cmcis/mat.c ****   for(unsigned n = 0; n < c->n; n++) {
 2183              		.loc 1 266 23 is_stmt 1 discriminator 1 view .LVU699
 266:/home/takumi/takumique/main/reservoir/app/cmcis/mat.c ****   for(unsigned n = 0; n < c->n; n++) {
 2184              		.loc 1 266 28 is_stmt 0 discriminator 1 view .LVU700
 2185 003a 7368     		ldr	r3, [r6, #4]
 266:/home/takumi/takumique/main/reservoir/app/cmcis/mat.c ****   for(unsigned n = 0; n < c->n; n++) {
 2186              		.loc 1 266 3 discriminator 1 view .LVU701
 2187 003c BB42     		cmp	r3, r7
 2188 003e 01D9     		bls	.L187
 2189              	.LBB52:
 267:/home/takumi/takumique/main/reservoir/app/cmcis/mat.c ****     for(unsigned m = 0; m < c->m; m++) {
 2190              		.loc 1 267 18 view .LVU702
 2191 0040 0024     		movs	r4, #0
ARM GAS  /tmp/ccgNCQ0i.s 			page 52


 2192 0042 F6E7     		b	.L184
 2193              	.L187:
 2194              	.LBE52:
 2195              	.LBE50:
 269:/home/takumi/takumique/main/reservoir/app/cmcis/mat.c ****     }
 270:/home/takumi/takumique/main/reservoir/app/cmcis/mat.c ****   }
 271:/home/takumi/takumique/main/reservoir/app/cmcis/mat.c **** }
 2196              		.loc 1 271 1 view .LVU703
 2197 0044 BDEC028B 		vldm	sp!, {d8}
 2198              	.LCFI21:
 2199              		.cfi_restore 80
 2200              		.cfi_restore 81
 2201              		.cfi_def_cfa_offset 24
 2202              	.LVL177:
 2203              		.loc 1 271 1 view .LVU704
 2204 0048 F8BD     		pop	{r3, r4, r5, r6, r7, pc}
 2205              		.loc 1 271 1 view .LVU705
 2206              		.cfi_endproc
 2207              	.LFE156:
 2209              		.section	.text.mat_f32_max_abs_eigenval,"ax",%progbits
 2210              		.align	1
 2211              		.global	mat_f32_max_abs_eigenval
 2212              		.syntax unified
 2213              		.thumb
 2214              		.thumb_func
 2215              		.fpu fpv4-sp-d16
 2217              	mat_f32_max_abs_eigenval:
 2218              	.LVL178:
 2219              	.LFB157:
 272:/home/takumi/takumique/main/reservoir/app/cmcis/mat.c **** 
 273:/home/takumi/takumique/main/reservoir/app/cmcis/mat.c **** float mat_f32_max_abs_eigenval(mat_f32_t *a, mat_f32_t *x, mat_f32_t *y, unsigned lim) {
 2220              		.loc 1 273 88 is_stmt 1 view -0
 2221              		.cfi_startproc
 2222              		@ args = 0, pretend = 0, frame = 0
 2223              		@ frame_needed = 0, uses_anonymous_args = 0
 2224              		.loc 1 273 88 is_stmt 0 view .LVU707
 2225 0000 2DE9F041 		push	{r4, r5, r6, r7, r8, lr}
 2226              	.LCFI22:
 2227              		.cfi_def_cfa_offset 24
 2228              		.cfi_offset 4, -24
 2229              		.cfi_offset 5, -20
 2230              		.cfi_offset 6, -16
 2231              		.cfi_offset 7, -12
 2232              		.cfi_offset 8, -8
 2233              		.cfi_offset 14, -4
 274:/home/takumi/takumique/main/reservoir/app/cmcis/mat.c **** #ifdef CHECK_ARGS
 275:/home/takumi/takumique/main/reservoir/app/cmcis/mat.c ****   if(a->n != a->m) {
 2234              		.loc 1 275 3 is_stmt 1 view .LVU708
 2235              		.loc 1 275 7 is_stmt 0 view .LVU709
 2236 0004 4568     		ldr	r5, [r0, #4]
 2237              		.loc 1 275 15 view .LVU710
 2238 0006 8468     		ldr	r4, [r0, #8]
 2239              		.loc 1 275 5 view .LVU711
 2240 0008 A542     		cmp	r5, r4
 2241 000a 40F08680 		bne	.L202
 276:/home/takumi/takumique/main/reservoir/app/cmcis/mat.c ****     return -1;
 277:/home/takumi/takumique/main/reservoir/app/cmcis/mat.c ****   }
ARM GAS  /tmp/ccgNCQ0i.s 			page 53


 278:/home/takumi/takumique/main/reservoir/app/cmcis/mat.c ****   if(x->n == 0 || a->m != x->m) {
 2242              		.loc 1 278 3 is_stmt 1 view .LVU712
 2243              		.loc 1 278 7 is_stmt 0 view .LVU713
 2244 000e 4D68     		ldr	r5, [r1, #4]
 2245              		.loc 1 278 5 view .LVU714
 2246 0010 002D     		cmp	r5, #0
 2247 0012 00F08680 		beq	.L203
 2248              		.loc 1 278 28 discriminator 1 view .LVU715
 2249 0016 8D68     		ldr	r5, [r1, #8]
 2250              		.loc 1 278 16 discriminator 1 view .LVU716
 2251 0018 AC42     		cmp	r4, r5
 2252 001a 40F08580 		bne	.L204
 279:/home/takumi/takumique/main/reservoir/app/cmcis/mat.c ****     return -1;
 280:/home/takumi/takumique/main/reservoir/app/cmcis/mat.c ****   }
 281:/home/takumi/takumique/main/reservoir/app/cmcis/mat.c ****   if(y->n == 0 || a->m != y->m) {
 2253              		.loc 1 281 3 is_stmt 1 view .LVU717
 2254              		.loc 1 281 7 is_stmt 0 view .LVU718
 2255 001e 5568     		ldr	r5, [r2, #4]
 2256              		.loc 1 281 5 view .LVU719
 2257 0020 002D     		cmp	r5, #0
 2258 0022 00F08480 		beq	.L205
 2259              		.loc 1 281 28 discriminator 1 view .LVU720
 2260 0026 9568     		ldr	r5, [r2, #8]
 2261              		.loc 1 281 16 discriminator 1 view .LVU721
 2262 0028 AC42     		cmp	r4, r5
 2263 002a 40F08380 		bne	.L206
 2264              	.LBB53:
 282:/home/takumi/takumique/main/reservoir/app/cmcis/mat.c ****     return -1;
 283:/home/takumi/takumique/main/reservoir/app/cmcis/mat.c ****   }
 284:/home/takumi/takumique/main/reservoir/app/cmcis/mat.c **** #endif
 285:/home/takumi/takumique/main/reservoir/app/cmcis/mat.c ****   float lambda, prev_lambda = 0.0f;
 286:/home/takumi/takumique/main/reservoir/app/cmcis/mat.c ****   for(unsigned i = 0; i < a->n; i++) {
 2265              		.loc 1 286 16 view .LVU722
 2266 002e 0024     		movs	r4, #0
 2267              	.L190:
 2268              	.LVL179:
 2269              		.loc 1 286 23 is_stmt 1 discriminator 1 view .LVU723
 2270              		.loc 1 286 28 is_stmt 0 discriminator 1 view .LVU724
 2271 0030 4568     		ldr	r5, [r0, #4]
 2272              		.loc 1 286 3 discriminator 1 view .LVU725
 2273 0032 A542     		cmp	r5, r4
 2274 0034 07D9     		bls	.L210
 287:/home/takumi/takumique/main/reservoir/app/cmcis/mat.c ****     *_MAT(*x, 0, i) = 1.0f;
 2275              		.loc 1 287 5 is_stmt 1 discriminator 3 view .LVU726
 2276              		.loc 1 287 6 is_stmt 0 discriminator 3 view .LVU727
 2277 0036 0D68     		ldr	r5, [r1]
 2278 0038 05EB8405 		add	r5, r5, r4, lsl #2
 2279              		.loc 1 287 21 discriminator 3 view .LVU728
 2280 003c 4FF07E56 		mov	r6, #1065353216
 2281 0040 2E60     		str	r6, [r5]	@ float
 286:/home/takumi/takumique/main/reservoir/app/cmcis/mat.c ****     *_MAT(*x, 0, i) = 1.0f;
 2282              		.loc 1 286 33 is_stmt 1 discriminator 3 view .LVU729
 286:/home/takumi/takumique/main/reservoir/app/cmcis/mat.c ****     *_MAT(*x, 0, i) = 1.0f;
 2283              		.loc 1 286 34 is_stmt 0 discriminator 3 view .LVU730
 2284 0042 0134     		adds	r4, r4, #1
 2285              	.LVL180:
 286:/home/takumi/takumique/main/reservoir/app/cmcis/mat.c ****     *_MAT(*x, 0, i) = 1.0f;
ARM GAS  /tmp/ccgNCQ0i.s 			page 54


 2286              		.loc 1 286 34 discriminator 3 view .LVU731
 2287 0044 F4E7     		b	.L190
 2288              	.L210:
 286:/home/takumi/takumique/main/reservoir/app/cmcis/mat.c ****     *_MAT(*x, 0, i) = 1.0f;
 2289              		.loc 1 286 34 discriminator 3 view .LVU732
 2290              	.LBE53:
 2291              	.LBB54:
 288:/home/takumi/takumique/main/reservoir/app/cmcis/mat.c ****   }
 289:/home/takumi/takumique/main/reservoir/app/cmcis/mat.c ****   for(unsigned iteration = 0; iteration < lim; iteration++) {
 2292              		.loc 1 289 16 view .LVU733
 2293 0046 4FF00008 		mov	r8, #0
 2294              	.LBE54:
 285:/home/takumi/takumique/main/reservoir/app/cmcis/mat.c ****   for(unsigned i = 0; i < a->n; i++) {
 2295              		.loc 1 285 17 view .LVU734
 2296 004a 9FED3C6A 		vldr.32	s12, .L215
 2297 004e 5FE0     		b	.L192
 2298              	.LVL181:
 2299              	.L212:
 2300              	.LBB60:
 2301              	.LBB55:
 290:/home/takumi/takumique/main/reservoir/app/cmcis/mat.c ****     for(unsigned i = 0; i < a->n; i++) {
 2302              		.loc 1 290 35 is_stmt 1 discriminator 2 view .LVU735
 2303              		.loc 1 290 36 is_stmt 0 discriminator 2 view .LVU736
 2304 0050 0CF1010C 		add	ip, ip, #1
 2305              	.LVL182:
 2306              	.L201:
 2307              		.loc 1 290 25 is_stmt 1 discriminator 1 view .LVU737
 2308              		.loc 1 290 30 is_stmt 0 discriminator 1 view .LVU738
 2309 0054 4668     		ldr	r6, [r0, #4]
 2310              		.loc 1 290 5 discriminator 1 view .LVU739
 2311 0056 6645     		cmp	r6, ip
 2312 0058 23D9     		bls	.L211
 291:/home/takumi/takumique/main/reservoir/app/cmcis/mat.c ****       *_MAT(*y, 0, i) = 0.0f;
 2313              		.loc 1 291 7 is_stmt 1 view .LVU740
 2314              		.loc 1 291 8 is_stmt 0 view .LVU741
 2315 005a 1468     		ldr	r4, [r2]
 2316 005c 4FEA8C0E 		lsl	lr, ip, #2
 2317 0060 04EB8C04 		add	r4, r4, ip, lsl #2
 2318              		.loc 1 291 23 view .LVU742
 2319 0064 0025     		movs	r5, #0
 2320 0066 2560     		str	r5, [r4]	@ float
 292:/home/takumi/takumique/main/reservoir/app/cmcis/mat.c ****       for(unsigned j = 0; j < a->n; j++) {
 2321              		.loc 1 292 7 is_stmt 1 view .LVU743
 2322              	.LBB56:
 2323              		.loc 1 292 11 view .LVU744
 2324              	.LVL183:
 2325              		.loc 1 292 20 is_stmt 0 view .LVU745
 2326 0068 0024     		movs	r4, #0
 2327              	.LVL184:
 2328              	.L193:
 2329              		.loc 1 292 27 is_stmt 1 discriminator 1 view .LVU746
 2330              		.loc 1 292 32 is_stmt 0 discriminator 1 view .LVU747
 2331 006a 4568     		ldr	r5, [r0, #4]
 2332              		.loc 1 292 7 discriminator 1 view .LVU748
 2333 006c A542     		cmp	r5, r4
 2334 006e EFD9     		bls	.L212
 293:/home/takumi/takumique/main/reservoir/app/cmcis/mat.c ****         *_MAT(*y, 0, i) += *_MAT(*a, i, j) * *_MAT(*x, 0, j);
ARM GAS  /tmp/ccgNCQ0i.s 			page 55


 2335              		.loc 1 293 9 is_stmt 1 discriminator 3 view .LVU749
 2336              		.loc 1 293 10 is_stmt 0 discriminator 3 view .LVU750
 2337 0070 1568     		ldr	r5, [r2]
 2338              		.loc 1 293 25 discriminator 3 view .LVU751
 2339 0072 7544     		add	r5, r5, lr
 2340              		.loc 1 293 29 discriminator 3 view .LVU752
 2341 0074 0668     		ldr	r6, [r0]
 2342 0076 8768     		ldr	r7, [r0, #8]
 2343 0078 0CFB0747 		mla	r7, ip, r7, r4
 2344 007c 06EB8706 		add	r6, r6, r7, lsl #2
 2345              		.loc 1 293 28 discriminator 3 view .LVU753
 2346 0080 D6ED007A 		vldr.32	s15, [r6]
 2347              		.loc 1 293 47 discriminator 3 view .LVU754
 2348 0084 0E68     		ldr	r6, [r1]
 2349 0086 06EB8406 		add	r6, r6, r4, lsl #2
 2350              		.loc 1 293 46 discriminator 3 view .LVU755
 2351 008a 96ED007A 		vldr.32	s14, [r6]
 2352              		.loc 1 293 44 discriminator 3 view .LVU756
 2353 008e 27EE877A 		vmul.f32	s14, s15, s14
 2354              		.loc 1 293 25 discriminator 3 view .LVU757
 2355 0092 D5ED007A 		vldr.32	s15, [r5]
 2356 0096 77EE877A 		vadd.f32	s15, s15, s14
 2357 009a C5ED007A 		vstr.32	s15, [r5]
 292:/home/takumi/takumique/main/reservoir/app/cmcis/mat.c ****       for(unsigned j = 0; j < a->n; j++) {
 2358              		.loc 1 292 37 is_stmt 1 discriminator 3 view .LVU758
 292:/home/takumi/takumique/main/reservoir/app/cmcis/mat.c ****       for(unsigned j = 0; j < a->n; j++) {
 2359              		.loc 1 292 38 is_stmt 0 discriminator 3 view .LVU759
 2360 009e 0134     		adds	r4, r4, #1
 2361              	.LVL185:
 292:/home/takumi/takumique/main/reservoir/app/cmcis/mat.c ****       for(unsigned j = 0; j < a->n; j++) {
 2362              		.loc 1 292 38 discriminator 3 view .LVU760
 2363 00a0 E3E7     		b	.L193
 2364              	.LVL186:
 2365              	.L211:
 292:/home/takumi/takumique/main/reservoir/app/cmcis/mat.c ****       for(unsigned j = 0; j < a->n; j++) {
 2366              		.loc 1 292 38 discriminator 3 view .LVU761
 2367              	.LBE56:
 2368              	.LBE55:
 2369              	.LBB57:
 294:/home/takumi/takumique/main/reservoir/app/cmcis/mat.c ****       }
 295:/home/takumi/takumique/main/reservoir/app/cmcis/mat.c ****     }
 296:/home/takumi/takumique/main/reservoir/app/cmcis/mat.c ****     for(unsigned i = 0; i < a->n; i++){
 2370              		.loc 1 296 18 view .LVU762
 2371 00a2 0024     		movs	r4, #0
 2372 00a4 00E0     		b	.L196
 2373              	.LVL187:
 2374              	.L197:
 2375              		.loc 1 296 35 is_stmt 1 discriminator 2 view .LVU763
 2376              		.loc 1 296 36 is_stmt 0 discriminator 2 view .LVU764
 2377 00a6 0134     		adds	r4, r4, #1
 2378              	.LVL188:
 2379              	.L196:
 2380              		.loc 1 296 25 is_stmt 1 discriminator 1 view .LVU765
 2381              		.loc 1 296 5 is_stmt 0 discriminator 1 view .LVU766
 2382 00a8 A642     		cmp	r6, r4
 2383 00aa 10D9     		bls	.L213
 297:/home/takumi/takumique/main/reservoir/app/cmcis/mat.c ****       if(fabs(*_MAT(*y, 0, i)) > fabs(prev_lambda)) {
ARM GAS  /tmp/ccgNCQ0i.s 			page 56


 2384              		.loc 1 297 7 is_stmt 1 view .LVU767
 2385              		.loc 1 297 16 is_stmt 0 view .LVU768
 2386 00ac 1568     		ldr	r5, [r2]
 2387 00ae 05EB8405 		add	r5, r5, r4, lsl #2
 2388              		.loc 1 297 15 view .LVU769
 2389 00b2 D5ED007A 		vldr.32	s15, [r5]
 2390              		.loc 1 297 10 view .LVU770
 2391 00b6 F0EEE76A 		vabs.f32	s13, s15
 2392              		.loc 1 297 34 view .LVU771
 2393 00ba B0EEC67A 		vabs.f32	s14, s12
 2394              		.loc 1 297 9 view .LVU772
 2395 00be F4EEC76A 		vcmpe.f32	s13, s14
 2396 00c2 F1EE10FA 		vmrs	APSR_nzcv, FPSCR
 2397 00c6 EEDD     		ble	.L197
 298:/home/takumi/takumique/main/reservoir/app/cmcis/mat.c ****         lambda = *_MAT(*y, 0, i);
 2398              		.loc 1 298 16 view .LVU773
 2399 00c8 B0EE670A 		vmov.f32	s0, s15
 2400              	.LVL189:
 2401              		.loc 1 298 16 view .LVU774
 2402 00cc EBE7     		b	.L197
 2403              	.LVL190:
 2404              	.L213:
 2405              		.loc 1 298 16 view .LVU775
 2406              	.LBE57:
 2407              	.LBB58:
 299:/home/takumi/takumique/main/reservoir/app/cmcis/mat.c ****       }
 300:/home/takumi/takumique/main/reservoir/app/cmcis/mat.c ****     }
 301:/home/takumi/takumique/main/reservoir/app/cmcis/mat.c ****     for(unsigned i = 0; i < a->n; i++){
 2408              		.loc 1 301 18 view .LVU776
 2409 00ce 0024     		movs	r4, #0
 2410              	.LVL191:
 2411              	.L199:
 2412              		.loc 1 301 25 is_stmt 1 discriminator 1 view .LVU777
 2413              		.loc 1 301 30 is_stmt 0 discriminator 1 view .LVU778
 2414 00d0 4568     		ldr	r5, [r0, #4]
 2415              		.loc 1 301 5 discriminator 1 view .LVU779
 2416 00d2 A542     		cmp	r5, r4
 2417 00d4 0DD9     		bls	.L214
 302:/home/takumi/takumique/main/reservoir/app/cmcis/mat.c ****       *_MAT(*x, 0, i) = *_MAT(*y, 0, i) / lambda;
 2418              		.loc 1 302 7 is_stmt 1 discriminator 3 view .LVU780
 2419              		.loc 1 302 26 is_stmt 0 discriminator 3 view .LVU781
 2420 00d6 1568     		ldr	r5, [r2]
 2421 00d8 05EB8405 		add	r5, r5, r4, lsl #2
 2422              		.loc 1 302 25 discriminator 3 view .LVU782
 2423 00dc 95ED007A 		vldr.32	s14, [r5]
 2424              		.loc 1 302 8 discriminator 3 view .LVU783
 2425 00e0 0D68     		ldr	r5, [r1]
 2426 00e2 05EB8405 		add	r5, r5, r4, lsl #2
 2427              		.loc 1 302 41 discriminator 3 view .LVU784
 2428 00e6 C7EE007A 		vdiv.f32	s15, s14, s0
 2429              		.loc 1 302 23 discriminator 3 view .LVU785
 2430 00ea C5ED007A 		vstr.32	s15, [r5]
 301:/home/takumi/takumique/main/reservoir/app/cmcis/mat.c ****       *_MAT(*x, 0, i) = *_MAT(*y, 0, i) / lambda;
 2431              		.loc 1 301 35 is_stmt 1 discriminator 3 view .LVU786
 301:/home/takumi/takumique/main/reservoir/app/cmcis/mat.c ****       *_MAT(*x, 0, i) = *_MAT(*y, 0, i) / lambda;
 2432              		.loc 1 301 36 is_stmt 0 discriminator 3 view .LVU787
 2433 00ee 0134     		adds	r4, r4, #1
ARM GAS  /tmp/ccgNCQ0i.s 			page 57


 2434              	.LVL192:
 301:/home/takumi/takumique/main/reservoir/app/cmcis/mat.c ****       *_MAT(*x, 0, i) = *_MAT(*y, 0, i) / lambda;
 2435              		.loc 1 301 36 discriminator 3 view .LVU788
 2436 00f0 EEE7     		b	.L199
 2437              	.L214:
 301:/home/takumi/takumique/main/reservoir/app/cmcis/mat.c ****       *_MAT(*x, 0, i) = *_MAT(*y, 0, i) / lambda;
 2438              		.loc 1 301 36 discriminator 3 view .LVU789
 2439              	.LBE58:
 303:/home/takumi/takumique/main/reservoir/app/cmcis/mat.c ****     }
 304:/home/takumi/takumique/main/reservoir/app/cmcis/mat.c ****     if(fabs(lambda - prev_lambda) < 10e-6f) {
 2440              		.loc 1 304 5 is_stmt 1 view .LVU790
 2441              		.loc 1 304 20 is_stmt 0 view .LVU791
 2442 00f2 70EE467A 		vsub.f32	s15, s0, s12
 2443              		.loc 1 304 8 view .LVU792
 2444 00f6 F0EEE77A 		vabs.f32	s15, s15
 2445              		.loc 1 304 7 view .LVU793
 2446 00fa 9FED117A 		vldr.32	s14, .L215+4
 2447 00fe F4EEC77A 		vcmpe.f32	s15, s14
 2448 0102 F1EE10FA 		vmrs	APSR_nzcv, FPSCR
 2449 0106 0AD4     		bmi	.L188
 305:/home/takumi/takumique/main/reservoir/app/cmcis/mat.c ****       break;
 306:/home/takumi/takumique/main/reservoir/app/cmcis/mat.c ****     }
 307:/home/takumi/takumique/main/reservoir/app/cmcis/mat.c ****     prev_lambda = lambda;
 2450              		.loc 1 307 5 is_stmt 1 discriminator 2 view .LVU794
 2451              	.LVL193:
 289:/home/takumi/takumique/main/reservoir/app/cmcis/mat.c ****     for(unsigned i = 0; i < a->n; i++) {
 2452              		.loc 1 289 48 discriminator 2 view .LVU795
 289:/home/takumi/takumique/main/reservoir/app/cmcis/mat.c ****     for(unsigned i = 0; i < a->n; i++) {
 2453              		.loc 1 289 57 is_stmt 0 discriminator 2 view .LVU796
 2454 0108 08F10108 		add	r8, r8, #1
 2455              	.LVL194:
 2456              		.loc 1 307 17 discriminator 2 view .LVU797
 2457 010c B0EE406A 		vmov.f32	s12, s0
 2458              	.LVL195:
 2459              	.L192:
 289:/home/takumi/takumique/main/reservoir/app/cmcis/mat.c ****     for(unsigned i = 0; i < a->n; i++) {
 2460              		.loc 1 289 31 is_stmt 1 discriminator 1 view .LVU798
 289:/home/takumi/takumique/main/reservoir/app/cmcis/mat.c ****     for(unsigned i = 0; i < a->n; i++) {
 2461              		.loc 1 289 3 is_stmt 0 discriminator 1 view .LVU799
 2462 0110 9845     		cmp	r8, r3
 2463 0112 04D2     		bcs	.L188
 2464              	.LBB59:
 290:/home/takumi/takumique/main/reservoir/app/cmcis/mat.c ****       *_MAT(*y, 0, i) = 0.0f;
 2465              		.loc 1 290 18 view .LVU800
 2466 0114 4FF0000C 		mov	ip, #0
 2467 0118 9CE7     		b	.L201
 2468              	.LVL196:
 2469              	.L202:
 290:/home/takumi/takumique/main/reservoir/app/cmcis/mat.c ****       *_MAT(*y, 0, i) = 0.0f;
 2470              		.loc 1 290 18 view .LVU801
 2471              	.LBE59:
 2472              	.LBE60:
 276:/home/takumi/takumique/main/reservoir/app/cmcis/mat.c ****   }
 2473              		.loc 1 276 12 view .LVU802
 2474 011a BFEE000A 		vmov.f32	s0, #-1.0e+0
 2475              	.L188:
 308:/home/takumi/takumique/main/reservoir/app/cmcis/mat.c ****   }
ARM GAS  /tmp/ccgNCQ0i.s 			page 58


 309:/home/takumi/takumique/main/reservoir/app/cmcis/mat.c ****   return lambda;
 310:/home/takumi/takumique/main/reservoir/app/cmcis/mat.c **** }
 2476              		.loc 1 310 1 view .LVU803
 2477 011e BDE8F081 		pop	{r4, r5, r6, r7, r8, pc}
 2478              	.L203:
 279:/home/takumi/takumique/main/reservoir/app/cmcis/mat.c ****   }
 2479              		.loc 1 279 12 view .LVU804
 2480 0122 BFEE000A 		vmov.f32	s0, #-1.0e+0
 2481 0126 FAE7     		b	.L188
 2482              	.L204:
 2483 0128 BFEE000A 		vmov.f32	s0, #-1.0e+0
 2484 012c F7E7     		b	.L188
 2485              	.L205:
 282:/home/takumi/takumique/main/reservoir/app/cmcis/mat.c ****   }
 2486              		.loc 1 282 12 view .LVU805
 2487 012e BFEE000A 		vmov.f32	s0, #-1.0e+0
 2488 0132 F4E7     		b	.L188
 2489              	.L206:
 2490 0134 BFEE000A 		vmov.f32	s0, #-1.0e+0
 2491 0138 F1E7     		b	.L188
 2492              	.L216:
 2493 013a 00BF     		.align	2
 2494              	.L215:
 2495 013c 00000000 		.word	0
 2496 0140 ACC52737 		.word	925353388
 2497              		.cfi_endproc
 2498              	.LFE157:
 2500              		.section	.text.mat_f64_new,"ax",%progbits
 2501              		.align	1
 2502              		.global	mat_f64_new
 2503              		.syntax unified
 2504              		.thumb
 2505              		.thumb_func
 2506              		.fpu fpv4-sp-d16
 2508              	mat_f64_new:
 2509              	.LVL197:
 2510              	.LFB158:
 311:/home/takumi/takumique/main/reservoir/app/cmcis/mat.c **** 
 312:/home/takumi/takumique/main/reservoir/app/cmcis/mat.c **** int mat_f64_new(mat_memory_t *sup, mat_f64_t *a, unsigned n, unsigned m) {
 2511              		.loc 1 312 74 is_stmt 1 view -0
 2512              		.cfi_startproc
 2513              		@ args = 0, pretend = 0, frame = 0
 2514              		@ frame_needed = 0, uses_anonymous_args = 0
 2515              		.loc 1 312 74 is_stmt 0 view .LVU807
 2516 0000 10B5     		push	{r4, lr}
 2517              	.LCFI23:
 2518              		.cfi_def_cfa_offset 8
 2519              		.cfi_offset 4, -8
 2520              		.cfi_offset 14, -4
 2521 0002 0C46     		mov	r4, r1
 313:/home/takumi/takumique/main/reservoir/app/cmcis/mat.c ****   a->t = 0;
 2522              		.loc 1 313 3 is_stmt 1 view .LVU808
 2523              		.loc 1 313 8 is_stmt 0 view .LVU809
 2524 0004 0021     		movs	r1, #0
 2525              	.LVL198:
 2526              		.loc 1 313 8 view .LVU810
 2527 0006 E160     		str	r1, [r4, #12]
ARM GAS  /tmp/ccgNCQ0i.s 			page 59


 314:/home/takumi/takumique/main/reservoir/app/cmcis/mat.c ****   a->n = n;
 2528              		.loc 1 314 3 is_stmt 1 view .LVU811
 2529              		.loc 1 314 8 is_stmt 0 view .LVU812
 2530 0008 6260     		str	r2, [r4, #4]
 315:/home/takumi/takumique/main/reservoir/app/cmcis/mat.c ****   a->m = m;
 2531              		.loc 1 315 3 is_stmt 1 view .LVU813
 2532              		.loc 1 315 8 is_stmt 0 view .LVU814
 2533 000a A360     		str	r3, [r4, #8]
 316:/home/takumi/takumique/main/reservoir/app/cmcis/mat.c ****   if(sup && sup->memory_alloc) {
 2534              		.loc 1 316 3 is_stmt 1 view .LVU815
 2535              		.loc 1 316 5 is_stmt 0 view .LVU816
 2536 000c 48B1     		cbz	r0, .L218
 2537              		.loc 1 316 16 discriminator 1 view .LVU817
 2538 000e 0168     		ldr	r1, [r0]
 2539              		.loc 1 316 10 discriminator 1 view .LVU818
 2540 0010 39B1     		cbz	r1, .L218
 317:/home/takumi/takumique/main/reservoir/app/cmcis/mat.c ****     a->data = (f64_t *) sup->memory_alloc(sizeof(f64_t) * n * m);
 2541              		.loc 1 317 5 is_stmt 1 view .LVU819
 2542              		.loc 1 317 61 is_stmt 0 view .LVU820
 2543 0012 03FB02F3 		mul	r3, r3, r2
 2544              	.LVL199:
 2545              		.loc 1 317 25 view .LVU821
 2546 0016 D800     		lsls	r0, r3, #3
 2547              	.LVL200:
 2548              		.loc 1 317 25 view .LVU822
 2549 0018 8847     		blx	r1
 2550              	.LVL201:
 2551              		.loc 1 317 13 view .LVU823
 2552 001a 2060     		str	r0, [r4]
 318:/home/takumi/takumique/main/reservoir/app/cmcis/mat.c ****     if(a->data == NULL) {
 2553              		.loc 1 318 5 is_stmt 1 view .LVU824
 2554              		.loc 1 318 7 is_stmt 0 view .LVU825
 2555 001c 20B1     		cbz	r0, .L220
 319:/home/takumi/takumique/main/reservoir/app/cmcis/mat.c ****       return -1;
 320:/home/takumi/takumique/main/reservoir/app/cmcis/mat.c ****     }
 321:/home/takumi/takumique/main/reservoir/app/cmcis/mat.c ****   } else {
 322:/home/takumi/takumique/main/reservoir/app/cmcis/mat.c ****     a->data = NULL;
 323:/home/takumi/takumique/main/reservoir/app/cmcis/mat.c ****   }
 324:/home/takumi/takumique/main/reservoir/app/cmcis/mat.c ****   return 0;
 2556              		.loc 1 324 10 view .LVU826
 2557 001e 0020     		movs	r0, #0
 2558 0020 01E0     		b	.L217
 2559              	.LVL202:
 2560              	.L218:
 322:/home/takumi/takumique/main/reservoir/app/cmcis/mat.c ****   }
 2561              		.loc 1 322 5 is_stmt 1 view .LVU827
 322:/home/takumi/takumique/main/reservoir/app/cmcis/mat.c ****   }
 2562              		.loc 1 322 13 is_stmt 0 view .LVU828
 2563 0022 0020     		movs	r0, #0
 2564              	.LVL203:
 322:/home/takumi/takumique/main/reservoir/app/cmcis/mat.c ****   }
 2565              		.loc 1 322 13 view .LVU829
 2566 0024 2060     		str	r0, [r4]
 2567              	.LVL204:
 2568              	.L217:
 325:/home/takumi/takumique/main/reservoir/app/cmcis/mat.c **** }
 2569              		.loc 1 325 1 view .LVU830
ARM GAS  /tmp/ccgNCQ0i.s 			page 60


 2570 0026 10BD     		pop	{r4, pc}
 2571              	.LVL205:
 2572              	.L220:
 319:/home/takumi/takumique/main/reservoir/app/cmcis/mat.c ****       return -1;
 2573              		.loc 1 319 14 view .LVU831
 2574 0028 4FF0FF30 		mov	r0, #-1
 2575 002c FBE7     		b	.L217
 2576              		.cfi_endproc
 2577              	.LFE158:
 2579              		.section	.text.mat_f64_destroy,"ax",%progbits
 2580              		.align	1
 2581              		.global	mat_f64_destroy
 2582              		.syntax unified
 2583              		.thumb
 2584              		.thumb_func
 2585              		.fpu fpv4-sp-d16
 2587              	mat_f64_destroy:
 2588              	.LVL206:
 2589              	.LFB159:
 326:/home/takumi/takumique/main/reservoir/app/cmcis/mat.c **** 
 327:/home/takumi/takumique/main/reservoir/app/cmcis/mat.c **** void mat_f64_destroy(mat_memory_t *mem, mat_f64_t *a) {
 2590              		.loc 1 327 55 is_stmt 1 view -0
 2591              		.cfi_startproc
 2592              		@ args = 0, pretend = 0, frame = 0
 2593              		@ frame_needed = 0, uses_anonymous_args = 0
 328:/home/takumi/takumique/main/reservoir/app/cmcis/mat.c ****   if(mem && mem->memory_free) {
 2594              		.loc 1 328 3 view .LVU833
 2595              		.loc 1 328 5 is_stmt 0 view .LVU834
 2596 0000 40B1     		cbz	r0, .L225
 327:/home/takumi/takumique/main/reservoir/app/cmcis/mat.c ****   if(mem && mem->memory_free) {
 2597              		.loc 1 327 55 discriminator 1 view .LVU835
 2598 0002 10B5     		push	{r4, lr}
 2599              	.LCFI24:
 2600              		.cfi_def_cfa_offset 8
 2601              		.cfi_offset 4, -8
 2602              		.cfi_offset 14, -4
 2603 0004 0C46     		mov	r4, r1
 2604              		.loc 1 328 16 discriminator 1 view .LVU836
 2605 0006 4368     		ldr	r3, [r0, #4]
 2606              		.loc 1 328 10 discriminator 1 view .LVU837
 2607 0008 1BB1     		cbz	r3, .L222
 329:/home/takumi/takumique/main/reservoir/app/cmcis/mat.c ****     mem->memory_free(a->data);
 2608              		.loc 1 329 5 is_stmt 1 view .LVU838
 2609 000a 0868     		ldr	r0, [r1]
 2610              	.LVL207:
 2611              		.loc 1 329 5 is_stmt 0 view .LVU839
 2612 000c 9847     		blx	r3
 2613              	.LVL208:
 330:/home/takumi/takumique/main/reservoir/app/cmcis/mat.c ****     a->data = NULL;
 2614              		.loc 1 330 5 is_stmt 1 view .LVU840
 2615              		.loc 1 330 13 is_stmt 0 view .LVU841
 2616 000e 0023     		movs	r3, #0
 2617 0010 2360     		str	r3, [r4]
 2618              	.L222:
 331:/home/takumi/takumique/main/reservoir/app/cmcis/mat.c ****   }
 332:/home/takumi/takumique/main/reservoir/app/cmcis/mat.c **** }
 2619              		.loc 1 332 1 view .LVU842
ARM GAS  /tmp/ccgNCQ0i.s 			page 61


 2620 0012 10BD     		pop	{r4, pc}
 2621              	.LVL209:
 2622              	.L225:
 2623              	.LCFI25:
 2624              		.cfi_def_cfa_offset 0
 2625              		.cfi_restore 4
 2626              		.cfi_restore 14
 2627              		.loc 1 332 1 view .LVU843
 2628 0014 7047     		bx	lr
 2629              		.cfi_endproc
 2630              	.LFE159:
 2632              		.section	.text.mat_f64_copy,"ax",%progbits
 2633              		.align	1
 2634              		.global	mat_f64_copy
 2635              		.syntax unified
 2636              		.thumb
 2637              		.thumb_func
 2638              		.fpu fpv4-sp-d16
 2640              	mat_f64_copy:
 2641              	.LVL210:
 2642              	.LFB160:
 333:/home/takumi/takumique/main/reservoir/app/cmcis/mat.c **** 
 334:/home/takumi/takumique/main/reservoir/app/cmcis/mat.c **** int mat_f64_copy(mat_f64_t *dst, mat_f64_t *src) {
 2643              		.loc 1 334 50 is_stmt 1 view -0
 2644              		.cfi_startproc
 2645              		@ args = 0, pretend = 0, frame = 0
 2646              		@ frame_needed = 0, uses_anonymous_args = 0
 2647              		.loc 1 334 50 is_stmt 0 view .LVU845
 2648 0000 08B5     		push	{r3, lr}
 2649              	.LCFI26:
 2650              		.cfi_def_cfa_offset 8
 2651              		.cfi_offset 3, -8
 2652              		.cfi_offset 14, -4
 335:/home/takumi/takumique/main/reservoir/app/cmcis/mat.c ****   memcpy(dst->data, src->data, sizeof(f32_t) * dst->n * dst->m);
 2653              		.loc 1 335 3 is_stmt 1 view .LVU846
 2654              		.loc 1 335 51 is_stmt 0 view .LVU847
 2655 0002 4368     		ldr	r3, [r0, #4]
 2656              		.loc 1 335 60 view .LVU848
 2657 0004 8268     		ldr	r2, [r0, #8]
 2658              		.loc 1 335 55 view .LVU849
 2659 0006 02FB03F2 		mul	r2, r2, r3
 2660              		.loc 1 335 3 view .LVU850
 2661 000a 9200     		lsls	r2, r2, #2
 2662 000c 0968     		ldr	r1, [r1]
 2663              	.LVL211:
 2664              		.loc 1 335 3 view .LVU851
 2665 000e 0068     		ldr	r0, [r0]
 2666              	.LVL212:
 2667              		.loc 1 335 3 view .LVU852
 2668 0010 FFF7FEFF 		bl	memcpy
 2669              	.LVL213:
 336:/home/takumi/takumique/main/reservoir/app/cmcis/mat.c ****   return 0;
 2670              		.loc 1 336 3 is_stmt 1 view .LVU853
 337:/home/takumi/takumique/main/reservoir/app/cmcis/mat.c **** }
 2671              		.loc 1 337 1 is_stmt 0 view .LVU854
 2672 0014 0020     		movs	r0, #0
 2673 0016 08BD     		pop	{r3, pc}
ARM GAS  /tmp/ccgNCQ0i.s 			page 62


 2674              		.cfi_endproc
 2675              	.LFE160:
 2677              		.section	.text.mat_f64_zeros,"ax",%progbits
 2678              		.align	1
 2679              		.global	mat_f64_zeros
 2680              		.syntax unified
 2681              		.thumb
 2682              		.thumb_func
 2683              		.fpu fpv4-sp-d16
 2685              	mat_f64_zeros:
 2686              	.LVL214:
 2687              	.LFB161:
 338:/home/takumi/takumique/main/reservoir/app/cmcis/mat.c **** 
 339:/home/takumi/takumique/main/reservoir/app/cmcis/mat.c **** int mat_f64_zeros(mat_f64_t *a) {
 2688              		.loc 1 339 33 is_stmt 1 view -0
 2689              		.cfi_startproc
 2690              		@ args = 0, pretend = 0, frame = 0
 2691              		@ frame_needed = 0, uses_anonymous_args = 0
 2692              		.loc 1 339 33 is_stmt 0 view .LVU856
 2693 0000 08B5     		push	{r3, lr}
 2694              	.LCFI27:
 2695              		.cfi_def_cfa_offset 8
 2696              		.cfi_offset 3, -8
 2697              		.cfi_offset 14, -4
 340:/home/takumi/takumique/main/reservoir/app/cmcis/mat.c ****   memset(a->data, 0, sizeof(f64_t) * a->n * a->m);
 2698              		.loc 1 340 3 is_stmt 1 view .LVU857
 2699              		.loc 1 340 39 is_stmt 0 view .LVU858
 2700 0002 4368     		ldr	r3, [r0, #4]
 2701              		.loc 1 340 46 view .LVU859
 2702 0004 8268     		ldr	r2, [r0, #8]
 2703              		.loc 1 340 43 view .LVU860
 2704 0006 02FB03F2 		mul	r2, r2, r3
 2705              		.loc 1 340 3 view .LVU861
 2706 000a D200     		lsls	r2, r2, #3
 2707 000c 0021     		movs	r1, #0
 2708 000e 0068     		ldr	r0, [r0]
 2709              	.LVL215:
 2710              		.loc 1 340 3 view .LVU862
 2711 0010 FFF7FEFF 		bl	memset
 2712              	.LVL216:
 341:/home/takumi/takumique/main/reservoir/app/cmcis/mat.c ****   return 0;
 2713              		.loc 1 341 3 is_stmt 1 view .LVU863
 342:/home/takumi/takumique/main/reservoir/app/cmcis/mat.c **** }
 2714              		.loc 1 342 1 is_stmt 0 view .LVU864
 2715 0014 0020     		movs	r0, #0
 2716 0016 08BD     		pop	{r3, pc}
 2717              		.cfi_endproc
 2718              	.LFE161:
 2720              		.global	__aeabi_dadd
 2721              		.section	.text.mat_f64_sum,"ax",%progbits
 2722              		.align	1
 2723              		.global	mat_f64_sum
 2724              		.syntax unified
 2725              		.thumb
 2726              		.thumb_func
 2727              		.fpu fpv4-sp-d16
 2729              	mat_f64_sum:
ARM GAS  /tmp/ccgNCQ0i.s 			page 63


 2730              	.LVL217:
 2731              	.LFB162:
 343:/home/takumi/takumique/main/reservoir/app/cmcis/mat.c **** 
 344:/home/takumi/takumique/main/reservoir/app/cmcis/mat.c **** int mat_f64_sum(mat_f64_t *c, mat_f64_t *a, mat_f64_t *b) {
 2732              		.loc 1 344 59 is_stmt 1 view -0
 2733              		.cfi_startproc
 2734              		@ args = 0, pretend = 0, frame = 0
 2735              		@ frame_needed = 0, uses_anonymous_args = 0
 2736              		.loc 1 344 59 is_stmt 0 view .LVU866
 2737 0000 2DE9F047 		push	{r4, r5, r6, r7, r8, r9, r10, lr}
 2738              	.LCFI28:
 2739              		.cfi_def_cfa_offset 32
 2740              		.cfi_offset 4, -32
 2741              		.cfi_offset 5, -28
 2742              		.cfi_offset 6, -24
 2743              		.cfi_offset 7, -20
 2744              		.cfi_offset 8, -16
 2745              		.cfi_offset 9, -12
 2746              		.cfi_offset 10, -8
 2747              		.cfi_offset 14, -4
 2748 0004 1446     		mov	r4, r2
 345:/home/takumi/takumique/main/reservoir/app/cmcis/mat.c **** #ifdef CHECK_ARGS
 346:/home/takumi/takumique/main/reservoir/app/cmcis/mat.c ****   if(c->n != a->n) {
 2749              		.loc 1 346 3 is_stmt 1 view .LVU867
 2750              		.loc 1 346 7 is_stmt 0 view .LVU868
 2751 0006 4368     		ldr	r3, [r0, #4]
 2752              		.loc 1 346 15 view .LVU869
 2753 0008 4A68     		ldr	r2, [r1, #4]
 2754              	.LVL218:
 2755              		.loc 1 346 5 view .LVU870
 2756 000a 9342     		cmp	r3, r2
 2757 000c 40F0ED80 		bne	.L255
 2758 0010 0546     		mov	r5, r0
 2759 0012 0E46     		mov	r6, r1
 347:/home/takumi/takumique/main/reservoir/app/cmcis/mat.c ****     return -1;
 348:/home/takumi/takumique/main/reservoir/app/cmcis/mat.c ****   }
 349:/home/takumi/takumique/main/reservoir/app/cmcis/mat.c ****   if(c->m != a->m) {
 2760              		.loc 1 349 3 is_stmt 1 view .LVU871
 2761              		.loc 1 349 7 is_stmt 0 view .LVU872
 2762 0014 8268     		ldr	r2, [r0, #8]
 2763              		.loc 1 349 15 view .LVU873
 2764 0016 8968     		ldr	r1, [r1, #8]
 2765              	.LVL219:
 2766              		.loc 1 349 5 view .LVU874
 2767 0018 8A42     		cmp	r2, r1
 2768 001a 40F0E980 		bne	.L256
 350:/home/takumi/takumique/main/reservoir/app/cmcis/mat.c ****     return -1;
 351:/home/takumi/takumique/main/reservoir/app/cmcis/mat.c ****   }
 352:/home/takumi/takumique/main/reservoir/app/cmcis/mat.c ****   if(c->n != b->n) {
 2769              		.loc 1 352 3 is_stmt 1 view .LVU875
 2770              		.loc 1 352 15 is_stmt 0 view .LVU876
 2771 001e 6168     		ldr	r1, [r4, #4]
 2772              		.loc 1 352 5 view .LVU877
 2773 0020 8B42     		cmp	r3, r1
 2774 0022 40F0E880 		bne	.L257
 353:/home/takumi/takumique/main/reservoir/app/cmcis/mat.c ****     return -1;
 354:/home/takumi/takumique/main/reservoir/app/cmcis/mat.c ****   }
ARM GAS  /tmp/ccgNCQ0i.s 			page 64


 355:/home/takumi/takumique/main/reservoir/app/cmcis/mat.c ****   if(c->m != b->m) {
 2775              		.loc 1 355 3 is_stmt 1 view .LVU878
 2776              		.loc 1 355 15 is_stmt 0 view .LVU879
 2777 0026 A168     		ldr	r1, [r4, #8]
 2778              		.loc 1 355 5 view .LVU880
 2779 0028 8A42     		cmp	r2, r1
 2780 002a 00F09A80 		beq	.L250
 356:/home/takumi/takumique/main/reservoir/app/cmcis/mat.c ****     return -1;
 2781              		.loc 1 356 12 view .LVU881
 2782 002e 4FF0FF30 		mov	r0, #-1
 2783              	.LVL220:
 2784              		.loc 1 356 12 view .LVU882
 2785 0032 18E0     		b	.L232
 2786              	.LVL221:
 2787              	.L237:
 2788              	.LBB61:
 357:/home/takumi/takumique/main/reservoir/app/cmcis/mat.c ****   }
 358:/home/takumi/takumique/main/reservoir/app/cmcis/mat.c **** #endif
 359:/home/takumi/takumique/main/reservoir/app/cmcis/mat.c ****   for(;;) {
 360:/home/takumi/takumique/main/reservoir/app/cmcis/mat.c ****     if(c->n == 1 || c->m == 1) {
 361:/home/takumi/takumique/main/reservoir/app/cmcis/mat.c ****       for(unsigned i = 0; i < c->n * c->m; i++) {
 362:/home/takumi/takumique/main/reservoir/app/cmcis/mat.c ****         *(c->data + i) = *(a->data + i) + *(b->data + i);
 2789              		.loc 1 362 9 is_stmt 1 discriminator 3 view .LVU883
 2790              		.loc 1 362 29 is_stmt 0 discriminator 3 view .LVU884
 2791 0034 3368     		ldr	r3, [r6]
 2792              		.loc 1 362 36 discriminator 3 view .LVU885
 2793 0036 03EBC701 		add	r1, r3, r7, lsl #3
 2794              		.loc 1 362 46 discriminator 3 view .LVU886
 2795 003a 2368     		ldr	r3, [r4]
 2796              		.loc 1 362 53 discriminator 3 view .LVU887
 2797 003c 03EBC703 		add	r3, r3, r7, lsl #3
 2798              		.loc 1 362 12 discriminator 3 view .LVU888
 2799 0040 2A68     		ldr	r2, [r5]
 2800              		.loc 1 362 19 discriminator 3 view .LVU889
 2801 0042 02EBC708 		add	r8, r2, r7, lsl #3
 2802              		.loc 1 362 41 discriminator 3 view .LVU890
 2803 0046 D3E90023 		ldrd	r2, [r3]
 2804 004a D1E90001 		ldrd	r0, [r1]
 2805 004e FFF7FEFF 		bl	__aeabi_dadd
 2806              	.LVL222:
 2807              		.loc 1 362 24 discriminator 3 view .LVU891
 2808 0052 C8E90001 		strd	r0, [r8]
 361:/home/takumi/takumique/main/reservoir/app/cmcis/mat.c ****         *(c->data + i) = *(a->data + i) + *(b->data + i);
 2809              		.loc 1 361 44 is_stmt 1 discriminator 3 view .LVU892
 361:/home/takumi/takumique/main/reservoir/app/cmcis/mat.c ****         *(c->data + i) = *(a->data + i) + *(b->data + i);
 2810              		.loc 1 361 45 is_stmt 0 discriminator 3 view .LVU893
 2811 0056 0137     		adds	r7, r7, #1
 2812              	.LVL223:
 2813              	.L236:
 361:/home/takumi/takumique/main/reservoir/app/cmcis/mat.c ****         *(c->data + i) = *(a->data + i) + *(b->data + i);
 2814              		.loc 1 361 27 is_stmt 1 discriminator 1 view .LVU894
 361:/home/takumi/takumique/main/reservoir/app/cmcis/mat.c ****         *(c->data + i) = *(a->data + i) + *(b->data + i);
 2815              		.loc 1 361 32 is_stmt 0 discriminator 1 view .LVU895
 2816 0058 6A68     		ldr	r2, [r5, #4]
 361:/home/takumi/takumique/main/reservoir/app/cmcis/mat.c ****         *(c->data + i) = *(a->data + i) + *(b->data + i);
 2817              		.loc 1 361 39 discriminator 1 view .LVU896
 2818 005a AB68     		ldr	r3, [r5, #8]
ARM GAS  /tmp/ccgNCQ0i.s 			page 65


 361:/home/takumi/takumique/main/reservoir/app/cmcis/mat.c ****         *(c->data + i) = *(a->data + i) + *(b->data + i);
 2819              		.loc 1 361 36 discriminator 1 view .LVU897
 2820 005c 03FB02F3 		mul	r3, r3, r2
 361:/home/takumi/takumique/main/reservoir/app/cmcis/mat.c ****         *(c->data + i) = *(a->data + i) + *(b->data + i);
 2821              		.loc 1 361 7 discriminator 1 view .LVU898
 2822 0060 BB42     		cmp	r3, r7
 2823 0062 E7D8     		bhi	.L237
 2824              	.LBE61:
 363:/home/takumi/takumique/main/reservoir/app/cmcis/mat.c ****       }
 364:/home/takumi/takumique/main/reservoir/app/cmcis/mat.c ****       break;
 365:/home/takumi/takumique/main/reservoir/app/cmcis/mat.c ****     }
 366:/home/takumi/takumique/main/reservoir/app/cmcis/mat.c ****     if(!a->t && !b->t) {
 367:/home/takumi/takumique/main/reservoir/app/cmcis/mat.c ****       for(unsigned n = 0; n < c->n; n++) {
 368:/home/takumi/takumique/main/reservoir/app/cmcis/mat.c ****         for(unsigned m = 0; m < c->m; m++) {
 369:/home/takumi/takumique/main/reservoir/app/cmcis/mat.c ****           *_MAT(*c, n, m) = *_MAT(*a, n, m) + *_MAT(*b, n, m);
 370:/home/takumi/takumique/main/reservoir/app/cmcis/mat.c ****         }
 371:/home/takumi/takumique/main/reservoir/app/cmcis/mat.c ****       }
 372:/home/takumi/takumique/main/reservoir/app/cmcis/mat.c ****       break;
 373:/home/takumi/takumique/main/reservoir/app/cmcis/mat.c ****     }
 374:/home/takumi/takumique/main/reservoir/app/cmcis/mat.c ****     if(a->t && !b->t) {
 375:/home/takumi/takumique/main/reservoir/app/cmcis/mat.c ****       for(unsigned n = 0; n < c->n; n++) {
 376:/home/takumi/takumique/main/reservoir/app/cmcis/mat.c ****         for(unsigned m = 0; m < c->m; m++) {
 377:/home/takumi/takumique/main/reservoir/app/cmcis/mat.c ****           *_MAT(*c, n, m) = *_MAT_T(*a, n, m) + *_MAT(*b, n, m);
 378:/home/takumi/takumique/main/reservoir/app/cmcis/mat.c ****         }
 379:/home/takumi/takumique/main/reservoir/app/cmcis/mat.c ****       }
 380:/home/takumi/takumique/main/reservoir/app/cmcis/mat.c ****       break;
 381:/home/takumi/takumique/main/reservoir/app/cmcis/mat.c ****     }
 382:/home/takumi/takumique/main/reservoir/app/cmcis/mat.c ****     if(!a->t && b->t) {
 383:/home/takumi/takumique/main/reservoir/app/cmcis/mat.c ****       for(unsigned n = 0; n < c->n; n++) {
 384:/home/takumi/takumique/main/reservoir/app/cmcis/mat.c ****         for(unsigned m = 0; m < c->m; m++) {
 385:/home/takumi/takumique/main/reservoir/app/cmcis/mat.c ****           *_MAT(*c, n, m) = *_MAT(*a, n, m) + *_MAT_T(*b, n, m);
 386:/home/takumi/takumique/main/reservoir/app/cmcis/mat.c ****         }
 387:/home/takumi/takumique/main/reservoir/app/cmcis/mat.c ****       }
 388:/home/takumi/takumique/main/reservoir/app/cmcis/mat.c ****       break;
 389:/home/takumi/takumique/main/reservoir/app/cmcis/mat.c ****     }
 390:/home/takumi/takumique/main/reservoir/app/cmcis/mat.c ****     if(a->t && b->t) {
 391:/home/takumi/takumique/main/reservoir/app/cmcis/mat.c ****       for(unsigned n = 0; n < c->n; n++) {
 392:/home/takumi/takumique/main/reservoir/app/cmcis/mat.c ****         for(unsigned m = 0; m < c->m; m++) {
 393:/home/takumi/takumique/main/reservoir/app/cmcis/mat.c ****           *_MAT(*c, n, m) = *_MAT_T(*a, n, m) + *_MAT_T(*b, n, m);
 394:/home/takumi/takumique/main/reservoir/app/cmcis/mat.c ****         }
 395:/home/takumi/takumique/main/reservoir/app/cmcis/mat.c ****       }
 396:/home/takumi/takumique/main/reservoir/app/cmcis/mat.c ****       break;
 397:/home/takumi/takumique/main/reservoir/app/cmcis/mat.c ****     }
 398:/home/takumi/takumique/main/reservoir/app/cmcis/mat.c ****   }
 399:/home/takumi/takumique/main/reservoir/app/cmcis/mat.c ****   return 0;
 2825              		.loc 1 399 10 view .LVU899
 2826 0064 0020     		movs	r0, #0
 2827              	.LVL224:
 2828              	.L232:
 400:/home/takumi/takumique/main/reservoir/app/cmcis/mat.c **** }
 2829              		.loc 1 400 1 view .LVU900
 2830 0066 BDE8F087 		pop	{r4, r5, r6, r7, r8, r9, r10, pc}
 2831              	.LVL225:
 2832              	.L259:
 2833              		.loc 1 400 1 view .LVU901
 2834 006a 0027     		movs	r7, #0
 2835 006c F4E7     		b	.L236
ARM GAS  /tmp/ccgNCQ0i.s 			page 66


 2836              	.L277:
 2837 006e 0027     		movs	r7, #0
 2838 0070 F2E7     		b	.L236
 2839              	.LVL226:
 2840              	.L240:
 2841              	.LBB62:
 2842              	.LBB63:
 369:/home/takumi/takumique/main/reservoir/app/cmcis/mat.c ****         }
 2843              		.loc 1 369 11 is_stmt 1 discriminator 3 view .LVU902
 369:/home/takumi/takumique/main/reservoir/app/cmcis/mat.c ****         }
 2844              		.loc 1 369 30 is_stmt 0 discriminator 3 view .LVU903
 2845 0072 3168     		ldr	r1, [r6]
 2846 0074 B268     		ldr	r2, [r6, #8]
 2847 0076 0AFB0272 		mla	r2, r10, r2, r7
 2848 007a 01EBC201 		add	r1, r1, r2, lsl #3
 369:/home/takumi/takumique/main/reservoir/app/cmcis/mat.c ****         }
 2849              		.loc 1 369 48 discriminator 3 view .LVU904
 2850 007e 2268     		ldr	r2, [r4]
 2851 0080 A068     		ldr	r0, [r4, #8]
 2852 0082 0AFB0070 		mla	r0, r10, r0, r7
 2853 0086 02EBC002 		add	r2, r2, r0, lsl #3
 369:/home/takumi/takumique/main/reservoir/app/cmcis/mat.c ****         }
 2854              		.loc 1 369 12 discriminator 3 view .LVU905
 2855 008a 2868     		ldr	r0, [r5]
 2856 008c 0AFB0373 		mla	r3, r10, r3, r7
 2857 0090 00EBC308 		add	r8, r0, r3, lsl #3
 369:/home/takumi/takumique/main/reservoir/app/cmcis/mat.c ****         }
 2858              		.loc 1 369 45 discriminator 3 view .LVU906
 2859 0094 D2E90023 		ldrd	r2, [r2]
 2860 0098 D1E90001 		ldrd	r0, [r1]
 2861 009c FFF7FEFF 		bl	__aeabi_dadd
 2862              	.LVL227:
 369:/home/takumi/takumique/main/reservoir/app/cmcis/mat.c ****         }
 2863              		.loc 1 369 27 discriminator 3 view .LVU907
 2864 00a0 C8E90001 		strd	r0, [r8]
 368:/home/takumi/takumique/main/reservoir/app/cmcis/mat.c ****           *_MAT(*c, n, m) = *_MAT(*a, n, m) + *_MAT(*b, n, m);
 2865              		.loc 1 368 39 is_stmt 1 discriminator 3 view .LVU908
 368:/home/takumi/takumique/main/reservoir/app/cmcis/mat.c ****           *_MAT(*c, n, m) = *_MAT(*a, n, m) + *_MAT(*b, n, m);
 2866              		.loc 1 368 40 is_stmt 0 discriminator 3 view .LVU909
 2867 00a4 0137     		adds	r7, r7, #1
 2868              	.LVL228:
 2869              	.L241:
 368:/home/takumi/takumique/main/reservoir/app/cmcis/mat.c ****           *_MAT(*c, n, m) = *_MAT(*a, n, m) + *_MAT(*b, n, m);
 2870              		.loc 1 368 29 is_stmt 1 discriminator 1 view .LVU910
 368:/home/takumi/takumique/main/reservoir/app/cmcis/mat.c ****           *_MAT(*c, n, m) = *_MAT(*a, n, m) + *_MAT(*b, n, m);
 2871              		.loc 1 368 34 is_stmt 0 discriminator 1 view .LVU911
 2872 00a6 AB68     		ldr	r3, [r5, #8]
 368:/home/takumi/takumique/main/reservoir/app/cmcis/mat.c ****           *_MAT(*c, n, m) = *_MAT(*a, n, m) + *_MAT(*b, n, m);
 2873              		.loc 1 368 9 discriminator 1 view .LVU912
 2874 00a8 BB42     		cmp	r3, r7
 2875 00aa E2D8     		bhi	.L240
 2876              	.LBE63:
 367:/home/takumi/takumique/main/reservoir/app/cmcis/mat.c ****         for(unsigned m = 0; m < c->m; m++) {
 2877              		.loc 1 367 37 is_stmt 1 discriminator 2 view .LVU913
 367:/home/takumi/takumique/main/reservoir/app/cmcis/mat.c ****         for(unsigned m = 0; m < c->m; m++) {
 2878              		.loc 1 367 38 is_stmt 0 discriminator 2 view .LVU914
 2879 00ac 0AF1010A 		add	r10, r10, #1
ARM GAS  /tmp/ccgNCQ0i.s 			page 67


 2880              	.LVL229:
 2881              	.L239:
 367:/home/takumi/takumique/main/reservoir/app/cmcis/mat.c ****         for(unsigned m = 0; m < c->m; m++) {
 2882              		.loc 1 367 27 is_stmt 1 discriminator 1 view .LVU915
 367:/home/takumi/takumique/main/reservoir/app/cmcis/mat.c ****         for(unsigned m = 0; m < c->m; m++) {
 2883              		.loc 1 367 32 is_stmt 0 discriminator 1 view .LVU916
 2884 00b0 6B68     		ldr	r3, [r5, #4]
 367:/home/takumi/takumique/main/reservoir/app/cmcis/mat.c ****         for(unsigned m = 0; m < c->m; m++) {
 2885              		.loc 1 367 7 discriminator 1 view .LVU917
 2886 00b2 5345     		cmp	r3, r10
 2887 00b4 03D9     		bls	.L271
 2888              	.LBB64:
 368:/home/takumi/takumique/main/reservoir/app/cmcis/mat.c ****           *_MAT(*c, n, m) = *_MAT(*a, n, m) + *_MAT(*b, n, m);
 2889              		.loc 1 368 22 view .LVU918
 2890 00b6 4F46     		mov	r7, r9
 2891 00b8 F5E7     		b	.L241
 2892              	.LVL230:
 2893              	.L278:
 368:/home/takumi/takumique/main/reservoir/app/cmcis/mat.c ****           *_MAT(*c, n, m) = *_MAT(*a, n, m) + *_MAT(*b, n, m);
 2894              		.loc 1 368 22 view .LVU919
 2895              	.LBE64:
 367:/home/takumi/takumique/main/reservoir/app/cmcis/mat.c ****         for(unsigned m = 0; m < c->m; m++) {
 2896              		.loc 1 367 20 view .LVU920
 2897 00ba CA46     		mov	r10, r9
 2898 00bc F8E7     		b	.L239
 2899              	.LVL231:
 2900              	.L271:
 367:/home/takumi/takumique/main/reservoir/app/cmcis/mat.c ****         for(unsigned m = 0; m < c->m; m++) {
 2901              		.loc 1 367 20 view .LVU921
 2902              	.LBE62:
 399:/home/takumi/takumique/main/reservoir/app/cmcis/mat.c **** }
 2903              		.loc 1 399 10 view .LVU922
 2904 00be 0020     		movs	r0, #0
 2905 00c0 D1E7     		b	.L232
 2906              	.LVL232:
 2907              	.L273:
 2908              	.LBB65:
 375:/home/takumi/takumique/main/reservoir/app/cmcis/mat.c ****         for(unsigned m = 0; m < c->m; m++) {
 2909              		.loc 1 375 37 is_stmt 1 discriminator 2 view .LVU923
 375:/home/takumi/takumique/main/reservoir/app/cmcis/mat.c ****         for(unsigned m = 0; m < c->m; m++) {
 2910              		.loc 1 375 38 is_stmt 0 discriminator 2 view .LVU924
 2911 00c2 0AF1010A 		add	r10, r10, #1
 2912              	.LVL233:
 2913              	.L243:
 375:/home/takumi/takumique/main/reservoir/app/cmcis/mat.c ****         for(unsigned m = 0; m < c->m; m++) {
 2914              		.loc 1 375 27 is_stmt 1 discriminator 1 view .LVU925
 375:/home/takumi/takumique/main/reservoir/app/cmcis/mat.c ****         for(unsigned m = 0; m < c->m; m++) {
 2915              		.loc 1 375 32 is_stmt 0 discriminator 1 view .LVU926
 2916 00c6 6B68     		ldr	r3, [r5, #4]
 375:/home/takumi/takumique/main/reservoir/app/cmcis/mat.c ****         for(unsigned m = 0; m < c->m; m++) {
 2917              		.loc 1 375 7 discriminator 1 view .LVU927
 2918 00c8 5345     		cmp	r3, r10
 2919 00ca 20D9     		bls	.L272
 2920              	.LBB66:
 376:/home/takumi/takumique/main/reservoir/app/cmcis/mat.c ****           *_MAT(*c, n, m) = *_MAT_T(*a, n, m) + *_MAT(*b, n, m);
 2921              		.loc 1 376 22 view .LVU928
 2922 00cc 4F46     		mov	r7, r9
ARM GAS  /tmp/ccgNCQ0i.s 			page 68


 2923              	.L245:
 2924              	.LVL234:
 376:/home/takumi/takumique/main/reservoir/app/cmcis/mat.c ****           *_MAT(*c, n, m) = *_MAT_T(*a, n, m) + *_MAT(*b, n, m);
 2925              		.loc 1 376 29 is_stmt 1 discriminator 1 view .LVU929
 376:/home/takumi/takumique/main/reservoir/app/cmcis/mat.c ****           *_MAT(*c, n, m) = *_MAT_T(*a, n, m) + *_MAT(*b, n, m);
 2926              		.loc 1 376 34 is_stmt 0 discriminator 1 view .LVU930
 2927 00ce AB68     		ldr	r3, [r5, #8]
 376:/home/takumi/takumique/main/reservoir/app/cmcis/mat.c ****           *_MAT(*c, n, m) = *_MAT_T(*a, n, m) + *_MAT(*b, n, m);
 2928              		.loc 1 376 9 discriminator 1 view .LVU931
 2929 00d0 BB42     		cmp	r3, r7
 2930 00d2 F6D9     		bls	.L273
 377:/home/takumi/takumique/main/reservoir/app/cmcis/mat.c ****         }
 2931              		.loc 1 377 11 is_stmt 1 discriminator 3 view .LVU932
 377:/home/takumi/takumique/main/reservoir/app/cmcis/mat.c ****         }
 2932              		.loc 1 377 30 is_stmt 0 discriminator 3 view .LVU933
 2933 00d4 3168     		ldr	r1, [r6]
 2934 00d6 7268     		ldr	r2, [r6, #4]
 2935 00d8 07FB02A2 		mla	r2, r7, r2, r10
 2936 00dc 01EBC201 		add	r1, r1, r2, lsl #3
 377:/home/takumi/takumique/main/reservoir/app/cmcis/mat.c ****         }
 2937              		.loc 1 377 50 discriminator 3 view .LVU934
 2938 00e0 2268     		ldr	r2, [r4]
 2939 00e2 A068     		ldr	r0, [r4, #8]
 2940 00e4 0AFB0070 		mla	r0, r10, r0, r7
 2941 00e8 02EBC002 		add	r2, r2, r0, lsl #3
 377:/home/takumi/takumique/main/reservoir/app/cmcis/mat.c ****         }
 2942              		.loc 1 377 12 discriminator 3 view .LVU935
 2943 00ec 2868     		ldr	r0, [r5]
 2944 00ee 0AFB0373 		mla	r3, r10, r3, r7
 2945 00f2 00EBC308 		add	r8, r0, r3, lsl #3
 377:/home/takumi/takumique/main/reservoir/app/cmcis/mat.c ****         }
 2946              		.loc 1 377 47 discriminator 3 view .LVU936
 2947 00f6 D2E90023 		ldrd	r2, [r2]
 2948 00fa D1E90001 		ldrd	r0, [r1]
 2949 00fe FFF7FEFF 		bl	__aeabi_dadd
 2950              	.LVL235:
 377:/home/takumi/takumique/main/reservoir/app/cmcis/mat.c ****         }
 2951              		.loc 1 377 27 discriminator 3 view .LVU937
 2952 0102 C8E90001 		strd	r0, [r8]
 376:/home/takumi/takumique/main/reservoir/app/cmcis/mat.c ****           *_MAT(*c, n, m) = *_MAT_T(*a, n, m) + *_MAT(*b, n, m);
 2953              		.loc 1 376 39 is_stmt 1 discriminator 3 view .LVU938
 376:/home/takumi/takumique/main/reservoir/app/cmcis/mat.c ****           *_MAT(*c, n, m) = *_MAT_T(*a, n, m) + *_MAT(*b, n, m);
 2954              		.loc 1 376 40 is_stmt 0 discriminator 3 view .LVU939
 2955 0106 0137     		adds	r7, r7, #1
 2956              	.LVL236:
 376:/home/takumi/takumique/main/reservoir/app/cmcis/mat.c ****           *_MAT(*c, n, m) = *_MAT_T(*a, n, m) + *_MAT(*b, n, m);
 2957              		.loc 1 376 40 discriminator 3 view .LVU940
 2958 0108 E1E7     		b	.L245
 2959              	.LVL237:
 2960              	.L279:
 376:/home/takumi/takumique/main/reservoir/app/cmcis/mat.c ****           *_MAT(*c, n, m) = *_MAT_T(*a, n, m) + *_MAT(*b, n, m);
 2961              		.loc 1 376 40 discriminator 3 view .LVU941
 2962              	.LBE66:
 375:/home/takumi/takumique/main/reservoir/app/cmcis/mat.c ****         for(unsigned m = 0; m < c->m; m++) {
 2963              		.loc 1 375 20 view .LVU942
 2964 010a CA46     		mov	r10, r9
 2965 010c DBE7     		b	.L243
ARM GAS  /tmp/ccgNCQ0i.s 			page 69


 2966              	.LVL238:
 2967              	.L272:
 375:/home/takumi/takumique/main/reservoir/app/cmcis/mat.c ****         for(unsigned m = 0; m < c->m; m++) {
 2968              		.loc 1 375 20 view .LVU943
 2969              	.LBE65:
 399:/home/takumi/takumique/main/reservoir/app/cmcis/mat.c **** }
 2970              		.loc 1 399 10 view .LVU944
 2971 010e 0020     		movs	r0, #0
 2972 0110 A9E7     		b	.L232
 2973              	.LVL239:
 2974              	.L275:
 2975              	.LBB67:
 383:/home/takumi/takumique/main/reservoir/app/cmcis/mat.c ****         for(unsigned m = 0; m < c->m; m++) {
 2976              		.loc 1 383 37 is_stmt 1 discriminator 2 view .LVU945
 383:/home/takumi/takumique/main/reservoir/app/cmcis/mat.c ****         for(unsigned m = 0; m < c->m; m++) {
 2977              		.loc 1 383 38 is_stmt 0 discriminator 2 view .LVU946
 2978 0112 0AF1010A 		add	r10, r10, #1
 2979              	.LVL240:
 2980              	.L247:
 383:/home/takumi/takumique/main/reservoir/app/cmcis/mat.c ****         for(unsigned m = 0; m < c->m; m++) {
 2981              		.loc 1 383 27 is_stmt 1 discriminator 1 view .LVU947
 383:/home/takumi/takumique/main/reservoir/app/cmcis/mat.c ****         for(unsigned m = 0; m < c->m; m++) {
 2982              		.loc 1 383 32 is_stmt 0 discriminator 1 view .LVU948
 2983 0116 6B68     		ldr	r3, [r5, #4]
 383:/home/takumi/takumique/main/reservoir/app/cmcis/mat.c ****         for(unsigned m = 0; m < c->m; m++) {
 2984              		.loc 1 383 7 discriminator 1 view .LVU949
 2985 0118 5345     		cmp	r3, r10
 2986 011a 1FD9     		bls	.L274
 2987              	.LBB68:
 384:/home/takumi/takumique/main/reservoir/app/cmcis/mat.c ****           *_MAT(*c, n, m) = *_MAT(*a, n, m) + *_MAT_T(*b, n, m);
 2988              		.loc 1 384 22 view .LVU950
 2989 011c B846     		mov	r8, r7
 2990              	.L249:
 2991              	.LVL241:
 384:/home/takumi/takumique/main/reservoir/app/cmcis/mat.c ****           *_MAT(*c, n, m) = *_MAT(*a, n, m) + *_MAT_T(*b, n, m);
 2992              		.loc 1 384 29 is_stmt 1 discriminator 1 view .LVU951
 384:/home/takumi/takumique/main/reservoir/app/cmcis/mat.c ****           *_MAT(*c, n, m) = *_MAT(*a, n, m) + *_MAT_T(*b, n, m);
 2993              		.loc 1 384 34 is_stmt 0 discriminator 1 view .LVU952
 2994 011e AB68     		ldr	r3, [r5, #8]
 384:/home/takumi/takumique/main/reservoir/app/cmcis/mat.c ****           *_MAT(*c, n, m) = *_MAT(*a, n, m) + *_MAT_T(*b, n, m);
 2995              		.loc 1 384 9 discriminator 1 view .LVU953
 2996 0120 4345     		cmp	r3, r8
 2997 0122 F6D9     		bls	.L275
 385:/home/takumi/takumique/main/reservoir/app/cmcis/mat.c ****         }
 2998              		.loc 1 385 11 is_stmt 1 discriminator 3 view .LVU954
 385:/home/takumi/takumique/main/reservoir/app/cmcis/mat.c ****         }
 2999              		.loc 1 385 30 is_stmt 0 discriminator 3 view .LVU955
 3000 0124 3168     		ldr	r1, [r6]
 3001 0126 B268     		ldr	r2, [r6, #8]
 3002 0128 0AFB0282 		mla	r2, r10, r2, r8
 3003 012c 01EBC201 		add	r1, r1, r2, lsl #3
 385:/home/takumi/takumique/main/reservoir/app/cmcis/mat.c ****         }
 3004              		.loc 1 385 48 discriminator 3 view .LVU956
 3005 0130 2268     		ldr	r2, [r4]
 3006 0132 6068     		ldr	r0, [r4, #4]
 3007 0134 08FB00A0 		mla	r0, r8, r0, r10
 3008 0138 02EBC002 		add	r2, r2, r0, lsl #3
ARM GAS  /tmp/ccgNCQ0i.s 			page 70


 385:/home/takumi/takumique/main/reservoir/app/cmcis/mat.c ****         }
 3009              		.loc 1 385 12 discriminator 3 view .LVU957
 3010 013c 2868     		ldr	r0, [r5]
 3011 013e 0AFB0383 		mla	r3, r10, r3, r8
 3012 0142 00EBC309 		add	r9, r0, r3, lsl #3
 385:/home/takumi/takumique/main/reservoir/app/cmcis/mat.c ****         }
 3013              		.loc 1 385 45 discriminator 3 view .LVU958
 3014 0146 D2E90023 		ldrd	r2, [r2]
 3015 014a D1E90001 		ldrd	r0, [r1]
 3016 014e FFF7FEFF 		bl	__aeabi_dadd
 3017              	.LVL242:
 385:/home/takumi/takumique/main/reservoir/app/cmcis/mat.c ****         }
 3018              		.loc 1 385 27 discriminator 3 view .LVU959
 3019 0152 C9E90001 		strd	r0, [r9]
 384:/home/takumi/takumique/main/reservoir/app/cmcis/mat.c ****           *_MAT(*c, n, m) = *_MAT(*a, n, m) + *_MAT_T(*b, n, m);
 3020              		.loc 1 384 39 is_stmt 1 discriminator 3 view .LVU960
 384:/home/takumi/takumique/main/reservoir/app/cmcis/mat.c ****           *_MAT(*c, n, m) = *_MAT(*a, n, m) + *_MAT_T(*b, n, m);
 3021              		.loc 1 384 40 is_stmt 0 discriminator 3 view .LVU961
 3022 0156 08F10108 		add	r8, r8, #1
 3023              	.LVL243:
 384:/home/takumi/takumique/main/reservoir/app/cmcis/mat.c ****           *_MAT(*c, n, m) = *_MAT(*a, n, m) + *_MAT_T(*b, n, m);
 3024              		.loc 1 384 40 discriminator 3 view .LVU962
 3025 015a E0E7     		b	.L249
 3026              	.LVL244:
 3027              	.L274:
 384:/home/takumi/takumique/main/reservoir/app/cmcis/mat.c ****           *_MAT(*c, n, m) = *_MAT(*a, n, m) + *_MAT_T(*b, n, m);
 3028              		.loc 1 384 40 discriminator 3 view .LVU963
 3029              	.LBE68:
 3030              	.LBE67:
 399:/home/takumi/takumique/main/reservoir/app/cmcis/mat.c **** }
 3031              		.loc 1 399 10 view .LVU964
 3032 015c 0020     		movs	r0, #0
 3033 015e 82E7     		b	.L232
 3034              	.LVL245:
 3035              	.L246:
 390:/home/takumi/takumique/main/reservoir/app/cmcis/mat.c ****       for(unsigned n = 0; n < c->n; n++) {
 3036              		.loc 1 390 5 is_stmt 1 view .LVU965
 390:/home/takumi/takumique/main/reservoir/app/cmcis/mat.c ****       for(unsigned n = 0; n < c->n; n++) {
 3037              		.loc 1 390 7 is_stmt 0 view .LVU966
 3038 0160 BFB9     		cbnz	r7, .L276
 3039              	.L250:
 359:/home/takumi/takumique/main/reservoir/app/cmcis/mat.c ****     if(c->n == 1 || c->m == 1) {
 3040              		.loc 1 359 3 is_stmt 1 view .LVU967
 360:/home/takumi/takumique/main/reservoir/app/cmcis/mat.c ****       for(unsigned i = 0; i < c->n * c->m; i++) {
 3041              		.loc 1 360 5 view .LVU968
 360:/home/takumi/takumique/main/reservoir/app/cmcis/mat.c ****       for(unsigned i = 0; i < c->n * c->m; i++) {
 3042              		.loc 1 360 7 is_stmt 0 view .LVU969
 3043 0162 012B     		cmp	r3, #1
 3044 0164 81D0     		beq	.L259
 360:/home/takumi/takumique/main/reservoir/app/cmcis/mat.c ****       for(unsigned i = 0; i < c->n * c->m; i++) {
 3045              		.loc 1 360 18 discriminator 1 view .LVU970
 3046 0166 012A     		cmp	r2, #1
 3047 0168 81D0     		beq	.L277
 366:/home/takumi/takumique/main/reservoir/app/cmcis/mat.c ****       for(unsigned n = 0; n < c->n; n++) {
 3048              		.loc 1 366 5 is_stmt 1 view .LVU971
 366:/home/takumi/takumique/main/reservoir/app/cmcis/mat.c ****       for(unsigned n = 0; n < c->n; n++) {
 3049              		.loc 1 366 10 is_stmt 0 view .LVU972
ARM GAS  /tmp/ccgNCQ0i.s 			page 71


 3050 016a F768     		ldr	r7, [r6, #12]
 366:/home/takumi/takumique/main/reservoir/app/cmcis/mat.c ****       for(unsigned n = 0; n < c->n; n++) {
 3051              		.loc 1 366 7 view .LVU973
 3052 016c 27B9     		cbnz	r7, .L238
 366:/home/takumi/takumique/main/reservoir/app/cmcis/mat.c ****       for(unsigned n = 0; n < c->n; n++) {
 3053              		.loc 1 366 19 discriminator 1 view .LVU974
 3054 016e D4F80C90 		ldr	r9, [r4, #12]
 366:/home/takumi/takumique/main/reservoir/app/cmcis/mat.c ****       for(unsigned n = 0; n < c->n; n++) {
 3055              		.loc 1 366 14 discriminator 1 view .LVU975
 3056 0172 B9F1000F 		cmp	r9, #0
 3057 0176 A0D0     		beq	.L278
 3058              	.L238:
 374:/home/takumi/takumique/main/reservoir/app/cmcis/mat.c ****       for(unsigned n = 0; n < c->n; n++) {
 3059              		.loc 1 374 5 is_stmt 1 view .LVU976
 374:/home/takumi/takumique/main/reservoir/app/cmcis/mat.c ****       for(unsigned n = 0; n < c->n; n++) {
 3060              		.loc 1 374 7 is_stmt 0 view .LVU977
 3061 0178 27B1     		cbz	r7, .L242
 374:/home/takumi/takumique/main/reservoir/app/cmcis/mat.c ****       for(unsigned n = 0; n < c->n; n++) {
 3062              		.loc 1 374 18 discriminator 1 view .LVU978
 3063 017a D4F80C90 		ldr	r9, [r4, #12]
 374:/home/takumi/takumique/main/reservoir/app/cmcis/mat.c ****       for(unsigned n = 0; n < c->n; n++) {
 3064              		.loc 1 374 13 discriminator 1 view .LVU979
 3065 017e B9F1000F 		cmp	r9, #0
 3066 0182 C2D0     		beq	.L279
 3067              	.L242:
 382:/home/takumi/takumique/main/reservoir/app/cmcis/mat.c ****       for(unsigned n = 0; n < c->n; n++) {
 3068              		.loc 1 382 5 is_stmt 1 view .LVU980
 382:/home/takumi/takumique/main/reservoir/app/cmcis/mat.c ****       for(unsigned n = 0; n < c->n; n++) {
 3069              		.loc 1 382 7 is_stmt 0 view .LVU981
 3070 0184 002F     		cmp	r7, #0
 3071 0186 EBD1     		bne	.L246
 382:/home/takumi/takumique/main/reservoir/app/cmcis/mat.c ****       for(unsigned n = 0; n < c->n; n++) {
 3072              		.loc 1 382 18 discriminator 1 view .LVU982
 3073 0188 E168     		ldr	r1, [r4, #12]
 382:/home/takumi/takumique/main/reservoir/app/cmcis/mat.c ****       for(unsigned n = 0; n < c->n; n++) {
 3074              		.loc 1 382 14 discriminator 1 view .LVU983
 3075 018a 0029     		cmp	r1, #0
 3076 018c E8D0     		beq	.L246
 3077              	.LBB69:
 383:/home/takumi/takumique/main/reservoir/app/cmcis/mat.c ****         for(unsigned m = 0; m < c->m; m++) {
 3078              		.loc 1 383 20 view .LVU984
 3079 018e BA46     		mov	r10, r7
 3080 0190 C1E7     		b	.L247
 3081              	.L276:
 383:/home/takumi/takumique/main/reservoir/app/cmcis/mat.c ****         for(unsigned m = 0; m < c->m; m++) {
 3082              		.loc 1 383 20 view .LVU985
 3083              	.LBE69:
 390:/home/takumi/takumique/main/reservoir/app/cmcis/mat.c ****       for(unsigned n = 0; n < c->n; n++) {
 3084              		.loc 1 390 17 discriminator 1 view .LVU986
 3085 0192 E168     		ldr	r1, [r4, #12]
 390:/home/takumi/takumique/main/reservoir/app/cmcis/mat.c ****       for(unsigned n = 0; n < c->n; n++) {
 3086              		.loc 1 390 13 discriminator 1 view .LVU987
 3087 0194 0029     		cmp	r1, #0
 3088 0196 E4D0     		beq	.L250
 3089              	.LBB70:
 391:/home/takumi/takumique/main/reservoir/app/cmcis/mat.c ****         for(unsigned m = 0; m < c->m; m++) {
 3090              		.loc 1 391 20 view .LVU988
ARM GAS  /tmp/ccgNCQ0i.s 			page 72


 3091 0198 4FF00009 		mov	r9, #0
 3092 019c 1EE0     		b	.L251
 3093              	.LVL246:
 3094              	.L253:
 3095              	.LBB71:
 393:/home/takumi/takumique/main/reservoir/app/cmcis/mat.c ****         }
 3096              		.loc 1 393 11 is_stmt 1 discriminator 3 view .LVU989
 393:/home/takumi/takumique/main/reservoir/app/cmcis/mat.c ****         }
 3097              		.loc 1 393 30 is_stmt 0 discriminator 3 view .LVU990
 3098 019e 3168     		ldr	r1, [r6]
 3099 01a0 7268     		ldr	r2, [r6, #4]
 3100 01a2 07FB0292 		mla	r2, r7, r2, r9
 3101 01a6 01EBC201 		add	r1, r1, r2, lsl #3
 393:/home/takumi/takumique/main/reservoir/app/cmcis/mat.c ****         }
 3102              		.loc 1 393 50 discriminator 3 view .LVU991
 3103 01aa 2268     		ldr	r2, [r4]
 3104 01ac 6068     		ldr	r0, [r4, #4]
 3105 01ae 07FB0090 		mla	r0, r7, r0, r9
 3106 01b2 02EBC002 		add	r2, r2, r0, lsl #3
 393:/home/takumi/takumique/main/reservoir/app/cmcis/mat.c ****         }
 3107              		.loc 1 393 12 discriminator 3 view .LVU992
 3108 01b6 2868     		ldr	r0, [r5]
 3109 01b8 09FB0373 		mla	r3, r9, r3, r7
 3110 01bc 00EBC308 		add	r8, r0, r3, lsl #3
 393:/home/takumi/takumique/main/reservoir/app/cmcis/mat.c ****         }
 3111              		.loc 1 393 47 discriminator 3 view .LVU993
 3112 01c0 D2E90023 		ldrd	r2, [r2]
 3113 01c4 D1E90001 		ldrd	r0, [r1]
 3114 01c8 FFF7FEFF 		bl	__aeabi_dadd
 3115              	.LVL247:
 393:/home/takumi/takumique/main/reservoir/app/cmcis/mat.c ****         }
 3116              		.loc 1 393 27 discriminator 3 view .LVU994
 3117 01cc C8E90001 		strd	r0, [r8]
 392:/home/takumi/takumique/main/reservoir/app/cmcis/mat.c ****           *_MAT(*c, n, m) = *_MAT_T(*a, n, m) + *_MAT_T(*b, n, m);
 3118              		.loc 1 392 39 is_stmt 1 discriminator 3 view .LVU995
 392:/home/takumi/takumique/main/reservoir/app/cmcis/mat.c ****           *_MAT(*c, n, m) = *_MAT_T(*a, n, m) + *_MAT_T(*b, n, m);
 3119              		.loc 1 392 40 is_stmt 0 discriminator 3 view .LVU996
 3120 01d0 0137     		adds	r7, r7, #1
 3121              	.LVL248:
 3122              	.L254:
 392:/home/takumi/takumique/main/reservoir/app/cmcis/mat.c ****           *_MAT(*c, n, m) = *_MAT_T(*a, n, m) + *_MAT_T(*b, n, m);
 3123              		.loc 1 392 29 is_stmt 1 discriminator 1 view .LVU997
 392:/home/takumi/takumique/main/reservoir/app/cmcis/mat.c ****           *_MAT(*c, n, m) = *_MAT_T(*a, n, m) + *_MAT_T(*b, n, m);
 3124              		.loc 1 392 34 is_stmt 0 discriminator 1 view .LVU998
 3125 01d2 AB68     		ldr	r3, [r5, #8]
 392:/home/takumi/takumique/main/reservoir/app/cmcis/mat.c ****           *_MAT(*c, n, m) = *_MAT_T(*a, n, m) + *_MAT_T(*b, n, m);
 3126              		.loc 1 392 9 discriminator 1 view .LVU999
 3127 01d4 BB42     		cmp	r3, r7
 3128 01d6 E2D8     		bhi	.L253
 3129              	.LBE71:
 391:/home/takumi/takumique/main/reservoir/app/cmcis/mat.c ****         for(unsigned m = 0; m < c->m; m++) {
 3130              		.loc 1 391 37 is_stmt 1 discriminator 2 view .LVU1000
 391:/home/takumi/takumique/main/reservoir/app/cmcis/mat.c ****         for(unsigned m = 0; m < c->m; m++) {
 3131              		.loc 1 391 38 is_stmt 0 discriminator 2 view .LVU1001
 3132 01d8 09F10109 		add	r9, r9, #1
 3133              	.LVL249:
 3134              	.L251:
ARM GAS  /tmp/ccgNCQ0i.s 			page 73


 391:/home/takumi/takumique/main/reservoir/app/cmcis/mat.c ****         for(unsigned m = 0; m < c->m; m++) {
 3135              		.loc 1 391 27 is_stmt 1 discriminator 1 view .LVU1002
 391:/home/takumi/takumique/main/reservoir/app/cmcis/mat.c ****         for(unsigned m = 0; m < c->m; m++) {
 3136              		.loc 1 391 32 is_stmt 0 discriminator 1 view .LVU1003
 3137 01dc 6B68     		ldr	r3, [r5, #4]
 391:/home/takumi/takumique/main/reservoir/app/cmcis/mat.c ****         for(unsigned m = 0; m < c->m; m++) {
 3138              		.loc 1 391 7 discriminator 1 view .LVU1004
 3139 01de 4B45     		cmp	r3, r9
 3140 01e0 01D9     		bls	.L280
 3141              	.LBB72:
 392:/home/takumi/takumique/main/reservoir/app/cmcis/mat.c ****           *_MAT(*c, n, m) = *_MAT_T(*a, n, m) + *_MAT_T(*b, n, m);
 3142              		.loc 1 392 22 view .LVU1005
 3143 01e2 0027     		movs	r7, #0
 3144 01e4 F5E7     		b	.L254
 3145              	.L280:
 3146              	.LBE72:
 3147              	.LBE70:
 399:/home/takumi/takumique/main/reservoir/app/cmcis/mat.c **** }
 3148              		.loc 1 399 10 view .LVU1006
 3149 01e6 0020     		movs	r0, #0
 3150              	.LBB73:
 3151 01e8 3DE7     		b	.L232
 3152              	.LVL250:
 3153              	.L255:
 399:/home/takumi/takumique/main/reservoir/app/cmcis/mat.c **** }
 3154              		.loc 1 399 10 view .LVU1007
 3155              	.LBE73:
 347:/home/takumi/takumique/main/reservoir/app/cmcis/mat.c ****   }
 3156              		.loc 1 347 12 view .LVU1008
 3157 01ea 4FF0FF30 		mov	r0, #-1
 3158              	.LVL251:
 347:/home/takumi/takumique/main/reservoir/app/cmcis/mat.c ****   }
 3159              		.loc 1 347 12 view .LVU1009
 3160 01ee 3AE7     		b	.L232
 3161              	.LVL252:
 3162              	.L256:
 350:/home/takumi/takumique/main/reservoir/app/cmcis/mat.c ****   }
 3163              		.loc 1 350 12 view .LVU1010
 3164 01f0 4FF0FF30 		mov	r0, #-1
 3165              	.LVL253:
 350:/home/takumi/takumique/main/reservoir/app/cmcis/mat.c ****   }
 3166              		.loc 1 350 12 view .LVU1011
 3167 01f4 37E7     		b	.L232
 3168              	.LVL254:
 3169              	.L257:
 353:/home/takumi/takumique/main/reservoir/app/cmcis/mat.c ****   }
 3170              		.loc 1 353 12 view .LVU1012
 3171 01f6 4FF0FF30 		mov	r0, #-1
 3172              	.LVL255:
 353:/home/takumi/takumique/main/reservoir/app/cmcis/mat.c ****   }
 3173              		.loc 1 353 12 view .LVU1013
 3174 01fa 34E7     		b	.L232
 3175              		.cfi_endproc
 3176              	.LFE162:
 3178              		.section	.text.mat_f64_add,"ax",%progbits
 3179              		.align	1
 3180              		.global	mat_f64_add
ARM GAS  /tmp/ccgNCQ0i.s 			page 74


 3181              		.syntax unified
 3182              		.thumb
 3183              		.thumb_func
 3184              		.fpu fpv4-sp-d16
 3186              	mat_f64_add:
 3187              	.LVL256:
 3188              	.LFB163:
 401:/home/takumi/takumique/main/reservoir/app/cmcis/mat.c **** 
 402:/home/takumi/takumique/main/reservoir/app/cmcis/mat.c **** int mat_f64_add(mat_f64_t *c, mat_f64_t *a, double l) {
 3189              		.loc 1 402 55 is_stmt 1 view -0
 3190              		.cfi_startproc
 3191              		@ args = 0, pretend = 0, frame = 0
 3192              		@ frame_needed = 0, uses_anonymous_args = 0
 3193              		.loc 1 402 55 is_stmt 0 view .LVU1015
 3194 0000 2DE9F843 		push	{r3, r4, r5, r6, r7, r8, r9, lr}
 3195              	.LCFI29:
 3196              		.cfi_def_cfa_offset 32
 3197              		.cfi_offset 3, -32
 3198              		.cfi_offset 4, -28
 3199              		.cfi_offset 5, -24
 3200              		.cfi_offset 6, -20
 3201              		.cfi_offset 7, -16
 3202              		.cfi_offset 8, -12
 3203              		.cfi_offset 9, -8
 3204              		.cfi_offset 14, -4
 403:/home/takumi/takumique/main/reservoir/app/cmcis/mat.c **** #ifdef CHECK_ARGS
 404:/home/takumi/takumique/main/reservoir/app/cmcis/mat.c ****   if(c->n != a->n) {
 3205              		.loc 1 404 3 is_stmt 1 view .LVU1016
 3206              		.loc 1 404 7 is_stmt 0 view .LVU1017
 3207 0004 4268     		ldr	r2, [r0, #4]
 3208              		.loc 1 404 15 view .LVU1018
 3209 0006 4B68     		ldr	r3, [r1, #4]
 3210              		.loc 1 404 5 view .LVU1019
 3211 0008 9A42     		cmp	r2, r3
 3212 000a 25D1     		bne	.L285
 3213 000c 8046     		mov	r8, r0
 3214 000e 8946     		mov	r9, r1
 3215 0010 57EC106B 		vmov	r6, r7, d0
 405:/home/takumi/takumique/main/reservoir/app/cmcis/mat.c ****     return -1;
 406:/home/takumi/takumique/main/reservoir/app/cmcis/mat.c ****   }
 407:/home/takumi/takumique/main/reservoir/app/cmcis/mat.c ****   if(c->m != a->m) {
 3216              		.loc 1 407 3 is_stmt 1 view .LVU1020
 3217              		.loc 1 407 7 is_stmt 0 view .LVU1021
 3218 0014 8268     		ldr	r2, [r0, #8]
 3219              		.loc 1 407 15 view .LVU1022
 3220 0016 8B68     		ldr	r3, [r1, #8]
 3221              		.loc 1 407 5 view .LVU1023
 3222 0018 9A42     		cmp	r2, r3
 3223 001a 20D1     		bne	.L286
 3224              	.LBB74:
 408:/home/takumi/takumique/main/reservoir/app/cmcis/mat.c ****     return -1;
 409:/home/takumi/takumique/main/reservoir/app/cmcis/mat.c ****   }
 410:/home/takumi/takumique/main/reservoir/app/cmcis/mat.c **** #endif
 411:/home/takumi/takumique/main/reservoir/app/cmcis/mat.c ****   for(unsigned i = 0; i < c->n * c->m; i++) {
 3225              		.loc 1 411 16 view .LVU1024
 3226 001c 0024     		movs	r4, #0
 3227 001e 10E0     		b	.L283
ARM GAS  /tmp/ccgNCQ0i.s 			page 75


 3228              	.LVL257:
 3229              	.L284:
 412:/home/takumi/takumique/main/reservoir/app/cmcis/mat.c ****     *(c->data + i) = *(a->data + i) + l;
 3230              		.loc 1 412 5 is_stmt 1 discriminator 3 view .LVU1025
 3231              		.loc 1 412 25 is_stmt 0 discriminator 3 view .LVU1026
 3232 0020 D9F80030 		ldr	r3, [r9]
 3233              		.loc 1 412 32 discriminator 3 view .LVU1027
 3234 0024 03EBC401 		add	r1, r3, r4, lsl #3
 3235              		.loc 1 412 8 discriminator 3 view .LVU1028
 3236 0028 D8F80050 		ldr	r5, [r8]
 3237              		.loc 1 412 15 discriminator 3 view .LVU1029
 3238 002c 05EBC405 		add	r5, r5, r4, lsl #3
 3239              		.loc 1 412 37 discriminator 3 view .LVU1030
 3240 0030 3246     		mov	r2, r6
 3241 0032 3B46     		mov	r3, r7
 3242 0034 D1E90001 		ldrd	r0, [r1]
 3243 0038 FFF7FEFF 		bl	__aeabi_dadd
 3244              	.LVL258:
 3245              		.loc 1 412 20 discriminator 3 view .LVU1031
 3246 003c C5E90001 		strd	r0, [r5]
 411:/home/takumi/takumique/main/reservoir/app/cmcis/mat.c ****     *(c->data + i) = *(a->data + i) + l;
 3247              		.loc 1 411 40 is_stmt 1 discriminator 3 view .LVU1032
 411:/home/takumi/takumique/main/reservoir/app/cmcis/mat.c ****     *(c->data + i) = *(a->data + i) + l;
 3248              		.loc 1 411 41 is_stmt 0 discriminator 3 view .LVU1033
 3249 0040 0134     		adds	r4, r4, #1
 3250              	.LVL259:
 3251              	.L283:
 411:/home/takumi/takumique/main/reservoir/app/cmcis/mat.c ****     *(c->data + i) = *(a->data + i) + l;
 3252              		.loc 1 411 23 is_stmt 1 discriminator 1 view .LVU1034
 411:/home/takumi/takumique/main/reservoir/app/cmcis/mat.c ****     *(c->data + i) = *(a->data + i) + l;
 3253              		.loc 1 411 28 is_stmt 0 discriminator 1 view .LVU1035
 3254 0042 D8F80420 		ldr	r2, [r8, #4]
 411:/home/takumi/takumique/main/reservoir/app/cmcis/mat.c ****     *(c->data + i) = *(a->data + i) + l;
 3255              		.loc 1 411 35 discriminator 1 view .LVU1036
 3256 0046 D8F80830 		ldr	r3, [r8, #8]
 411:/home/takumi/takumique/main/reservoir/app/cmcis/mat.c ****     *(c->data + i) = *(a->data + i) + l;
 3257              		.loc 1 411 32 discriminator 1 view .LVU1037
 3258 004a 03FB02F3 		mul	r3, r3, r2
 411:/home/takumi/takumique/main/reservoir/app/cmcis/mat.c ****     *(c->data + i) = *(a->data + i) + l;
 3259              		.loc 1 411 3 discriminator 1 view .LVU1038
 3260 004e A342     		cmp	r3, r4
 3261 0050 E6D8     		bhi	.L284
 3262              	.LBE74:
 413:/home/takumi/takumique/main/reservoir/app/cmcis/mat.c ****   }
 414:/home/takumi/takumique/main/reservoir/app/cmcis/mat.c ****   return 0;
 3263              		.loc 1 414 10 view .LVU1039
 3264 0052 0020     		movs	r0, #0
 3265              	.LVL260:
 3266              	.L281:
 415:/home/takumi/takumique/main/reservoir/app/cmcis/mat.c **** }
 3267              		.loc 1 415 1 view .LVU1040
 3268 0054 BDE8F883 		pop	{r3, r4, r5, r6, r7, r8, r9, pc}
 3269              	.LVL261:
 3270              	.L285:
 405:/home/takumi/takumique/main/reservoir/app/cmcis/mat.c ****   }
 3271              		.loc 1 405 12 view .LVU1041
 3272 0058 4FF0FF30 		mov	r0, #-1
ARM GAS  /tmp/ccgNCQ0i.s 			page 76


 3273              	.LVL262:
 405:/home/takumi/takumique/main/reservoir/app/cmcis/mat.c ****   }
 3274              		.loc 1 405 12 view .LVU1042
 3275 005c FAE7     		b	.L281
 3276              	.LVL263:
 3277              	.L286:
 408:/home/takumi/takumique/main/reservoir/app/cmcis/mat.c ****   }
 3278              		.loc 1 408 12 view .LVU1043
 3279 005e 4FF0FF30 		mov	r0, #-1
 3280              	.LVL264:
 408:/home/takumi/takumique/main/reservoir/app/cmcis/mat.c ****   }
 3281              		.loc 1 408 12 view .LVU1044
 3282 0062 F7E7     		b	.L281
 3283              		.cfi_endproc
 3284              	.LFE163:
 3286              		.section	.text.mat_f64_product,"ax",%progbits
 3287              		.align	1
 3288              		.global	mat_f64_product
 3289              		.syntax unified
 3290              		.thumb
 3291              		.thumb_func
 3292              		.fpu fpv4-sp-d16
 3294              	mat_f64_product:
 3295              	.LVL265:
 3296              	.LFB164:
 416:/home/takumi/takumique/main/reservoir/app/cmcis/mat.c **** 
 417:/home/takumi/takumique/main/reservoir/app/cmcis/mat.c **** int mat_f64_product(mat_f64_t *c, mat_f64_t *a, mat_f64_t *b) {
 3297              		.loc 1 417 63 is_stmt 1 view -0
 3298              		.cfi_startproc
 3299              		@ args = 0, pretend = 0, frame = 0
 3300              		@ frame_needed = 0, uses_anonymous_args = 0
 3301              		.loc 1 417 63 is_stmt 0 view .LVU1046
 3302 0000 2DE9F84F 		push	{r3, r4, r5, r6, r7, r8, r9, r10, fp, lr}
 3303              	.LCFI30:
 3304              		.cfi_def_cfa_offset 40
 3305              		.cfi_offset 3, -40
 3306              		.cfi_offset 4, -36
 3307              		.cfi_offset 5, -32
 3308              		.cfi_offset 6, -28
 3309              		.cfi_offset 7, -24
 3310              		.cfi_offset 8, -20
 3311              		.cfi_offset 9, -16
 3312              		.cfi_offset 10, -12
 3313              		.cfi_offset 11, -8
 3314              		.cfi_offset 14, -4
 3315 0004 1646     		mov	r6, r2
 418:/home/takumi/takumique/main/reservoir/app/cmcis/mat.c **** #ifdef CHECK_ARGS
 419:/home/takumi/takumique/main/reservoir/app/cmcis/mat.c ****   if(c->n != a->n) {
 3316              		.loc 1 419 3 is_stmt 1 view .LVU1047
 3317              		.loc 1 419 7 is_stmt 0 view .LVU1048
 3318 0006 4268     		ldr	r2, [r0, #4]
 3319              	.LVL266:
 3320              		.loc 1 419 15 view .LVU1049
 3321 0008 4B68     		ldr	r3, [r1, #4]
 3322              		.loc 1 419 5 view .LVU1050
 3323 000a 9A42     		cmp	r2, r3
 3324 000c 40F02B81 		bne	.L315
ARM GAS  /tmp/ccgNCQ0i.s 			page 77


 3325 0010 0546     		mov	r5, r0
 3326 0012 0C46     		mov	r4, r1
 420:/home/takumi/takumique/main/reservoir/app/cmcis/mat.c ****     return -1;
 421:/home/takumi/takumique/main/reservoir/app/cmcis/mat.c ****   }
 422:/home/takumi/takumique/main/reservoir/app/cmcis/mat.c ****   if(c->m != b->m) {
 3327              		.loc 1 422 3 is_stmt 1 view .LVU1051
 3328              		.loc 1 422 7 is_stmt 0 view .LVU1052
 3329 0014 8268     		ldr	r2, [r0, #8]
 3330              		.loc 1 422 15 view .LVU1053
 3331 0016 B368     		ldr	r3, [r6, #8]
 3332              		.loc 1 422 5 view .LVU1054
 3333 0018 9A42     		cmp	r2, r3
 3334 001a 40F02781 		bne	.L316
 423:/home/takumi/takumique/main/reservoir/app/cmcis/mat.c ****     return -1;
 424:/home/takumi/takumique/main/reservoir/app/cmcis/mat.c ****   }
 425:/home/takumi/takumique/main/reservoir/app/cmcis/mat.c ****   if(a->m != b->n) {
 3335              		.loc 1 425 3 is_stmt 1 view .LVU1055
 3336              		.loc 1 425 7 is_stmt 0 view .LVU1056
 3337 001e 8A68     		ldr	r2, [r1, #8]
 3338              		.loc 1 425 15 view .LVU1057
 3339 0020 7368     		ldr	r3, [r6, #4]
 3340              		.loc 1 425 5 view .LVU1058
 3341 0022 9A42     		cmp	r2, r3
 3342 0024 40F02581 		bne	.L317
 426:/home/takumi/takumique/main/reservoir/app/cmcis/mat.c ****     return -1;
 427:/home/takumi/takumique/main/reservoir/app/cmcis/mat.c ****   }
 428:/home/takumi/takumique/main/reservoir/app/cmcis/mat.c **** #endif
 429:/home/takumi/takumique/main/reservoir/app/cmcis/mat.c ****   c->t = 0;
 3343              		.loc 1 429 3 is_stmt 1 view .LVU1059
 3344              		.loc 1 429 8 is_stmt 0 view .LVU1060
 3345 0028 0023     		movs	r3, #0
 3346 002a C360     		str	r3, [r0, #12]
 3347 002c BCE0     		b	.L308
 3348              	.LVL267:
 3349              	.L293:
 3350              	.LBB75:
 3351              	.LBB76:
 3352              	.LBB77:
 430:/home/takumi/takumique/main/reservoir/app/cmcis/mat.c ****   for(;;) {
 431:/home/takumi/takumique/main/reservoir/app/cmcis/mat.c ****     if(!a->t && !b->t) {
 432:/home/takumi/takumique/main/reservoir/app/cmcis/mat.c ****       for(unsigned n = 0; n < c->n; n++) {
 433:/home/takumi/takumique/main/reservoir/app/cmcis/mat.c ****         for(unsigned m = 0; m < c->m; m++) {
 434:/home/takumi/takumique/main/reservoir/app/cmcis/mat.c ****           *_MAT(*c, n, m) = 0;
 435:/home/takumi/takumique/main/reservoir/app/cmcis/mat.c ****           for(unsigned p = 0; p < a->m; p++) {
 436:/home/takumi/takumique/main/reservoir/app/cmcis/mat.c ****             *_MAT(*c, n, m) += *_MAT(*a, n, p) * *_MAT(*b, p, m);
 3353              		.loc 1 436 13 is_stmt 1 discriminator 3 view .LVU1061
 3354              		.loc 1 436 14 is_stmt 0 discriminator 3 view .LVU1062
 3355 002e 2968     		ldr	r1, [r5]
 3356 0030 AA68     		ldr	r2, [r5, #8]
 3357              		.loc 1 436 29 discriminator 3 view .LVU1063
 3358 0032 0AFB0292 		mla	r2, r10, r2, r9
 3359 0036 01EBC208 		add	r8, r1, r2, lsl #3
 3360              		.loc 1 436 33 discriminator 3 view .LVU1064
 3361 003a 2168     		ldr	r1, [r4]
 3362 003c 0AFB0373 		mla	r3, r10, r3, r7
 3363 0040 01EBC301 		add	r1, r1, r3, lsl #3
 3364              		.loc 1 436 51 discriminator 3 view .LVU1065
ARM GAS  /tmp/ccgNCQ0i.s 			page 78


 3365 0044 3368     		ldr	r3, [r6]
 3366 0046 B268     		ldr	r2, [r6, #8]
 3367 0048 07FB0292 		mla	r2, r7, r2, r9
 3368 004c 03EBC203 		add	r3, r3, r2, lsl #3
 3369              		.loc 1 436 48 discriminator 3 view .LVU1066
 3370 0050 D3E90023 		ldrd	r2, [r3]
 3371 0054 D1E90001 		ldrd	r0, [r1]
 3372 0058 FFF7FEFF 		bl	__aeabi_dmul
 3373              	.LVL268:
 3374 005c 0246     		mov	r2, r0
 3375 005e 0B46     		mov	r3, r1
 3376              		.loc 1 436 29 discriminator 3 view .LVU1067
 3377 0060 D8E90001 		ldrd	r0, [r8]
 3378 0064 FFF7FEFF 		bl	__aeabi_dadd
 3379              	.LVL269:
 3380 0068 C8E90001 		strd	r0, [r8]
 435:/home/takumi/takumique/main/reservoir/app/cmcis/mat.c ****             *_MAT(*c, n, m) += *_MAT(*a, n, p) * *_MAT(*b, p, m);
 3381              		.loc 1 435 41 is_stmt 1 discriminator 3 view .LVU1068
 435:/home/takumi/takumique/main/reservoir/app/cmcis/mat.c ****             *_MAT(*c, n, m) += *_MAT(*a, n, p) * *_MAT(*b, p, m);
 3382              		.loc 1 435 42 is_stmt 0 discriminator 3 view .LVU1069
 3383 006c 0137     		adds	r7, r7, #1
 3384              	.LVL270:
 3385              	.L292:
 435:/home/takumi/takumique/main/reservoir/app/cmcis/mat.c ****             *_MAT(*c, n, m) += *_MAT(*a, n, p) * *_MAT(*b, p, m);
 3386              		.loc 1 435 31 is_stmt 1 discriminator 1 view .LVU1070
 435:/home/takumi/takumique/main/reservoir/app/cmcis/mat.c ****             *_MAT(*c, n, m) += *_MAT(*a, n, p) * *_MAT(*b, p, m);
 3387              		.loc 1 435 36 is_stmt 0 discriminator 1 view .LVU1071
 3388 006e A368     		ldr	r3, [r4, #8]
 435:/home/takumi/takumique/main/reservoir/app/cmcis/mat.c ****             *_MAT(*c, n, m) += *_MAT(*a, n, p) * *_MAT(*b, p, m);
 3389              		.loc 1 435 11 discriminator 1 view .LVU1072
 3390 0070 BB42     		cmp	r3, r7
 3391 0072 DCD8     		bhi	.L293
 3392              	.LBE77:
 433:/home/takumi/takumique/main/reservoir/app/cmcis/mat.c ****           *_MAT(*c, n, m) = 0;
 3393              		.loc 1 433 39 is_stmt 1 discriminator 2 view .LVU1073
 433:/home/takumi/takumique/main/reservoir/app/cmcis/mat.c ****           *_MAT(*c, n, m) = 0;
 3394              		.loc 1 433 40 is_stmt 0 discriminator 2 view .LVU1074
 3395 0074 09F10109 		add	r9, r9, #1
 3396              	.LVL271:
 3397              	.L295:
 433:/home/takumi/takumique/main/reservoir/app/cmcis/mat.c ****           *_MAT(*c, n, m) = 0;
 3398              		.loc 1 433 29 is_stmt 1 discriminator 1 view .LVU1075
 433:/home/takumi/takumique/main/reservoir/app/cmcis/mat.c ****           *_MAT(*c, n, m) = 0;
 3399              		.loc 1 433 34 is_stmt 0 discriminator 1 view .LVU1076
 3400 0078 AB68     		ldr	r3, [r5, #8]
 433:/home/takumi/takumique/main/reservoir/app/cmcis/mat.c ****           *_MAT(*c, n, m) = 0;
 3401              		.loc 1 433 9 discriminator 1 view .LVU1077
 3402 007a 4B45     		cmp	r3, r9
 3403 007c 0AD9     		bls	.L327
 434:/home/takumi/takumique/main/reservoir/app/cmcis/mat.c ****           for(unsigned p = 0; p < a->m; p++) {
 3404              		.loc 1 434 11 is_stmt 1 view .LVU1078
 434:/home/takumi/takumique/main/reservoir/app/cmcis/mat.c ****           for(unsigned p = 0; p < a->m; p++) {
 3405              		.loc 1 434 12 is_stmt 0 view .LVU1079
 3406 007e 2A68     		ldr	r2, [r5]
 3407 0080 0AFB0393 		mla	r3, r10, r3, r9
 3408 0084 02EBC303 		add	r3, r2, r3, lsl #3
 434:/home/takumi/takumique/main/reservoir/app/cmcis/mat.c ****           for(unsigned p = 0; p < a->m; p++) {
ARM GAS  /tmp/ccgNCQ0i.s 			page 79


 3409              		.loc 1 434 27 view .LVU1080
 3410 0088 0020     		movs	r0, #0
 3411 008a 0021     		movs	r1, #0
 3412 008c C3E90001 		strd	r0, [r3]
 435:/home/takumi/takumique/main/reservoir/app/cmcis/mat.c ****             *_MAT(*c, n, m) += *_MAT(*a, n, p) * *_MAT(*b, p, m);
 3413              		.loc 1 435 11 is_stmt 1 view .LVU1081
 3414              	.LBB78:
 435:/home/takumi/takumique/main/reservoir/app/cmcis/mat.c ****             *_MAT(*c, n, m) += *_MAT(*a, n, p) * *_MAT(*b, p, m);
 3415              		.loc 1 435 15 view .LVU1082
 3416              	.LVL272:
 435:/home/takumi/takumique/main/reservoir/app/cmcis/mat.c ****             *_MAT(*c, n, m) += *_MAT(*a, n, p) * *_MAT(*b, p, m);
 3417              		.loc 1 435 24 is_stmt 0 view .LVU1083
 3418 0090 5F46     		mov	r7, fp
 435:/home/takumi/takumique/main/reservoir/app/cmcis/mat.c ****             *_MAT(*c, n, m) += *_MAT(*a, n, p) * *_MAT(*b, p, m);
 3419              		.loc 1 435 11 view .LVU1084
 3420 0092 ECE7     		b	.L292
 3421              	.LVL273:
 3422              	.L327:
 435:/home/takumi/takumique/main/reservoir/app/cmcis/mat.c ****             *_MAT(*c, n, m) += *_MAT(*a, n, p) * *_MAT(*b, p, m);
 3423              		.loc 1 435 11 view .LVU1085
 3424              	.LBE78:
 3425              	.LBE76:
 432:/home/takumi/takumique/main/reservoir/app/cmcis/mat.c ****         for(unsigned m = 0; m < c->m; m++) {
 3426              		.loc 1 432 37 is_stmt 1 discriminator 2 view .LVU1086
 432:/home/takumi/takumique/main/reservoir/app/cmcis/mat.c ****         for(unsigned m = 0; m < c->m; m++) {
 3427              		.loc 1 432 38 is_stmt 0 discriminator 2 view .LVU1087
 3428 0094 0AF1010A 		add	r10, r10, #1
 3429              	.LVL274:
 3430              	.L291:
 432:/home/takumi/takumique/main/reservoir/app/cmcis/mat.c ****         for(unsigned m = 0; m < c->m; m++) {
 3431              		.loc 1 432 27 is_stmt 1 discriminator 1 view .LVU1088
 432:/home/takumi/takumique/main/reservoir/app/cmcis/mat.c ****         for(unsigned m = 0; m < c->m; m++) {
 3432              		.loc 1 432 32 is_stmt 0 discriminator 1 view .LVU1089
 3433 0098 6B68     		ldr	r3, [r5, #4]
 432:/home/takumi/takumique/main/reservoir/app/cmcis/mat.c ****         for(unsigned m = 0; m < c->m; m++) {
 3434              		.loc 1 432 7 discriminator 1 view .LVU1090
 3435 009a 5345     		cmp	r3, r10
 3436 009c 03D9     		bls	.L328
 3437              	.LBB79:
 433:/home/takumi/takumique/main/reservoir/app/cmcis/mat.c ****           *_MAT(*c, n, m) = 0;
 3438              		.loc 1 433 22 view .LVU1091
 3439 009e D946     		mov	r9, fp
 3440 00a0 EAE7     		b	.L295
 3441              	.LVL275:
 3442              	.L336:
 433:/home/takumi/takumique/main/reservoir/app/cmcis/mat.c ****           *_MAT(*c, n, m) = 0;
 3443              		.loc 1 433 22 view .LVU1092
 3444              	.LBE79:
 432:/home/takumi/takumique/main/reservoir/app/cmcis/mat.c ****         for(unsigned m = 0; m < c->m; m++) {
 3445              		.loc 1 432 20 view .LVU1093
 3446 00a2 DA46     		mov	r10, fp
 3447 00a4 F8E7     		b	.L291
 3448              	.LVL276:
 3449              	.L328:
 432:/home/takumi/takumique/main/reservoir/app/cmcis/mat.c ****         for(unsigned m = 0; m < c->m; m++) {
 3450              		.loc 1 432 20 view .LVU1094
 3451              	.LBE75:
ARM GAS  /tmp/ccgNCQ0i.s 			page 80


 437:/home/takumi/takumique/main/reservoir/app/cmcis/mat.c ****           }
 438:/home/takumi/takumique/main/reservoir/app/cmcis/mat.c ****         }
 439:/home/takumi/takumique/main/reservoir/app/cmcis/mat.c ****       }
 440:/home/takumi/takumique/main/reservoir/app/cmcis/mat.c ****       break;
 441:/home/takumi/takumique/main/reservoir/app/cmcis/mat.c ****     }
 442:/home/takumi/takumique/main/reservoir/app/cmcis/mat.c ****     if(a->t && !b->t) {
 443:/home/takumi/takumique/main/reservoir/app/cmcis/mat.c ****       for(unsigned n = 0; n < c->n; n++) {
 444:/home/takumi/takumique/main/reservoir/app/cmcis/mat.c ****         for(unsigned m = 0; m < c->m; m++) {
 445:/home/takumi/takumique/main/reservoir/app/cmcis/mat.c ****           *_MAT(*c, n, m) = 0;
 446:/home/takumi/takumique/main/reservoir/app/cmcis/mat.c ****           for(unsigned p = 0; p < a->m; p++) {
 447:/home/takumi/takumique/main/reservoir/app/cmcis/mat.c ****             *_MAT(*c, n, m) += *_MAT_T(*a, n, p) * *_MAT(*b, p, m);
 448:/home/takumi/takumique/main/reservoir/app/cmcis/mat.c ****           }
 449:/home/takumi/takumique/main/reservoir/app/cmcis/mat.c ****         }
 450:/home/takumi/takumique/main/reservoir/app/cmcis/mat.c ****       }
 451:/home/takumi/takumique/main/reservoir/app/cmcis/mat.c ****       break;
 452:/home/takumi/takumique/main/reservoir/app/cmcis/mat.c ****     }
 453:/home/takumi/takumique/main/reservoir/app/cmcis/mat.c ****     if(!a->t && b->t) {
 454:/home/takumi/takumique/main/reservoir/app/cmcis/mat.c ****       for(unsigned n = 0; n < c->n; n++) {
 455:/home/takumi/takumique/main/reservoir/app/cmcis/mat.c ****         for(unsigned m = 0; m < c->m; m++) {
 456:/home/takumi/takumique/main/reservoir/app/cmcis/mat.c ****           *_MAT(*c, n, m) = 0;
 457:/home/takumi/takumique/main/reservoir/app/cmcis/mat.c ****           for(unsigned p = 0; p < a->m; p++) {
 458:/home/takumi/takumique/main/reservoir/app/cmcis/mat.c ****             *_MAT(*c, n, m) += *_MAT(*a, n, p) * *_MAT_T(*b, p, m);
 459:/home/takumi/takumique/main/reservoir/app/cmcis/mat.c ****           }
 460:/home/takumi/takumique/main/reservoir/app/cmcis/mat.c ****         }
 461:/home/takumi/takumique/main/reservoir/app/cmcis/mat.c ****       }
 462:/home/takumi/takumique/main/reservoir/app/cmcis/mat.c ****       break;
 463:/home/takumi/takumique/main/reservoir/app/cmcis/mat.c ****     }
 464:/home/takumi/takumique/main/reservoir/app/cmcis/mat.c ****     if(a->t && b->t) {
 465:/home/takumi/takumique/main/reservoir/app/cmcis/mat.c ****       for(unsigned n = 0; n < c->n; n++) {
 466:/home/takumi/takumique/main/reservoir/app/cmcis/mat.c ****         for(unsigned m = 0; m < c->m; m++) {
 467:/home/takumi/takumique/main/reservoir/app/cmcis/mat.c ****           *_MAT(*c, n, m) = 0;
 468:/home/takumi/takumique/main/reservoir/app/cmcis/mat.c ****           for(unsigned p = 0; p < a->m; p++) {
 469:/home/takumi/takumique/main/reservoir/app/cmcis/mat.c ****             *_MAT(*c, n, m) += *_MAT_T(*a, n, p) * *_MAT_T(*b, p, m);
 470:/home/takumi/takumique/main/reservoir/app/cmcis/mat.c ****           }
 471:/home/takumi/takumique/main/reservoir/app/cmcis/mat.c ****         }
 472:/home/takumi/takumique/main/reservoir/app/cmcis/mat.c ****       }
 473:/home/takumi/takumique/main/reservoir/app/cmcis/mat.c ****       break;
 474:/home/takumi/takumique/main/reservoir/app/cmcis/mat.c ****     }
 475:/home/takumi/takumique/main/reservoir/app/cmcis/mat.c ****   }
 476:/home/takumi/takumique/main/reservoir/app/cmcis/mat.c ****   return 0;
 3452              		.loc 1 476 10 view .LVU1095
 3453 00a6 0020     		movs	r0, #0
 3454              	.LVL277:
 3455              	.L288:
 477:/home/takumi/takumique/main/reservoir/app/cmcis/mat.c **** }
 3456              		.loc 1 477 1 view .LVU1096
 3457 00a8 BDE8F88F 		pop	{r3, r4, r5, r6, r7, r8, r9, r10, fp, pc}
 3458              	.LVL278:
 3459              	.L330:
 3460              	.LBB80:
 3461              	.LBB81:
 444:/home/takumi/takumique/main/reservoir/app/cmcis/mat.c ****           *_MAT(*c, n, m) = 0;
 3462              		.loc 1 444 39 is_stmt 1 discriminator 2 view .LVU1097
 444:/home/takumi/takumique/main/reservoir/app/cmcis/mat.c ****           *_MAT(*c, n, m) = 0;
 3463              		.loc 1 444 40 is_stmt 0 discriminator 2 view .LVU1098
 3464 00ac 09F10109 		add	r9, r9, #1
 3465              	.LVL279:
ARM GAS  /tmp/ccgNCQ0i.s 			page 81


 3466              	.L301:
 444:/home/takumi/takumique/main/reservoir/app/cmcis/mat.c ****           *_MAT(*c, n, m) = 0;
 3467              		.loc 1 444 29 is_stmt 1 discriminator 1 view .LVU1099
 444:/home/takumi/takumique/main/reservoir/app/cmcis/mat.c ****           *_MAT(*c, n, m) = 0;
 3468              		.loc 1 444 34 is_stmt 0 discriminator 1 view .LVU1100
 3469 00b0 AB68     		ldr	r3, [r5, #8]
 444:/home/takumi/takumique/main/reservoir/app/cmcis/mat.c ****           *_MAT(*c, n, m) = 0;
 3470              		.loc 1 444 9 discriminator 1 view .LVU1101
 3471 00b2 4B45     		cmp	r3, r9
 3472 00b4 2ED9     		bls	.L329
 445:/home/takumi/takumique/main/reservoir/app/cmcis/mat.c ****           for(unsigned p = 0; p < a->m; p++) {
 3473              		.loc 1 445 11 is_stmt 1 view .LVU1102
 445:/home/takumi/takumique/main/reservoir/app/cmcis/mat.c ****           for(unsigned p = 0; p < a->m; p++) {
 3474              		.loc 1 445 12 is_stmt 0 view .LVU1103
 3475 00b6 2A68     		ldr	r2, [r5]
 3476 00b8 0AFB0393 		mla	r3, r10, r3, r9
 3477 00bc 02EBC303 		add	r3, r2, r3, lsl #3
 445:/home/takumi/takumique/main/reservoir/app/cmcis/mat.c ****           for(unsigned p = 0; p < a->m; p++) {
 3478              		.loc 1 445 27 view .LVU1104
 3479 00c0 0020     		movs	r0, #0
 3480 00c2 0021     		movs	r1, #0
 3481 00c4 C3E90001 		strd	r0, [r3]
 446:/home/takumi/takumique/main/reservoir/app/cmcis/mat.c ****             *_MAT(*c, n, m) += *_MAT_T(*a, n, p) * *_MAT(*b, p, m);
 3482              		.loc 1 446 11 is_stmt 1 view .LVU1105
 3483              	.LBB82:
 446:/home/takumi/takumique/main/reservoir/app/cmcis/mat.c ****             *_MAT(*c, n, m) += *_MAT_T(*a, n, p) * *_MAT(*b, p, m);
 3484              		.loc 1 446 15 view .LVU1106
 3485              	.LVL280:
 446:/home/takumi/takumique/main/reservoir/app/cmcis/mat.c ****             *_MAT(*c, n, m) += *_MAT_T(*a, n, p) * *_MAT(*b, p, m);
 3486              		.loc 1 446 24 is_stmt 0 view .LVU1107
 3487 00c8 5F46     		mov	r7, fp
 3488              	.LVL281:
 3489              	.L298:
 446:/home/takumi/takumique/main/reservoir/app/cmcis/mat.c ****             *_MAT(*c, n, m) += *_MAT_T(*a, n, p) * *_MAT(*b, p, m);
 3490              		.loc 1 446 31 is_stmt 1 discriminator 1 view .LVU1108
 446:/home/takumi/takumique/main/reservoir/app/cmcis/mat.c ****             *_MAT(*c, n, m) += *_MAT_T(*a, n, p) * *_MAT(*b, p, m);
 3491              		.loc 1 446 36 is_stmt 0 discriminator 1 view .LVU1109
 3492 00ca A368     		ldr	r3, [r4, #8]
 446:/home/takumi/takumique/main/reservoir/app/cmcis/mat.c ****             *_MAT(*c, n, m) += *_MAT_T(*a, n, p) * *_MAT(*b, p, m);
 3493              		.loc 1 446 11 discriminator 1 view .LVU1110
 3494 00cc BB42     		cmp	r3, r7
 3495 00ce EDD9     		bls	.L330
 447:/home/takumi/takumique/main/reservoir/app/cmcis/mat.c ****           }
 3496              		.loc 1 447 13 is_stmt 1 discriminator 3 view .LVU1111
 447:/home/takumi/takumique/main/reservoir/app/cmcis/mat.c ****           }
 3497              		.loc 1 447 14 is_stmt 0 discriminator 3 view .LVU1112
 3498 00d0 2A68     		ldr	r2, [r5]
 3499 00d2 AB68     		ldr	r3, [r5, #8]
 447:/home/takumi/takumique/main/reservoir/app/cmcis/mat.c ****           }
 3500              		.loc 1 447 29 discriminator 3 view .LVU1113
 3501 00d4 0AFB0393 		mla	r3, r10, r3, r9
 3502 00d8 02EBC308 		add	r8, r2, r3, lsl #3
 447:/home/takumi/takumique/main/reservoir/app/cmcis/mat.c ****           }
 3503              		.loc 1 447 33 discriminator 3 view .LVU1114
 3504 00dc 2168     		ldr	r1, [r4]
 3505 00de 6368     		ldr	r3, [r4, #4]
 3506 00e0 07FB03A3 		mla	r3, r7, r3, r10
ARM GAS  /tmp/ccgNCQ0i.s 			page 82


 3507 00e4 01EBC301 		add	r1, r1, r3, lsl #3
 447:/home/takumi/takumique/main/reservoir/app/cmcis/mat.c ****           }
 3508              		.loc 1 447 53 discriminator 3 view .LVU1115
 3509 00e8 3368     		ldr	r3, [r6]
 3510 00ea B268     		ldr	r2, [r6, #8]
 3511 00ec 07FB0292 		mla	r2, r7, r2, r9
 3512 00f0 03EBC203 		add	r3, r3, r2, lsl #3
 447:/home/takumi/takumique/main/reservoir/app/cmcis/mat.c ****           }
 3513              		.loc 1 447 50 discriminator 3 view .LVU1116
 3514 00f4 D3E90023 		ldrd	r2, [r3]
 3515 00f8 D1E90001 		ldrd	r0, [r1]
 3516 00fc FFF7FEFF 		bl	__aeabi_dmul
 3517              	.LVL282:
 3518 0100 0246     		mov	r2, r0
 3519 0102 0B46     		mov	r3, r1
 447:/home/takumi/takumique/main/reservoir/app/cmcis/mat.c ****           }
 3520              		.loc 1 447 29 discriminator 3 view .LVU1117
 3521 0104 D8E90001 		ldrd	r0, [r8]
 3522 0108 FFF7FEFF 		bl	__aeabi_dadd
 3523              	.LVL283:
 3524 010c C8E90001 		strd	r0, [r8]
 446:/home/takumi/takumique/main/reservoir/app/cmcis/mat.c ****             *_MAT(*c, n, m) += *_MAT_T(*a, n, p) * *_MAT(*b, p, m);
 3525              		.loc 1 446 41 is_stmt 1 discriminator 3 view .LVU1118
 446:/home/takumi/takumique/main/reservoir/app/cmcis/mat.c ****             *_MAT(*c, n, m) += *_MAT_T(*a, n, p) * *_MAT(*b, p, m);
 3526              		.loc 1 446 42 is_stmt 0 discriminator 3 view .LVU1119
 3527 0110 0137     		adds	r7, r7, #1
 3528              	.LVL284:
 446:/home/takumi/takumique/main/reservoir/app/cmcis/mat.c ****             *_MAT(*c, n, m) += *_MAT_T(*a, n, p) * *_MAT(*b, p, m);
 3529              		.loc 1 446 42 discriminator 3 view .LVU1120
 3530 0112 DAE7     		b	.L298
 3531              	.LVL285:
 3532              	.L329:
 446:/home/takumi/takumique/main/reservoir/app/cmcis/mat.c ****             *_MAT(*c, n, m) += *_MAT_T(*a, n, p) * *_MAT(*b, p, m);
 3533              		.loc 1 446 42 discriminator 3 view .LVU1121
 3534              	.LBE82:
 3535              	.LBE81:
 443:/home/takumi/takumique/main/reservoir/app/cmcis/mat.c ****         for(unsigned m = 0; m < c->m; m++) {
 3536              		.loc 1 443 37 is_stmt 1 discriminator 2 view .LVU1122
 443:/home/takumi/takumique/main/reservoir/app/cmcis/mat.c ****         for(unsigned m = 0; m < c->m; m++) {
 3537              		.loc 1 443 38 is_stmt 0 discriminator 2 view .LVU1123
 3538 0114 0AF1010A 		add	r10, r10, #1
 3539              	.LVL286:
 3540              	.L297:
 443:/home/takumi/takumique/main/reservoir/app/cmcis/mat.c ****         for(unsigned m = 0; m < c->m; m++) {
 3541              		.loc 1 443 27 is_stmt 1 discriminator 1 view .LVU1124
 443:/home/takumi/takumique/main/reservoir/app/cmcis/mat.c ****         for(unsigned m = 0; m < c->m; m++) {
 3542              		.loc 1 443 32 is_stmt 0 discriminator 1 view .LVU1125
 3543 0118 6B68     		ldr	r3, [r5, #4]
 443:/home/takumi/takumique/main/reservoir/app/cmcis/mat.c ****         for(unsigned m = 0; m < c->m; m++) {
 3544              		.loc 1 443 7 discriminator 1 view .LVU1126
 3545 011a 5345     		cmp	r3, r10
 3546 011c 03D9     		bls	.L331
 3547              	.LBB83:
 444:/home/takumi/takumique/main/reservoir/app/cmcis/mat.c ****           *_MAT(*c, n, m) = 0;
 3548              		.loc 1 444 22 view .LVU1127
 3549 011e D946     		mov	r9, fp
 3550 0120 C6E7     		b	.L301
ARM GAS  /tmp/ccgNCQ0i.s 			page 83


 3551              	.LVL287:
 3552              	.L337:
 444:/home/takumi/takumique/main/reservoir/app/cmcis/mat.c ****           *_MAT(*c, n, m) = 0;
 3553              		.loc 1 444 22 view .LVU1128
 3554              	.LBE83:
 443:/home/takumi/takumique/main/reservoir/app/cmcis/mat.c ****         for(unsigned m = 0; m < c->m; m++) {
 3555              		.loc 1 443 20 view .LVU1129
 3556 0122 DA46     		mov	r10, fp
 3557 0124 F8E7     		b	.L297
 3558              	.LVL288:
 3559              	.L331:
 443:/home/takumi/takumique/main/reservoir/app/cmcis/mat.c ****         for(unsigned m = 0; m < c->m; m++) {
 3560              		.loc 1 443 20 view .LVU1130
 3561              	.LBE80:
 476:/home/takumi/takumique/main/reservoir/app/cmcis/mat.c **** }
 3562              		.loc 1 476 10 view .LVU1131
 3563 0126 0020     		movs	r0, #0
 3564 0128 BEE7     		b	.L288
 3565              	.LVL289:
 3566              	.L333:
 3567              	.LBB84:
 3568              	.LBB85:
 455:/home/takumi/takumique/main/reservoir/app/cmcis/mat.c ****           *_MAT(*c, n, m) = 0;
 3569              		.loc 1 455 39 is_stmt 1 discriminator 2 view .LVU1132
 455:/home/takumi/takumique/main/reservoir/app/cmcis/mat.c ****           *_MAT(*c, n, m) = 0;
 3570              		.loc 1 455 40 is_stmt 0 discriminator 2 view .LVU1133
 3571 012a 09F10109 		add	r9, r9, #1
 3572              	.LVL290:
 3573              	.L307:
 455:/home/takumi/takumique/main/reservoir/app/cmcis/mat.c ****           *_MAT(*c, n, m) = 0;
 3574              		.loc 1 455 29 is_stmt 1 discriminator 1 view .LVU1134
 455:/home/takumi/takumique/main/reservoir/app/cmcis/mat.c ****           *_MAT(*c, n, m) = 0;
 3575              		.loc 1 455 34 is_stmt 0 discriminator 1 view .LVU1135
 3576 012e AB68     		ldr	r3, [r5, #8]
 455:/home/takumi/takumique/main/reservoir/app/cmcis/mat.c ****           *_MAT(*c, n, m) = 0;
 3577              		.loc 1 455 9 discriminator 1 view .LVU1136
 3578 0130 4B45     		cmp	r3, r9
 3579 0132 2DD9     		bls	.L332
 456:/home/takumi/takumique/main/reservoir/app/cmcis/mat.c ****           for(unsigned p = 0; p < a->m; p++) {
 3580              		.loc 1 456 11 is_stmt 1 view .LVU1137
 456:/home/takumi/takumique/main/reservoir/app/cmcis/mat.c ****           for(unsigned p = 0; p < a->m; p++) {
 3581              		.loc 1 456 12 is_stmt 0 view .LVU1138
 3582 0134 2A68     		ldr	r2, [r5]
 3583 0136 0BFB0393 		mla	r3, fp, r3, r9
 3584 013a 02EBC303 		add	r3, r2, r3, lsl #3
 456:/home/takumi/takumique/main/reservoir/app/cmcis/mat.c ****           for(unsigned p = 0; p < a->m; p++) {
 3585              		.loc 1 456 27 view .LVU1139
 3586 013e 0020     		movs	r0, #0
 3587 0140 0021     		movs	r1, #0
 3588 0142 C3E90001 		strd	r0, [r3]
 457:/home/takumi/takumique/main/reservoir/app/cmcis/mat.c ****             *_MAT(*c, n, m) += *_MAT(*a, n, p) * *_MAT_T(*b, p, m);
 3589              		.loc 1 457 11 is_stmt 1 view .LVU1140
 3590              	.LBB86:
 457:/home/takumi/takumique/main/reservoir/app/cmcis/mat.c ****             *_MAT(*c, n, m) += *_MAT(*a, n, p) * *_MAT_T(*b, p, m);
 3591              		.loc 1 457 15 view .LVU1141
 3592              	.LVL291:
 457:/home/takumi/takumique/main/reservoir/app/cmcis/mat.c ****             *_MAT(*c, n, m) += *_MAT(*a, n, p) * *_MAT_T(*b, p, m);
ARM GAS  /tmp/ccgNCQ0i.s 			page 84


 3593              		.loc 1 457 24 is_stmt 0 view .LVU1142
 3594 0146 5746     		mov	r7, r10
 3595              	.LVL292:
 3596              	.L304:
 457:/home/takumi/takumique/main/reservoir/app/cmcis/mat.c ****             *_MAT(*c, n, m) += *_MAT(*a, n, p) * *_MAT_T(*b, p, m);
 3597              		.loc 1 457 31 is_stmt 1 discriminator 1 view .LVU1143
 457:/home/takumi/takumique/main/reservoir/app/cmcis/mat.c ****             *_MAT(*c, n, m) += *_MAT(*a, n, p) * *_MAT_T(*b, p, m);
 3598              		.loc 1 457 36 is_stmt 0 discriminator 1 view .LVU1144
 3599 0148 A368     		ldr	r3, [r4, #8]
 457:/home/takumi/takumique/main/reservoir/app/cmcis/mat.c ****             *_MAT(*c, n, m) += *_MAT(*a, n, p) * *_MAT_T(*b, p, m);
 3600              		.loc 1 457 11 discriminator 1 view .LVU1145
 3601 014a BB42     		cmp	r3, r7
 3602 014c EDD9     		bls	.L333
 458:/home/takumi/takumique/main/reservoir/app/cmcis/mat.c ****           }
 3603              		.loc 1 458 13 is_stmt 1 discriminator 3 view .LVU1146
 458:/home/takumi/takumique/main/reservoir/app/cmcis/mat.c ****           }
 3604              		.loc 1 458 14 is_stmt 0 discriminator 3 view .LVU1147
 3605 014e 2968     		ldr	r1, [r5]
 3606 0150 AA68     		ldr	r2, [r5, #8]
 458:/home/takumi/takumique/main/reservoir/app/cmcis/mat.c ****           }
 3607              		.loc 1 458 29 discriminator 3 view .LVU1148
 3608 0152 0BFB0292 		mla	r2, fp, r2, r9
 3609 0156 01EBC208 		add	r8, r1, r2, lsl #3
 458:/home/takumi/takumique/main/reservoir/app/cmcis/mat.c ****           }
 3610              		.loc 1 458 33 discriminator 3 view .LVU1149
 3611 015a 2168     		ldr	r1, [r4]
 3612 015c 0BFB0373 		mla	r3, fp, r3, r7
 3613 0160 01EBC301 		add	r1, r1, r3, lsl #3
 458:/home/takumi/takumique/main/reservoir/app/cmcis/mat.c ****           }
 3614              		.loc 1 458 51 discriminator 3 view .LVU1150
 3615 0164 3368     		ldr	r3, [r6]
 3616 0166 7268     		ldr	r2, [r6, #4]
 3617 0168 09FB0272 		mla	r2, r9, r2, r7
 3618 016c 03EBC203 		add	r3, r3, r2, lsl #3
 458:/home/takumi/takumique/main/reservoir/app/cmcis/mat.c ****           }
 3619              		.loc 1 458 48 discriminator 3 view .LVU1151
 3620 0170 D3E90023 		ldrd	r2, [r3]
 3621 0174 D1E90001 		ldrd	r0, [r1]
 3622 0178 FFF7FEFF 		bl	__aeabi_dmul
 3623              	.LVL293:
 3624 017c 0246     		mov	r2, r0
 3625 017e 0B46     		mov	r3, r1
 458:/home/takumi/takumique/main/reservoir/app/cmcis/mat.c ****           }
 3626              		.loc 1 458 29 discriminator 3 view .LVU1152
 3627 0180 D8E90001 		ldrd	r0, [r8]
 3628 0184 FFF7FEFF 		bl	__aeabi_dadd
 3629              	.LVL294:
 3630 0188 C8E90001 		strd	r0, [r8]
 457:/home/takumi/takumique/main/reservoir/app/cmcis/mat.c ****             *_MAT(*c, n, m) += *_MAT(*a, n, p) * *_MAT_T(*b, p, m);
 3631              		.loc 1 457 41 is_stmt 1 discriminator 3 view .LVU1153
 457:/home/takumi/takumique/main/reservoir/app/cmcis/mat.c ****             *_MAT(*c, n, m) += *_MAT(*a, n, p) * *_MAT_T(*b, p, m);
 3632              		.loc 1 457 42 is_stmt 0 discriminator 3 view .LVU1154
 3633 018c 0137     		adds	r7, r7, #1
 3634              	.LVL295:
 457:/home/takumi/takumique/main/reservoir/app/cmcis/mat.c ****             *_MAT(*c, n, m) += *_MAT(*a, n, p) * *_MAT_T(*b, p, m);
 3635              		.loc 1 457 42 discriminator 3 view .LVU1155
 3636 018e DBE7     		b	.L304
ARM GAS  /tmp/ccgNCQ0i.s 			page 85


 3637              	.LVL296:
 3638              	.L332:
 457:/home/takumi/takumique/main/reservoir/app/cmcis/mat.c ****             *_MAT(*c, n, m) += *_MAT(*a, n, p) * *_MAT_T(*b, p, m);
 3639              		.loc 1 457 42 discriminator 3 view .LVU1156
 3640              	.LBE86:
 3641              	.LBE85:
 454:/home/takumi/takumique/main/reservoir/app/cmcis/mat.c ****         for(unsigned m = 0; m < c->m; m++) {
 3642              		.loc 1 454 37 is_stmt 1 discriminator 2 view .LVU1157
 454:/home/takumi/takumique/main/reservoir/app/cmcis/mat.c ****         for(unsigned m = 0; m < c->m; m++) {
 3643              		.loc 1 454 38 is_stmt 0 discriminator 2 view .LVU1158
 3644 0190 0BF1010B 		add	fp, fp, #1
 3645              	.LVL297:
 3646              	.L303:
 454:/home/takumi/takumique/main/reservoir/app/cmcis/mat.c ****         for(unsigned m = 0; m < c->m; m++) {
 3647              		.loc 1 454 27 is_stmt 1 discriminator 1 view .LVU1159
 454:/home/takumi/takumique/main/reservoir/app/cmcis/mat.c ****         for(unsigned m = 0; m < c->m; m++) {
 3648              		.loc 1 454 32 is_stmt 0 discriminator 1 view .LVU1160
 3649 0194 6B68     		ldr	r3, [r5, #4]
 454:/home/takumi/takumique/main/reservoir/app/cmcis/mat.c ****         for(unsigned m = 0; m < c->m; m++) {
 3650              		.loc 1 454 7 discriminator 1 view .LVU1161
 3651 0196 5B45     		cmp	r3, fp
 3652 0198 01D9     		bls	.L334
 3653              	.LBB87:
 455:/home/takumi/takumique/main/reservoir/app/cmcis/mat.c ****           *_MAT(*c, n, m) = 0;
 3654              		.loc 1 455 22 view .LVU1162
 3655 019a D146     		mov	r9, r10
 3656 019c C7E7     		b	.L307
 3657              	.L334:
 3658              	.LBE87:
 3659              	.LBE84:
 476:/home/takumi/takumique/main/reservoir/app/cmcis/mat.c **** }
 3660              		.loc 1 476 10 view .LVU1163
 3661 019e 0020     		movs	r0, #0
 3662 01a0 82E7     		b	.L288
 3663              	.LVL298:
 3664              	.L302:
 464:/home/takumi/takumique/main/reservoir/app/cmcis/mat.c ****       for(unsigned n = 0; n < c->n; n++) {
 3665              		.loc 1 464 5 is_stmt 1 view .LVU1164
 464:/home/takumi/takumique/main/reservoir/app/cmcis/mat.c ****       for(unsigned n = 0; n < c->n; n++) {
 3666              		.loc 1 464 7 is_stmt 0 view .LVU1165
 3667 01a2 BAF1000F 		cmp	r10, #0
 3668 01a6 1AD1     		bne	.L335
 3669              	.L308:
 430:/home/takumi/takumique/main/reservoir/app/cmcis/mat.c ****     if(!a->t && !b->t) {
 3670              		.loc 1 430 3 is_stmt 1 view .LVU1166
 431:/home/takumi/takumique/main/reservoir/app/cmcis/mat.c ****       for(unsigned n = 0; n < c->n; n++) {
 3671              		.loc 1 431 5 view .LVU1167
 431:/home/takumi/takumique/main/reservoir/app/cmcis/mat.c ****       for(unsigned n = 0; n < c->n; n++) {
 3672              		.loc 1 431 10 is_stmt 0 view .LVU1168
 3673 01a8 D4F80CA0 		ldr	r10, [r4, #12]
 431:/home/takumi/takumique/main/reservoir/app/cmcis/mat.c ****       for(unsigned n = 0; n < c->n; n++) {
 3674              		.loc 1 431 7 view .LVU1169
 3675 01ac BAF1000F 		cmp	r10, #0
 3676 01b0 05D1     		bne	.L290
 431:/home/takumi/takumique/main/reservoir/app/cmcis/mat.c ****       for(unsigned n = 0; n < c->n; n++) {
 3677              		.loc 1 431 19 discriminator 1 view .LVU1170
 3678 01b2 D6F80CB0 		ldr	fp, [r6, #12]
ARM GAS  /tmp/ccgNCQ0i.s 			page 86


 431:/home/takumi/takumique/main/reservoir/app/cmcis/mat.c ****       for(unsigned n = 0; n < c->n; n++) {
 3679              		.loc 1 431 14 discriminator 1 view .LVU1171
 3680 01b6 BBF1000F 		cmp	fp, #0
 3681 01ba 3FF472AF 		beq	.L336
 3682              	.L290:
 442:/home/takumi/takumique/main/reservoir/app/cmcis/mat.c ****       for(unsigned n = 0; n < c->n; n++) {
 3683              		.loc 1 442 5 is_stmt 1 view .LVU1172
 442:/home/takumi/takumique/main/reservoir/app/cmcis/mat.c ****       for(unsigned n = 0; n < c->n; n++) {
 3684              		.loc 1 442 7 is_stmt 0 view .LVU1173
 3685 01be BAF1000F 		cmp	r10, #0
 3686 01c2 04D0     		beq	.L296
 442:/home/takumi/takumique/main/reservoir/app/cmcis/mat.c ****       for(unsigned n = 0; n < c->n; n++) {
 3687              		.loc 1 442 18 discriminator 1 view .LVU1174
 3688 01c4 D6F80CB0 		ldr	fp, [r6, #12]
 442:/home/takumi/takumique/main/reservoir/app/cmcis/mat.c ****       for(unsigned n = 0; n < c->n; n++) {
 3689              		.loc 1 442 13 discriminator 1 view .LVU1175
 3690 01c8 BBF1000F 		cmp	fp, #0
 3691 01cc A9D0     		beq	.L337
 3692              	.L296:
 453:/home/takumi/takumique/main/reservoir/app/cmcis/mat.c ****       for(unsigned n = 0; n < c->n; n++) {
 3693              		.loc 1 453 5 is_stmt 1 view .LVU1176
 453:/home/takumi/takumique/main/reservoir/app/cmcis/mat.c ****       for(unsigned n = 0; n < c->n; n++) {
 3694              		.loc 1 453 7 is_stmt 0 view .LVU1177
 3695 01ce BAF1000F 		cmp	r10, #0
 3696 01d2 E6D1     		bne	.L302
 453:/home/takumi/takumique/main/reservoir/app/cmcis/mat.c ****       for(unsigned n = 0; n < c->n; n++) {
 3697              		.loc 1 453 18 discriminator 1 view .LVU1178
 3698 01d4 F368     		ldr	r3, [r6, #12]
 453:/home/takumi/takumique/main/reservoir/app/cmcis/mat.c ****       for(unsigned n = 0; n < c->n; n++) {
 3699              		.loc 1 453 14 discriminator 1 view .LVU1179
 3700 01d6 002B     		cmp	r3, #0
 3701 01d8 E3D0     		beq	.L302
 3702              	.LBB88:
 454:/home/takumi/takumique/main/reservoir/app/cmcis/mat.c ****         for(unsigned m = 0; m < c->m; m++) {
 3703              		.loc 1 454 20 view .LVU1180
 3704 01da D346     		mov	fp, r10
 3705 01dc DAE7     		b	.L303
 3706              	.L335:
 454:/home/takumi/takumique/main/reservoir/app/cmcis/mat.c ****         for(unsigned m = 0; m < c->m; m++) {
 3707              		.loc 1 454 20 view .LVU1181
 3708              	.LBE88:
 464:/home/takumi/takumique/main/reservoir/app/cmcis/mat.c ****       for(unsigned n = 0; n < c->n; n++) {
 3709              		.loc 1 464 17 discriminator 1 view .LVU1182
 3710 01de F368     		ldr	r3, [r6, #12]
 464:/home/takumi/takumique/main/reservoir/app/cmcis/mat.c ****       for(unsigned n = 0; n < c->n; n++) {
 3711              		.loc 1 464 13 discriminator 1 view .LVU1183
 3712 01e0 002B     		cmp	r3, #0
 3713 01e2 E1D0     		beq	.L308
 3714              	.LBB89:
 465:/home/takumi/takumique/main/reservoir/app/cmcis/mat.c ****         for(unsigned m = 0; m < c->m; m++) {
 3715              		.loc 1 465 20 view .LVU1184
 3716 01e4 4FF0000A 		mov	r10, #0
 3717 01e8 35E0     		b	.L309
 3718              	.LVL299:
 3719              	.L312:
 3720              	.LBB90:
 3721              	.LBB91:
ARM GAS  /tmp/ccgNCQ0i.s 			page 87


 469:/home/takumi/takumique/main/reservoir/app/cmcis/mat.c ****           }
 3722              		.loc 1 469 13 is_stmt 1 discriminator 3 view .LVU1185
 469:/home/takumi/takumique/main/reservoir/app/cmcis/mat.c ****           }
 3723              		.loc 1 469 14 is_stmt 0 discriminator 3 view .LVU1186
 3724 01ea 2A68     		ldr	r2, [r5]
 3725 01ec AB68     		ldr	r3, [r5, #8]
 469:/home/takumi/takumique/main/reservoir/app/cmcis/mat.c ****           }
 3726              		.loc 1 469 29 discriminator 3 view .LVU1187
 3727 01ee 0AFB0393 		mla	r3, r10, r3, r9
 3728 01f2 02EBC308 		add	r8, r2, r3, lsl #3
 469:/home/takumi/takumique/main/reservoir/app/cmcis/mat.c ****           }
 3729              		.loc 1 469 33 discriminator 3 view .LVU1188
 3730 01f6 2368     		ldr	r3, [r4]
 3731 01f8 6168     		ldr	r1, [r4, #4]
 3732 01fa 07FB01A1 		mla	r1, r7, r1, r10
 3733 01fe 03EBC101 		add	r1, r3, r1, lsl #3
 469:/home/takumi/takumique/main/reservoir/app/cmcis/mat.c ****           }
 3734              		.loc 1 469 53 discriminator 3 view .LVU1189
 3735 0202 3368     		ldr	r3, [r6]
 3736 0204 7268     		ldr	r2, [r6, #4]
 3737 0206 09FB0272 		mla	r2, r9, r2, r7
 3738 020a 03EBC203 		add	r3, r3, r2, lsl #3
 469:/home/takumi/takumique/main/reservoir/app/cmcis/mat.c ****           }
 3739              		.loc 1 469 50 discriminator 3 view .LVU1190
 3740 020e D3E90023 		ldrd	r2, [r3]
 3741 0212 D1E90001 		ldrd	r0, [r1]
 3742 0216 FFF7FEFF 		bl	__aeabi_dmul
 3743              	.LVL300:
 3744 021a 0246     		mov	r2, r0
 3745 021c 0B46     		mov	r3, r1
 469:/home/takumi/takumique/main/reservoir/app/cmcis/mat.c ****           }
 3746              		.loc 1 469 29 discriminator 3 view .LVU1191
 3747 021e D8E90001 		ldrd	r0, [r8]
 3748 0222 FFF7FEFF 		bl	__aeabi_dadd
 3749              	.LVL301:
 3750 0226 C8E90001 		strd	r0, [r8]
 468:/home/takumi/takumique/main/reservoir/app/cmcis/mat.c ****             *_MAT(*c, n, m) += *_MAT_T(*a, n, p) * *_MAT_T(*b, p, m);
 3751              		.loc 1 468 41 is_stmt 1 discriminator 3 view .LVU1192
 468:/home/takumi/takumique/main/reservoir/app/cmcis/mat.c ****             *_MAT(*c, n, m) += *_MAT_T(*a, n, p) * *_MAT_T(*b, p, m);
 3752              		.loc 1 468 42 is_stmt 0 discriminator 3 view .LVU1193
 3753 022a 0137     		adds	r7, r7, #1
 3754              	.LVL302:
 3755              	.L311:
 468:/home/takumi/takumique/main/reservoir/app/cmcis/mat.c ****             *_MAT(*c, n, m) += *_MAT_T(*a, n, p) * *_MAT_T(*b, p, m);
 3756              		.loc 1 468 31 is_stmt 1 discriminator 1 view .LVU1194
 468:/home/takumi/takumique/main/reservoir/app/cmcis/mat.c ****             *_MAT(*c, n, m) += *_MAT_T(*a, n, p) * *_MAT_T(*b, p, m);
 3757              		.loc 1 468 36 is_stmt 0 discriminator 1 view .LVU1195
 3758 022c A368     		ldr	r3, [r4, #8]
 468:/home/takumi/takumique/main/reservoir/app/cmcis/mat.c ****             *_MAT(*c, n, m) += *_MAT_T(*a, n, p) * *_MAT_T(*b, p, m);
 3759              		.loc 1 468 11 discriminator 1 view .LVU1196
 3760 022e BB42     		cmp	r3, r7
 3761 0230 DBD8     		bhi	.L312
 3762              	.LBE91:
 466:/home/takumi/takumique/main/reservoir/app/cmcis/mat.c ****           *_MAT(*c, n, m) = 0;
 3763              		.loc 1 466 39 is_stmt 1 discriminator 2 view .LVU1197
 466:/home/takumi/takumique/main/reservoir/app/cmcis/mat.c ****           *_MAT(*c, n, m) = 0;
 3764              		.loc 1 466 40 is_stmt 0 discriminator 2 view .LVU1198
ARM GAS  /tmp/ccgNCQ0i.s 			page 88


 3765 0232 09F10109 		add	r9, r9, #1
 3766              	.LVL303:
 3767              	.L314:
 466:/home/takumi/takumique/main/reservoir/app/cmcis/mat.c ****           *_MAT(*c, n, m) = 0;
 3768              		.loc 1 466 29 is_stmt 1 discriminator 1 view .LVU1199
 466:/home/takumi/takumique/main/reservoir/app/cmcis/mat.c ****           *_MAT(*c, n, m) = 0;
 3769              		.loc 1 466 34 is_stmt 0 discriminator 1 view .LVU1200
 3770 0236 AB68     		ldr	r3, [r5, #8]
 466:/home/takumi/takumique/main/reservoir/app/cmcis/mat.c ****           *_MAT(*c, n, m) = 0;
 3771              		.loc 1 466 9 discriminator 1 view .LVU1201
 3772 0238 4B45     		cmp	r3, r9
 3773 023a 0AD9     		bls	.L338
 467:/home/takumi/takumique/main/reservoir/app/cmcis/mat.c ****           for(unsigned p = 0; p < a->m; p++) {
 3774              		.loc 1 467 11 is_stmt 1 view .LVU1202
 467:/home/takumi/takumique/main/reservoir/app/cmcis/mat.c ****           for(unsigned p = 0; p < a->m; p++) {
 3775              		.loc 1 467 12 is_stmt 0 view .LVU1203
 3776 023c 2A68     		ldr	r2, [r5]
 3777 023e 0AFB0393 		mla	r3, r10, r3, r9
 3778 0242 02EBC303 		add	r3, r2, r3, lsl #3
 467:/home/takumi/takumique/main/reservoir/app/cmcis/mat.c ****           for(unsigned p = 0; p < a->m; p++) {
 3779              		.loc 1 467 27 view .LVU1204
 3780 0246 0020     		movs	r0, #0
 3781 0248 0021     		movs	r1, #0
 3782 024a C3E90001 		strd	r0, [r3]
 468:/home/takumi/takumique/main/reservoir/app/cmcis/mat.c ****             *_MAT(*c, n, m) += *_MAT_T(*a, n, p) * *_MAT_T(*b, p, m);
 3783              		.loc 1 468 11 is_stmt 1 view .LVU1205
 3784              	.LBB92:
 468:/home/takumi/takumique/main/reservoir/app/cmcis/mat.c ****             *_MAT(*c, n, m) += *_MAT_T(*a, n, p) * *_MAT_T(*b, p, m);
 3785              		.loc 1 468 15 view .LVU1206
 3786              	.LVL304:
 468:/home/takumi/takumique/main/reservoir/app/cmcis/mat.c ****             *_MAT(*c, n, m) += *_MAT_T(*a, n, p) * *_MAT_T(*b, p, m);
 3787              		.loc 1 468 24 is_stmt 0 view .LVU1207
 3788 024e 0027     		movs	r7, #0
 468:/home/takumi/takumique/main/reservoir/app/cmcis/mat.c ****             *_MAT(*c, n, m) += *_MAT_T(*a, n, p) * *_MAT_T(*b, p, m);
 3789              		.loc 1 468 11 view .LVU1208
 3790 0250 ECE7     		b	.L311
 3791              	.LVL305:
 3792              	.L338:
 468:/home/takumi/takumique/main/reservoir/app/cmcis/mat.c ****             *_MAT(*c, n, m) += *_MAT_T(*a, n, p) * *_MAT_T(*b, p, m);
 3793              		.loc 1 468 11 view .LVU1209
 3794              	.LBE92:
 3795              	.LBE90:
 465:/home/takumi/takumique/main/reservoir/app/cmcis/mat.c ****         for(unsigned m = 0; m < c->m; m++) {
 3796              		.loc 1 465 37 is_stmt 1 discriminator 2 view .LVU1210
 465:/home/takumi/takumique/main/reservoir/app/cmcis/mat.c ****         for(unsigned m = 0; m < c->m; m++) {
 3797              		.loc 1 465 38 is_stmt 0 discriminator 2 view .LVU1211
 3798 0252 0AF1010A 		add	r10, r10, #1
 3799              	.LVL306:
 3800              	.L309:
 465:/home/takumi/takumique/main/reservoir/app/cmcis/mat.c ****         for(unsigned m = 0; m < c->m; m++) {
 3801              		.loc 1 465 27 is_stmt 1 discriminator 1 view .LVU1212
 465:/home/takumi/takumique/main/reservoir/app/cmcis/mat.c ****         for(unsigned m = 0; m < c->m; m++) {
 3802              		.loc 1 465 32 is_stmt 0 discriminator 1 view .LVU1213
 3803 0256 6B68     		ldr	r3, [r5, #4]
 465:/home/takumi/takumique/main/reservoir/app/cmcis/mat.c ****         for(unsigned m = 0; m < c->m; m++) {
 3804              		.loc 1 465 7 discriminator 1 view .LVU1214
 3805 0258 5345     		cmp	r3, r10
ARM GAS  /tmp/ccgNCQ0i.s 			page 89


 3806 025a 02D9     		bls	.L339
 3807              	.LBB93:
 466:/home/takumi/takumique/main/reservoir/app/cmcis/mat.c ****           *_MAT(*c, n, m) = 0;
 3808              		.loc 1 466 22 view .LVU1215
 3809 025c 4FF00009 		mov	r9, #0
 3810 0260 E9E7     		b	.L314
 3811              	.L339:
 3812              	.LBE93:
 3813              	.LBE89:
 476:/home/takumi/takumique/main/reservoir/app/cmcis/mat.c **** }
 3814              		.loc 1 476 10 view .LVU1216
 3815 0262 0020     		movs	r0, #0
 3816              	.LBB94:
 3817 0264 20E7     		b	.L288
 3818              	.LVL307:
 3819              	.L315:
 476:/home/takumi/takumique/main/reservoir/app/cmcis/mat.c **** }
 3820              		.loc 1 476 10 view .LVU1217
 3821              	.LBE94:
 420:/home/takumi/takumique/main/reservoir/app/cmcis/mat.c ****   }
 3822              		.loc 1 420 12 view .LVU1218
 3823 0266 4FF0FF30 		mov	r0, #-1
 3824              	.LVL308:
 420:/home/takumi/takumique/main/reservoir/app/cmcis/mat.c ****   }
 3825              		.loc 1 420 12 view .LVU1219
 3826 026a 1DE7     		b	.L288
 3827              	.LVL309:
 3828              	.L316:
 423:/home/takumi/takumique/main/reservoir/app/cmcis/mat.c ****   }
 3829              		.loc 1 423 12 view .LVU1220
 3830 026c 4FF0FF30 		mov	r0, #-1
 3831              	.LVL310:
 423:/home/takumi/takumique/main/reservoir/app/cmcis/mat.c ****   }
 3832              		.loc 1 423 12 view .LVU1221
 3833 0270 1AE7     		b	.L288
 3834              	.LVL311:
 3835              	.L317:
 426:/home/takumi/takumique/main/reservoir/app/cmcis/mat.c ****   }
 3836              		.loc 1 426 12 view .LVU1222
 3837 0272 4FF0FF30 		mov	r0, #-1
 3838              	.LVL312:
 426:/home/takumi/takumique/main/reservoir/app/cmcis/mat.c ****   }
 3839              		.loc 1 426 12 view .LVU1223
 3840 0276 17E7     		b	.L288
 3841              		.cfi_endproc
 3842              	.LFE164:
 3844              		.section	.text.mat_f64_mul,"ax",%progbits
 3845              		.align	1
 3846              		.global	mat_f64_mul
 3847              		.syntax unified
 3848              		.thumb
 3849              		.thumb_func
 3850              		.fpu fpv4-sp-d16
 3852              	mat_f64_mul:
 3853              	.LVL313:
 3854              	.LFB165:
 478:/home/takumi/takumique/main/reservoir/app/cmcis/mat.c **** 
ARM GAS  /tmp/ccgNCQ0i.s 			page 90


 479:/home/takumi/takumique/main/reservoir/app/cmcis/mat.c **** int mat_f64_mul(mat_f64_t *c, mat_f64_t *a, double l) {
 3855              		.loc 1 479 55 is_stmt 1 view -0
 3856              		.cfi_startproc
 3857              		@ args = 0, pretend = 0, frame = 0
 3858              		@ frame_needed = 0, uses_anonymous_args = 0
 3859              		.loc 1 479 55 is_stmt 0 view .LVU1225
 3860 0000 2DE9F843 		push	{r3, r4, r5, r6, r7, r8, r9, lr}
 3861              	.LCFI31:
 3862              		.cfi_def_cfa_offset 32
 3863              		.cfi_offset 3, -32
 3864              		.cfi_offset 4, -28
 3865              		.cfi_offset 5, -24
 3866              		.cfi_offset 6, -20
 3867              		.cfi_offset 7, -16
 3868              		.cfi_offset 8, -12
 3869              		.cfi_offset 9, -8
 3870              		.cfi_offset 14, -4
 480:/home/takumi/takumique/main/reservoir/app/cmcis/mat.c **** #ifdef CHECK_ARGS
 481:/home/takumi/takumique/main/reservoir/app/cmcis/mat.c ****   if(c->n != a->n) {
 3871              		.loc 1 481 3 is_stmt 1 view .LVU1226
 3872              		.loc 1 481 7 is_stmt 0 view .LVU1227
 3873 0004 4268     		ldr	r2, [r0, #4]
 3874              		.loc 1 481 15 view .LVU1228
 3875 0006 4B68     		ldr	r3, [r1, #4]
 3876              		.loc 1 481 5 view .LVU1229
 3877 0008 9A42     		cmp	r2, r3
 3878 000a 25D1     		bne	.L344
 3879 000c 8046     		mov	r8, r0
 3880 000e 8946     		mov	r9, r1
 3881 0010 57EC106B 		vmov	r6, r7, d0
 482:/home/takumi/takumique/main/reservoir/app/cmcis/mat.c ****     return -1;
 483:/home/takumi/takumique/main/reservoir/app/cmcis/mat.c ****   }
 484:/home/takumi/takumique/main/reservoir/app/cmcis/mat.c ****   if(c->m != a->m) {
 3882              		.loc 1 484 3 is_stmt 1 view .LVU1230
 3883              		.loc 1 484 7 is_stmt 0 view .LVU1231
 3884 0014 8268     		ldr	r2, [r0, #8]
 3885              		.loc 1 484 15 view .LVU1232
 3886 0016 8B68     		ldr	r3, [r1, #8]
 3887              		.loc 1 484 5 view .LVU1233
 3888 0018 9A42     		cmp	r2, r3
 3889 001a 20D1     		bne	.L345
 3890              	.LBB95:
 485:/home/takumi/takumique/main/reservoir/app/cmcis/mat.c ****     return -1;
 486:/home/takumi/takumique/main/reservoir/app/cmcis/mat.c ****   }
 487:/home/takumi/takumique/main/reservoir/app/cmcis/mat.c **** #endif
 488:/home/takumi/takumique/main/reservoir/app/cmcis/mat.c ****   for(unsigned i = 0; i < c->n * c->m; i++) {
 3891              		.loc 1 488 16 view .LVU1234
 3892 001c 0024     		movs	r4, #0
 3893 001e 10E0     		b	.L342
 3894              	.LVL314:
 3895              	.L343:
 489:/home/takumi/takumique/main/reservoir/app/cmcis/mat.c ****     *(c->data + i) = *(a->data + i) * l;
 3896              		.loc 1 489 5 is_stmt 1 discriminator 3 view .LVU1235
 3897              		.loc 1 489 25 is_stmt 0 discriminator 3 view .LVU1236
 3898 0020 D9F80030 		ldr	r3, [r9]
 3899              		.loc 1 489 32 discriminator 3 view .LVU1237
 3900 0024 03EBC401 		add	r1, r3, r4, lsl #3
ARM GAS  /tmp/ccgNCQ0i.s 			page 91


 3901              		.loc 1 489 8 discriminator 3 view .LVU1238
 3902 0028 D8F80050 		ldr	r5, [r8]
 3903              		.loc 1 489 15 discriminator 3 view .LVU1239
 3904 002c 05EBC405 		add	r5, r5, r4, lsl #3
 3905              		.loc 1 489 37 discriminator 3 view .LVU1240
 3906 0030 3246     		mov	r2, r6
 3907 0032 3B46     		mov	r3, r7
 3908 0034 D1E90001 		ldrd	r0, [r1]
 3909 0038 FFF7FEFF 		bl	__aeabi_dmul
 3910              	.LVL315:
 3911              		.loc 1 489 20 discriminator 3 view .LVU1241
 3912 003c C5E90001 		strd	r0, [r5]
 488:/home/takumi/takumique/main/reservoir/app/cmcis/mat.c ****     *(c->data + i) = *(a->data + i) * l;
 3913              		.loc 1 488 40 is_stmt 1 discriminator 3 view .LVU1242
 488:/home/takumi/takumique/main/reservoir/app/cmcis/mat.c ****     *(c->data + i) = *(a->data + i) * l;
 3914              		.loc 1 488 41 is_stmt 0 discriminator 3 view .LVU1243
 3915 0040 0134     		adds	r4, r4, #1
 3916              	.LVL316:
 3917              	.L342:
 488:/home/takumi/takumique/main/reservoir/app/cmcis/mat.c ****     *(c->data + i) = *(a->data + i) * l;
 3918              		.loc 1 488 23 is_stmt 1 discriminator 1 view .LVU1244
 488:/home/takumi/takumique/main/reservoir/app/cmcis/mat.c ****     *(c->data + i) = *(a->data + i) * l;
 3919              		.loc 1 488 28 is_stmt 0 discriminator 1 view .LVU1245
 3920 0042 D8F80420 		ldr	r2, [r8, #4]
 488:/home/takumi/takumique/main/reservoir/app/cmcis/mat.c ****     *(c->data + i) = *(a->data + i) * l;
 3921              		.loc 1 488 35 discriminator 1 view .LVU1246
 3922 0046 D8F80830 		ldr	r3, [r8, #8]
 488:/home/takumi/takumique/main/reservoir/app/cmcis/mat.c ****     *(c->data + i) = *(a->data + i) * l;
 3923              		.loc 1 488 32 discriminator 1 view .LVU1247
 3924 004a 03FB02F3 		mul	r3, r3, r2
 488:/home/takumi/takumique/main/reservoir/app/cmcis/mat.c ****     *(c->data + i) = *(a->data + i) * l;
 3925              		.loc 1 488 3 discriminator 1 view .LVU1248
 3926 004e A342     		cmp	r3, r4
 3927 0050 E6D8     		bhi	.L343
 3928              	.LBE95:
 490:/home/takumi/takumique/main/reservoir/app/cmcis/mat.c ****   }
 491:/home/takumi/takumique/main/reservoir/app/cmcis/mat.c ****   return 0;
 3929              		.loc 1 491 10 view .LVU1249
 3930 0052 0020     		movs	r0, #0
 3931              	.LVL317:
 3932              	.L340:
 492:/home/takumi/takumique/main/reservoir/app/cmcis/mat.c **** }
 3933              		.loc 1 492 1 view .LVU1250
 3934 0054 BDE8F883 		pop	{r3, r4, r5, r6, r7, r8, r9, pc}
 3935              	.LVL318:
 3936              	.L344:
 482:/home/takumi/takumique/main/reservoir/app/cmcis/mat.c ****   }
 3937              		.loc 1 482 12 view .LVU1251
 3938 0058 4FF0FF30 		mov	r0, #-1
 3939              	.LVL319:
 482:/home/takumi/takumique/main/reservoir/app/cmcis/mat.c ****   }
 3940              		.loc 1 482 12 view .LVU1252
 3941 005c FAE7     		b	.L340
 3942              	.LVL320:
 3943              	.L345:
 485:/home/takumi/takumique/main/reservoir/app/cmcis/mat.c ****   }
 3944              		.loc 1 485 12 view .LVU1253
ARM GAS  /tmp/ccgNCQ0i.s 			page 92


 3945 005e 4FF0FF30 		mov	r0, #-1
 3946              	.LVL321:
 485:/home/takumi/takumique/main/reservoir/app/cmcis/mat.c ****   }
 3947              		.loc 1 485 12 view .LVU1254
 3948 0062 F7E7     		b	.L340
 3949              		.cfi_endproc
 3950              	.LFE165:
 3952              		.section	.text.mat_f64_identity,"ax",%progbits
 3953              		.align	1
 3954              		.global	mat_f64_identity
 3955              		.syntax unified
 3956              		.thumb
 3957              		.thumb_func
 3958              		.fpu fpv4-sp-d16
 3960              	mat_f64_identity:
 3961              	.LVL322:
 3962              	.LFB166:
 493:/home/takumi/takumique/main/reservoir/app/cmcis/mat.c **** 
 494:/home/takumi/takumique/main/reservoir/app/cmcis/mat.c **** int mat_f64_identity(mat_f64_t *c, double l) {
 3963              		.loc 1 494 46 is_stmt 1 view -0
 3964              		.cfi_startproc
 3965              		@ args = 0, pretend = 0, frame = 0
 3966              		@ frame_needed = 0, uses_anonymous_args = 0
 3967              		.loc 1 494 46 is_stmt 0 view .LVU1256
 3968 0000 F8B5     		push	{r3, r4, r5, r6, r7, lr}
 3969              	.LCFI32:
 3970              		.cfi_def_cfa_offset 24
 3971              		.cfi_offset 3, -24
 3972              		.cfi_offset 4, -20
 3973              		.cfi_offset 5, -16
 3974              		.cfi_offset 6, -12
 3975              		.cfi_offset 7, -8
 3976              		.cfi_offset 14, -4
 495:/home/takumi/takumique/main/reservoir/app/cmcis/mat.c **** #ifdef CHECK_ARGS
 496:/home/takumi/takumique/main/reservoir/app/cmcis/mat.c ****   if(c->n != c->m) {
 3977              		.loc 1 496 3 is_stmt 1 view .LVU1257
 3978              		.loc 1 496 7 is_stmt 0 view .LVU1258
 3979 0002 4268     		ldr	r2, [r0, #4]
 3980              		.loc 1 496 15 view .LVU1259
 3981 0004 8368     		ldr	r3, [r0, #8]
 3982              		.loc 1 496 5 view .LVU1260
 3983 0006 9A42     		cmp	r2, r3
 3984 0008 16D1     		bne	.L351
 3985 000a 0546     		mov	r5, r0
 3986 000c 57EC106B 		vmov	r6, r7, d0
 497:/home/takumi/takumique/main/reservoir/app/cmcis/mat.c ****     return -1;
 498:/home/takumi/takumique/main/reservoir/app/cmcis/mat.c ****   }
 499:/home/takumi/takumique/main/reservoir/app/cmcis/mat.c **** #endif
 500:/home/takumi/takumique/main/reservoir/app/cmcis/mat.c ****   c->t = 0;
 3987              		.loc 1 500 3 is_stmt 1 view .LVU1261
 3988              		.loc 1 500 8 is_stmt 0 view .LVU1262
 3989 0010 0024     		movs	r4, #0
 3990 0012 C460     		str	r4, [r0, #12]
 501:/home/takumi/takumique/main/reservoir/app/cmcis/mat.c ****   mat_f64_zeros(c);
 3991              		.loc 1 501 3 is_stmt 1 view .LVU1263
 3992 0014 FFF7FEFF 		bl	mat_f64_zeros
 3993              	.LVL323:
ARM GAS  /tmp/ccgNCQ0i.s 			page 93


 502:/home/takumi/takumique/main/reservoir/app/cmcis/mat.c ****   for(unsigned i = 0; i < c->n; i++) {
 3994              		.loc 1 502 3 view .LVU1264
 3995              	.LBB96:
 3996              		.loc 1 502 7 view .LVU1265
 3997              		.loc 1 502 16 is_stmt 0 view .LVU1266
 3998 0018 2346     		mov	r3, r4
 3999              		.loc 1 502 3 view .LVU1267
 4000 001a 08E0     		b	.L349
 4001              	.LVL324:
 4002              	.L350:
 503:/home/takumi/takumique/main/reservoir/app/cmcis/mat.c ****     *_MAT(*c, i, i) = l;
 4003              		.loc 1 503 5 is_stmt 1 discriminator 3 view .LVU1268
 4004              		.loc 1 503 6 is_stmt 0 discriminator 3 view .LVU1269
 4005 001c 2A68     		ldr	r2, [r5]
 4006 001e A968     		ldr	r1, [r5, #8]
 4007 0020 01FB0331 		mla	r1, r1, r3, r3
 4008 0024 02EBC102 		add	r2, r2, r1, lsl #3
 4009              		.loc 1 503 21 discriminator 3 view .LVU1270
 4010 0028 C2E90067 		strd	r6, [r2]
 502:/home/takumi/takumique/main/reservoir/app/cmcis/mat.c ****   for(unsigned i = 0; i < c->n; i++) {
 4011              		.loc 1 502 33 is_stmt 1 discriminator 3 view .LVU1271
 502:/home/takumi/takumique/main/reservoir/app/cmcis/mat.c ****   for(unsigned i = 0; i < c->n; i++) {
 4012              		.loc 1 502 34 is_stmt 0 discriminator 3 view .LVU1272
 4013 002c 0133     		adds	r3, r3, #1
 4014              	.LVL325:
 4015              	.L349:
 502:/home/takumi/takumique/main/reservoir/app/cmcis/mat.c ****   for(unsigned i = 0; i < c->n; i++) {
 4016              		.loc 1 502 23 is_stmt 1 discriminator 1 view .LVU1273
 502:/home/takumi/takumique/main/reservoir/app/cmcis/mat.c ****   for(unsigned i = 0; i < c->n; i++) {
 4017              		.loc 1 502 28 is_stmt 0 discriminator 1 view .LVU1274
 4018 002e 6A68     		ldr	r2, [r5, #4]
 502:/home/takumi/takumique/main/reservoir/app/cmcis/mat.c ****   for(unsigned i = 0; i < c->n; i++) {
 4019              		.loc 1 502 3 discriminator 1 view .LVU1275
 4020 0030 9A42     		cmp	r2, r3
 4021 0032 F3D8     		bhi	.L350
 4022              	.LBE96:
 504:/home/takumi/takumique/main/reservoir/app/cmcis/mat.c ****   }
 505:/home/takumi/takumique/main/reservoir/app/cmcis/mat.c ****   return 0;
 4023              		.loc 1 505 10 view .LVU1276
 4024 0034 0020     		movs	r0, #0
 4025              	.LVL326:
 4026              	.L347:
 506:/home/takumi/takumique/main/reservoir/app/cmcis/mat.c **** }
 4027              		.loc 1 506 1 view .LVU1277
 4028 0036 F8BD     		pop	{r3, r4, r5, r6, r7, pc}
 4029              	.LVL327:
 4030              	.L351:
 497:/home/takumi/takumique/main/reservoir/app/cmcis/mat.c ****   }
 4031              		.loc 1 497 12 view .LVU1278
 4032 0038 4FF0FF30 		mov	r0, #-1
 4033              	.LVL328:
 497:/home/takumi/takumique/main/reservoir/app/cmcis/mat.c ****   }
 4034              		.loc 1 497 12 view .LVU1279
 4035 003c FBE7     		b	.L347
 4036              		.cfi_endproc
 4037              	.LFE166:
 4039              		.global	__aeabi_ddiv
ARM GAS  /tmp/ccgNCQ0i.s 			page 94


 4040              		.global	__aeabi_dsub
 4041              		.section	.text.mat_f64_inv,"ax",%progbits
 4042              		.align	1
 4043              		.global	mat_f64_inv
 4044              		.syntax unified
 4045              		.thumb
 4046              		.thumb_func
 4047              		.fpu fpv4-sp-d16
 4049              	mat_f64_inv:
 4050              	.LVL329:
 4051              	.LFB167:
 507:/home/takumi/takumique/main/reservoir/app/cmcis/mat.c **** 
 508:/home/takumi/takumique/main/reservoir/app/cmcis/mat.c **** int mat_f64_inv(mat_f64_t *inv_a, mat_f64_t *a) {
 4052              		.loc 1 508 49 is_stmt 1 view -0
 4053              		.cfi_startproc
 4054              		@ args = 0, pretend = 0, frame = 8
 4055              		@ frame_needed = 0, uses_anonymous_args = 0
 509:/home/takumi/takumique/main/reservoir/app/cmcis/mat.c **** #ifdef CHECK_ARGS
 510:/home/takumi/takumique/main/reservoir/app/cmcis/mat.c ****   if(inv_a->n != a->n) {
 4056              		.loc 1 510 3 view .LVU1281
 4057              		.loc 1 510 11 is_stmt 0 view .LVU1282
 4058 0000 4268     		ldr	r2, [r0, #4]
 4059              		.loc 1 510 19 view .LVU1283
 4060 0002 4B68     		ldr	r3, [r1, #4]
 4061              		.loc 1 510 5 view .LVU1284
 4062 0004 9A42     		cmp	r2, r3
 4063 0006 40F02B81 		bne	.L373
 508:/home/takumi/takumique/main/reservoir/app/cmcis/mat.c **** #ifdef CHECK_ARGS
 4064              		.loc 1 508 49 view .LVU1285
 4065 000a 2DE9F04F 		push	{r4, r5, r6, r7, r8, r9, r10, fp, lr}
 4066              	.LCFI33:
 4067              		.cfi_def_cfa_offset 36
 4068              		.cfi_offset 4, -36
 4069              		.cfi_offset 5, -32
 4070              		.cfi_offset 6, -28
 4071              		.cfi_offset 7, -24
 4072              		.cfi_offset 8, -20
 4073              		.cfi_offset 9, -16
 4074              		.cfi_offset 10, -12
 4075              		.cfi_offset 11, -8
 4076              		.cfi_offset 14, -4
 4077 000e 83B0     		sub	sp, sp, #12
 4078              	.LCFI34:
 4079              		.cfi_def_cfa_offset 48
 4080 0010 0446     		mov	r4, r0
 4081 0012 8846     		mov	r8, r1
 511:/home/takumi/takumique/main/reservoir/app/cmcis/mat.c ****     return -1;
 512:/home/takumi/takumique/main/reservoir/app/cmcis/mat.c ****   }
 513:/home/takumi/takumique/main/reservoir/app/cmcis/mat.c ****   if(inv_a->m != a->m) {
 4082              		.loc 1 513 3 is_stmt 1 view .LVU1286
 4083              		.loc 1 513 11 is_stmt 0 view .LVU1287
 4084 0014 8368     		ldr	r3, [r0, #8]
 4085              		.loc 1 513 19 view .LVU1288
 4086 0016 8968     		ldr	r1, [r1, #8]
 4087              	.LVL330:
 4088              		.loc 1 513 5 view .LVU1289
 4089 0018 8B42     		cmp	r3, r1
ARM GAS  /tmp/ccgNCQ0i.s 			page 95


 4090 001a 40F02481 		bne	.L374
 514:/home/takumi/takumique/main/reservoir/app/cmcis/mat.c ****     return -1;
 515:/home/takumi/takumique/main/reservoir/app/cmcis/mat.c ****   }
 516:/home/takumi/takumique/main/reservoir/app/cmcis/mat.c ****   if(inv_a->n != inv_a->m) {
 4091              		.loc 1 516 3 is_stmt 1 view .LVU1290
 4092              		.loc 1 516 5 is_stmt 0 view .LVU1291
 4093 001e 9A42     		cmp	r2, r3
 4094 0020 40F02481 		bne	.L375
 517:/home/takumi/takumique/main/reservoir/app/cmcis/mat.c ****     return -1;
 518:/home/takumi/takumique/main/reservoir/app/cmcis/mat.c ****   }
 519:/home/takumi/takumique/main/reservoir/app/cmcis/mat.c **** #endif
 520:/home/takumi/takumique/main/reservoir/app/cmcis/mat.c ****   double temp;
 4095              		.loc 1 520 3 is_stmt 1 view .LVU1292
 521:/home/takumi/takumique/main/reservoir/app/cmcis/mat.c ****   mat_f64_identity(inv_a, 1.0f);
 4096              		.loc 1 521 3 view .LVU1293
 4097 0024 9FED940B 		vldr.64	d0, .L387
 4098 0028 FFF7FEFF 		bl	mat_f64_identity
 4099              	.LVL331:
 522:/home/takumi/takumique/main/reservoir/app/cmcis/mat.c ****   if(a->t) {
 4100              		.loc 1 522 3 view .LVU1294
 4101              		.loc 1 522 7 is_stmt 0 view .LVU1295
 4102 002c D8F80C30 		ldr	r3, [r8, #12]
 4103 0030 0193     		str	r3, [sp, #4]
 4104              		.loc 1 522 5 view .LVU1296
 4105 0032 002B     		cmp	r3, #0
 4106 0034 40F08580 		bne	.L376
 4107              	.LBB97:
 523:/home/takumi/takumique/main/reservoir/app/cmcis/mat.c ****     for(unsigned i = 0; i < inv_a->n; i++) {
 524:/home/takumi/takumique/main/reservoir/app/cmcis/mat.c ****       temp = 1.0 / *_MAT_T(*a, i, i);
 525:/home/takumi/takumique/main/reservoir/app/cmcis/mat.c ****       for(unsigned j = 0; j < inv_a->n; j++) {
 526:/home/takumi/takumique/main/reservoir/app/cmcis/mat.c ****         *_MAT_T(*a, i, j) *= temp;
 527:/home/takumi/takumique/main/reservoir/app/cmcis/mat.c ****         *_MAT(*inv_a, i, j) *= temp;
 528:/home/takumi/takumique/main/reservoir/app/cmcis/mat.c ****       }
 529:/home/takumi/takumique/main/reservoir/app/cmcis/mat.c ****       for(unsigned j = 0; j < inv_a->n; j++) {
 530:/home/takumi/takumique/main/reservoir/app/cmcis/mat.c ****         if(i != j) {
 531:/home/takumi/takumique/main/reservoir/app/cmcis/mat.c ****           temp = *_MAT_T(*a, j, i);
 532:/home/takumi/takumique/main/reservoir/app/cmcis/mat.c ****           for(unsigned k = 0; k < inv_a->n; k++) {
 533:/home/takumi/takumique/main/reservoir/app/cmcis/mat.c ****             *_MAT_T(*a, j, k) -= *_MAT_T(*a, i, k) * temp;
 534:/home/takumi/takumique/main/reservoir/app/cmcis/mat.c ****             *_MAT(*inv_a, j, k) -= *_MAT(*inv_a, i, k) * temp;
 535:/home/takumi/takumique/main/reservoir/app/cmcis/mat.c ****           }
 536:/home/takumi/takumique/main/reservoir/app/cmcis/mat.c ****         }
 537:/home/takumi/takumique/main/reservoir/app/cmcis/mat.c ****       }
 538:/home/takumi/takumique/main/reservoir/app/cmcis/mat.c ****     }
 539:/home/takumi/takumique/main/reservoir/app/cmcis/mat.c ****   } else {
 540:/home/takumi/takumique/main/reservoir/app/cmcis/mat.c ****     for(unsigned i = 0; i < inv_a->n; i++) {
 4108              		.loc 1 540 18 view .LVU1297
 4109 0038 9946     		mov	r9, r3
 4110 003a D8E0     		b	.L356
 4111              	.LVL332:
 4112              	.L383:
 4113              		.loc 1 540 18 view .LVU1298
 4114              	.LBE97:
 4115              	.LBB102:
 4116              	.LBB103:
 529:/home/takumi/takumique/main/reservoir/app/cmcis/mat.c ****         if(i != j) {
 4117              		.loc 1 529 20 view .LVU1299
 4118 003c 0027     		movs	r7, #0
ARM GAS  /tmp/ccgNCQ0i.s 			page 96


 4119 003e 36E0     		b	.L359
 4120              	.LVL333:
 4121              	.L362:
 4122              	.LBB104:
 533:/home/takumi/takumique/main/reservoir/app/cmcis/mat.c ****             *_MAT(*inv_a, j, k) -= *_MAT(*inv_a, i, k) * temp;
 4123              		.loc 1 533 13 is_stmt 1 discriminator 3 view .LVU1300
 533:/home/takumi/takumique/main/reservoir/app/cmcis/mat.c ****             *_MAT(*inv_a, j, k) -= *_MAT(*inv_a, i, k) * temp;
 4124              		.loc 1 533 14 is_stmt 0 discriminator 3 view .LVU1301
 4125 0040 D8F80010 		ldr	r1, [r8]
 4126 0044 D8F80430 		ldr	r3, [r8, #4]
 533:/home/takumi/takumique/main/reservoir/app/cmcis/mat.c ****             *_MAT(*inv_a, j, k) -= *_MAT(*inv_a, i, k) * temp;
 4127              		.loc 1 533 31 discriminator 3 view .LVU1302
 4128 0048 05FB03F3 		mul	r3, r5, r3
 4129 004c DE19     		adds	r6, r3, r7
 4130 004e 01EBC606 		add	r6, r1, r6, lsl #3
 533:/home/takumi/takumique/main/reservoir/app/cmcis/mat.c ****             *_MAT(*inv_a, j, k) -= *_MAT(*inv_a, i, k) * temp;
 4131              		.loc 1 533 35 discriminator 3 view .LVU1303
 4132 0052 4B44     		add	r3, r3, r9
 4133 0054 01EBC301 		add	r1, r1, r3, lsl #3
 533:/home/takumi/takumique/main/reservoir/app/cmcis/mat.c ****             *_MAT(*inv_a, j, k) -= *_MAT(*inv_a, i, k) * temp;
 4134              		.loc 1 533 52 discriminator 3 view .LVU1304
 4135 0058 5246     		mov	r2, r10
 4136 005a 5B46     		mov	r3, fp
 4137 005c D1E90001 		ldrd	r0, [r1]
 4138 0060 FFF7FEFF 		bl	__aeabi_dmul
 4139              	.LVL334:
 4140 0064 0246     		mov	r2, r0
 4141 0066 0B46     		mov	r3, r1
 533:/home/takumi/takumique/main/reservoir/app/cmcis/mat.c ****             *_MAT(*inv_a, j, k) -= *_MAT(*inv_a, i, k) * temp;
 4142              		.loc 1 533 31 discriminator 3 view .LVU1305
 4143 0068 D6E90001 		ldrd	r0, [r6]
 4144 006c FFF7FEFF 		bl	__aeabi_dsub
 4145              	.LVL335:
 4146 0070 C6E90001 		strd	r0, [r6]
 534:/home/takumi/takumique/main/reservoir/app/cmcis/mat.c ****           }
 4147              		.loc 1 534 13 is_stmt 1 discriminator 3 view .LVU1306
 534:/home/takumi/takumique/main/reservoir/app/cmcis/mat.c ****           }
 4148              		.loc 1 534 14 is_stmt 0 discriminator 3 view .LVU1307
 4149 0074 2368     		ldr	r3, [r4]
 4150 0076 A168     		ldr	r1, [r4, #8]
 534:/home/takumi/takumique/main/reservoir/app/cmcis/mat.c ****           }
 4151              		.loc 1 534 33 discriminator 3 view .LVU1308
 4152 0078 07FB0156 		mla	r6, r7, r1, r5
 4153 007c 03EBC606 		add	r6, r3, r6, lsl #3
 534:/home/takumi/takumique/main/reservoir/app/cmcis/mat.c ****           }
 4154              		.loc 1 534 37 discriminator 3 view .LVU1309
 4155 0080 09FB0151 		mla	r1, r9, r1, r5
 4156 0084 03EBC101 		add	r1, r3, r1, lsl #3
 534:/home/takumi/takumique/main/reservoir/app/cmcis/mat.c ****           }
 4157              		.loc 1 534 56 discriminator 3 view .LVU1310
 4158 0088 5246     		mov	r2, r10
 4159 008a 5B46     		mov	r3, fp
 4160 008c D1E90001 		ldrd	r0, [r1]
 4161 0090 FFF7FEFF 		bl	__aeabi_dmul
 4162              	.LVL336:
 4163 0094 0246     		mov	r2, r0
 4164 0096 0B46     		mov	r3, r1
ARM GAS  /tmp/ccgNCQ0i.s 			page 97


 534:/home/takumi/takumique/main/reservoir/app/cmcis/mat.c ****           }
 4165              		.loc 1 534 33 discriminator 3 view .LVU1311
 4166 0098 D6E90001 		ldrd	r0, [r6]
 4167 009c FFF7FEFF 		bl	__aeabi_dsub
 4168              	.LVL337:
 4169 00a0 C6E90001 		strd	r0, [r6]
 532:/home/takumi/takumique/main/reservoir/app/cmcis/mat.c ****             *_MAT_T(*a, j, k) -= *_MAT_T(*a, i, k) * temp;
 4170              		.loc 1 532 45 is_stmt 1 discriminator 3 view .LVU1312
 532:/home/takumi/takumique/main/reservoir/app/cmcis/mat.c ****             *_MAT_T(*a, j, k) -= *_MAT_T(*a, i, k) * temp;
 4171              		.loc 1 532 46 is_stmt 0 discriminator 3 view .LVU1313
 4172 00a4 0135     		adds	r5, r5, #1
 4173              	.LVL338:
 4174              	.L361:
 532:/home/takumi/takumique/main/reservoir/app/cmcis/mat.c ****             *_MAT_T(*a, j, k) -= *_MAT_T(*a, i, k) * temp;
 4175              		.loc 1 532 31 is_stmt 1 discriminator 1 view .LVU1314
 532:/home/takumi/takumique/main/reservoir/app/cmcis/mat.c ****             *_MAT_T(*a, j, k) -= *_MAT_T(*a, i, k) * temp;
 4176              		.loc 1 532 40 is_stmt 0 discriminator 1 view .LVU1315
 4177 00a6 6368     		ldr	r3, [r4, #4]
 532:/home/takumi/takumique/main/reservoir/app/cmcis/mat.c ****             *_MAT_T(*a, j, k) -= *_MAT_T(*a, i, k) * temp;
 4178              		.loc 1 532 11 discriminator 1 view .LVU1316
 4179 00a8 AB42     		cmp	r3, r5
 4180 00aa C9D8     		bhi	.L362
 4181              	.LVL339:
 4182              	.L360:
 532:/home/takumi/takumique/main/reservoir/app/cmcis/mat.c ****             *_MAT_T(*a, j, k) -= *_MAT_T(*a, i, k) * temp;
 4183              		.loc 1 532 11 discriminator 1 view .LVU1317
 4184              	.LBE104:
 529:/home/takumi/takumique/main/reservoir/app/cmcis/mat.c ****         if(i != j) {
 4185              		.loc 1 529 41 is_stmt 1 discriminator 2 view .LVU1318
 529:/home/takumi/takumique/main/reservoir/app/cmcis/mat.c ****         if(i != j) {
 4186              		.loc 1 529 42 is_stmt 0 discriminator 2 view .LVU1319
 4187 00ac 0137     		adds	r7, r7, #1
 4188              	.LVL340:
 4189              	.L359:
 529:/home/takumi/takumique/main/reservoir/app/cmcis/mat.c ****         if(i != j) {
 4190              		.loc 1 529 27 is_stmt 1 discriminator 1 view .LVU1320
 529:/home/takumi/takumique/main/reservoir/app/cmcis/mat.c ****         if(i != j) {
 4191              		.loc 1 529 36 is_stmt 0 discriminator 1 view .LVU1321
 4192 00ae 6368     		ldr	r3, [r4, #4]
 529:/home/takumi/takumique/main/reservoir/app/cmcis/mat.c ****         if(i != j) {
 4193              		.loc 1 529 7 discriminator 1 view .LVU1322
 4194 00b0 BB42     		cmp	r3, r7
 4195 00b2 0DD9     		bls	.L381
 530:/home/takumi/takumique/main/reservoir/app/cmcis/mat.c ****           temp = *_MAT_T(*a, j, i);
 4196              		.loc 1 530 9 is_stmt 1 view .LVU1323
 530:/home/takumi/takumique/main/reservoir/app/cmcis/mat.c ****           temp = *_MAT_T(*a, j, i);
 4197              		.loc 1 530 11 is_stmt 0 view .LVU1324
 4198 00b4 B945     		cmp	r9, r7
 4199 00b6 F9D0     		beq	.L360
 531:/home/takumi/takumique/main/reservoir/app/cmcis/mat.c ****           for(unsigned k = 0; k < inv_a->n; k++) {
 4200              		.loc 1 531 11 is_stmt 1 view .LVU1325
 531:/home/takumi/takumique/main/reservoir/app/cmcis/mat.c ****           for(unsigned k = 0; k < inv_a->n; k++) {
 4201              		.loc 1 531 19 is_stmt 0 view .LVU1326
 4202 00b8 D8F80030 		ldr	r3, [r8]
 4203 00bc D8F80420 		ldr	r2, [r8, #4]
 4204 00c0 09FB0272 		mla	r2, r9, r2, r7
 4205 00c4 03EBC203 		add	r3, r3, r2, lsl #3
ARM GAS  /tmp/ccgNCQ0i.s 			page 98


 531:/home/takumi/takumique/main/reservoir/app/cmcis/mat.c ****           for(unsigned k = 0; k < inv_a->n; k++) {
 4206              		.loc 1 531 16 view .LVU1327
 4207 00c8 D3E900AB 		ldrd	r10, [r3]
 4208              	.LVL341:
 532:/home/takumi/takumique/main/reservoir/app/cmcis/mat.c ****             *_MAT_T(*a, j, k) -= *_MAT_T(*a, i, k) * temp;
 4209              		.loc 1 532 11 is_stmt 1 view .LVU1328
 4210              	.LBB105:
 532:/home/takumi/takumique/main/reservoir/app/cmcis/mat.c ****             *_MAT_T(*a, j, k) -= *_MAT_T(*a, i, k) * temp;
 4211              		.loc 1 532 15 view .LVU1329
 532:/home/takumi/takumique/main/reservoir/app/cmcis/mat.c ****             *_MAT_T(*a, j, k) -= *_MAT_T(*a, i, k) * temp;
 4212              		.loc 1 532 24 is_stmt 0 view .LVU1330
 4213 00cc 0025     		movs	r5, #0
 532:/home/takumi/takumique/main/reservoir/app/cmcis/mat.c ****             *_MAT_T(*a, j, k) -= *_MAT_T(*a, i, k) * temp;
 4214              		.loc 1 532 11 view .LVU1331
 4215 00ce EAE7     		b	.L361
 4216              	.LVL342:
 4217              	.L381:
 532:/home/takumi/takumique/main/reservoir/app/cmcis/mat.c ****             *_MAT_T(*a, j, k) -= *_MAT_T(*a, i, k) * temp;
 4218              		.loc 1 532 11 view .LVU1332
 4219              	.LBE105:
 4220              	.LBE103:
 523:/home/takumi/takumique/main/reservoir/app/cmcis/mat.c ****       temp = 1.0 / *_MAT_T(*a, i, i);
 4221              		.loc 1 523 39 is_stmt 1 discriminator 2 view .LVU1333
 523:/home/takumi/takumique/main/reservoir/app/cmcis/mat.c ****       temp = 1.0 / *_MAT_T(*a, i, i);
 4222              		.loc 1 523 40 is_stmt 0 discriminator 2 view .LVU1334
 4223 00d0 09F10109 		add	r9, r9, #1
 4224              	.LVL343:
 4225              	.L355:
 523:/home/takumi/takumique/main/reservoir/app/cmcis/mat.c ****       temp = 1.0 / *_MAT_T(*a, i, i);
 4226              		.loc 1 523 25 is_stmt 1 discriminator 1 view .LVU1335
 523:/home/takumi/takumique/main/reservoir/app/cmcis/mat.c ****       temp = 1.0 / *_MAT_T(*a, i, i);
 4227              		.loc 1 523 34 is_stmt 0 discriminator 1 view .LVU1336
 4228 00d4 6368     		ldr	r3, [r4, #4]
 523:/home/takumi/takumique/main/reservoir/app/cmcis/mat.c ****       temp = 1.0 / *_MAT_T(*a, i, i);
 4229              		.loc 1 523 5 discriminator 1 view .LVU1337
 4230 00d6 4B45     		cmp	r3, r9
 4231 00d8 37D9     		bls	.L382
 524:/home/takumi/takumique/main/reservoir/app/cmcis/mat.c ****       for(unsigned j = 0; j < inv_a->n; j++) {
 4232              		.loc 1 524 7 is_stmt 1 view .LVU1338
 524:/home/takumi/takumique/main/reservoir/app/cmcis/mat.c ****       for(unsigned j = 0; j < inv_a->n; j++) {
 4233              		.loc 1 524 21 is_stmt 0 view .LVU1339
 4234 00da D8F80030 		ldr	r3, [r8]
 4235 00de D8F80420 		ldr	r2, [r8, #4]
 4236 00e2 02FB0992 		mla	r2, r2, r9, r9
 4237 00e6 03EBC203 		add	r3, r3, r2, lsl #3
 524:/home/takumi/takumique/main/reservoir/app/cmcis/mat.c ****       for(unsigned j = 0; j < inv_a->n; j++) {
 4238              		.loc 1 524 12 view .LVU1340
 4239 00ea D3E90023 		ldrd	r2, [r3]
 4240 00ee 0020     		movs	r0, #0
 4241 00f0 6349     		ldr	r1, .L387+8
 4242 00f2 FFF7FEFF 		bl	__aeabi_ddiv
 4243              	.LVL344:
 4244 00f6 0646     		mov	r6, r0
 4245 00f8 0F46     		mov	r7, r1
 4246              	.LVL345:
 525:/home/takumi/takumique/main/reservoir/app/cmcis/mat.c ****         *_MAT_T(*a, i, j) *= temp;
 4247              		.loc 1 525 7 is_stmt 1 view .LVU1341
ARM GAS  /tmp/ccgNCQ0i.s 			page 99


 4248              	.LBB106:
 525:/home/takumi/takumique/main/reservoir/app/cmcis/mat.c ****         *_MAT_T(*a, i, j) *= temp;
 4249              		.loc 1 525 11 view .LVU1342
 525:/home/takumi/takumique/main/reservoir/app/cmcis/mat.c ****         *_MAT_T(*a, i, j) *= temp;
 4250              		.loc 1 525 20 is_stmt 0 view .LVU1343
 4251 00fa 0025     		movs	r5, #0
 4252              	.LVL346:
 4253              	.L357:
 525:/home/takumi/takumique/main/reservoir/app/cmcis/mat.c ****         *_MAT_T(*a, i, j) *= temp;
 4254              		.loc 1 525 27 is_stmt 1 discriminator 1 view .LVU1344
 525:/home/takumi/takumique/main/reservoir/app/cmcis/mat.c ****         *_MAT_T(*a, i, j) *= temp;
 4255              		.loc 1 525 36 is_stmt 0 discriminator 1 view .LVU1345
 4256 00fc 6368     		ldr	r3, [r4, #4]
 525:/home/takumi/takumique/main/reservoir/app/cmcis/mat.c ****         *_MAT_T(*a, i, j) *= temp;
 4257              		.loc 1 525 7 discriminator 1 view .LVU1346
 4258 00fe AB42     		cmp	r3, r5
 4259 0100 9CD9     		bls	.L383
 526:/home/takumi/takumique/main/reservoir/app/cmcis/mat.c ****         *_MAT(*inv_a, i, j) *= temp;
 4260              		.loc 1 526 9 is_stmt 1 discriminator 3 view .LVU1347
 526:/home/takumi/takumique/main/reservoir/app/cmcis/mat.c ****         *_MAT(*inv_a, i, j) *= temp;
 4261              		.loc 1 526 10 is_stmt 0 discriminator 3 view .LVU1348
 4262 0102 D8F80020 		ldr	r2, [r8]
 4263 0106 D8F80430 		ldr	r3, [r8, #4]
 526:/home/takumi/takumique/main/reservoir/app/cmcis/mat.c ****         *_MAT(*inv_a, i, j) *= temp;
 4264              		.loc 1 526 27 discriminator 3 view .LVU1349
 4265 010a 05FB0393 		mla	r3, r5, r3, r9
 4266 010e 02EBC30A 		add	r10, r2, r3, lsl #3
 4267 0112 3246     		mov	r2, r6
 4268 0114 3B46     		mov	r3, r7
 4269 0116 DAE90001 		ldrd	r0, [r10]
 4270 011a FFF7FEFF 		bl	__aeabi_dmul
 4271              	.LVL347:
 4272 011e CAE90001 		strd	r0, [r10]
 527:/home/takumi/takumique/main/reservoir/app/cmcis/mat.c ****       }
 4273              		.loc 1 527 9 is_stmt 1 discriminator 3 view .LVU1350
 527:/home/takumi/takumique/main/reservoir/app/cmcis/mat.c ****       }
 4274              		.loc 1 527 10 is_stmt 0 discriminator 3 view .LVU1351
 4275 0122 2268     		ldr	r2, [r4]
 4276 0124 A368     		ldr	r3, [r4, #8]
 527:/home/takumi/takumique/main/reservoir/app/cmcis/mat.c ****       }
 4277              		.loc 1 527 29 discriminator 3 view .LVU1352
 4278 0126 09FB0353 		mla	r3, r9, r3, r5
 4279 012a 02EBC30A 		add	r10, r2, r3, lsl #3
 4280 012e 3246     		mov	r2, r6
 4281 0130 3B46     		mov	r3, r7
 4282 0132 DAE90001 		ldrd	r0, [r10]
 4283 0136 FFF7FEFF 		bl	__aeabi_dmul
 4284              	.LVL348:
 4285 013a CAE90001 		strd	r0, [r10]
 525:/home/takumi/takumique/main/reservoir/app/cmcis/mat.c ****         *_MAT_T(*a, i, j) *= temp;
 4286              		.loc 1 525 41 is_stmt 1 discriminator 3 view .LVU1353
 525:/home/takumi/takumique/main/reservoir/app/cmcis/mat.c ****         *_MAT_T(*a, i, j) *= temp;
 4287              		.loc 1 525 42 is_stmt 0 discriminator 3 view .LVU1354
 4288 013e 0135     		adds	r5, r5, #1
 4289              	.LVL349:
 525:/home/takumi/takumique/main/reservoir/app/cmcis/mat.c ****         *_MAT_T(*a, i, j) *= temp;
 4290              		.loc 1 525 42 discriminator 3 view .LVU1355
ARM GAS  /tmp/ccgNCQ0i.s 			page 100


 4291 0140 DCE7     		b	.L357
 4292              	.LVL350:
 4293              	.L376:
 525:/home/takumi/takumique/main/reservoir/app/cmcis/mat.c ****         *_MAT_T(*a, i, j) *= temp;
 4294              		.loc 1 525 42 discriminator 3 view .LVU1356
 4295              	.LBE106:
 523:/home/takumi/takumique/main/reservoir/app/cmcis/mat.c ****       temp = 1.0 / *_MAT_T(*a, i, i);
 4296              		.loc 1 523 18 view .LVU1357
 4297 0142 4FF0000B 		mov	fp, #0
 4298 0146 D946     		mov	r9, fp
 4299 0148 C4E7     		b	.L355
 4300              	.LVL351:
 4301              	.L382:
 523:/home/takumi/takumique/main/reservoir/app/cmcis/mat.c ****       temp = 1.0 / *_MAT_T(*a, i, i);
 4302              		.loc 1 523 18 view .LVU1358
 4303              	.LBE102:
 541:/home/takumi/takumique/main/reservoir/app/cmcis/mat.c ****       temp = 1.0 / *_MAT(*a, i, i);
 542:/home/takumi/takumique/main/reservoir/app/cmcis/mat.c ****       for(unsigned j = 0; j < inv_a->n; j++) {
 543:/home/takumi/takumique/main/reservoir/app/cmcis/mat.c ****         *_MAT(*a, i, j) *= temp;
 544:/home/takumi/takumique/main/reservoir/app/cmcis/mat.c ****         *_MAT(*inv_a, i, j) *= temp;
 545:/home/takumi/takumique/main/reservoir/app/cmcis/mat.c ****       }
 546:/home/takumi/takumique/main/reservoir/app/cmcis/mat.c ****       for(unsigned j = 0; j < inv_a->n; j++) {
 547:/home/takumi/takumique/main/reservoir/app/cmcis/mat.c ****         if(i != j) {
 548:/home/takumi/takumique/main/reservoir/app/cmcis/mat.c ****           temp = *_MAT(*a, j, i);
 549:/home/takumi/takumique/main/reservoir/app/cmcis/mat.c ****           for(unsigned k = 0; k < inv_a->n; k++) {
 550:/home/takumi/takumique/main/reservoir/app/cmcis/mat.c ****             *_MAT(*a, j, k) -= *_MAT(*a, i, k) * temp;
 551:/home/takumi/takumique/main/reservoir/app/cmcis/mat.c ****             *_MAT(*inv_a, j, k) -= *_MAT(*inv_a, i, k) * temp;
 552:/home/takumi/takumique/main/reservoir/app/cmcis/mat.c ****           }
 553:/home/takumi/takumique/main/reservoir/app/cmcis/mat.c ****         }
 554:/home/takumi/takumique/main/reservoir/app/cmcis/mat.c ****       }
 555:/home/takumi/takumique/main/reservoir/app/cmcis/mat.c ****     }
 556:/home/takumi/takumique/main/reservoir/app/cmcis/mat.c ****   }
 557:/home/takumi/takumique/main/reservoir/app/cmcis/mat.c ****   return 0;
 4304              		.loc 1 557 10 view .LVU1359
 4305 014a 0020     		movs	r0, #0
 4306              	.LVL352:
 4307              	.L353:
 558:/home/takumi/takumique/main/reservoir/app/cmcis/mat.c **** }
 4308              		.loc 1 558 1 view .LVU1360
 4309 014c 03B0     		add	sp, sp, #12
 4310              	.LCFI35:
 4311              		.cfi_remember_state
 4312              		.cfi_def_cfa_offset 36
 4313              		@ sp needed
 4314 014e BDE8F08F 		pop	{r4, r5, r6, r7, r8, r9, r10, fp, pc}
 4315              	.LVL353:
 4316              	.L386:
 4317              	.LCFI36:
 4318              		.cfi_restore_state
 4319              	.LBB107:
 4320              	.LBB98:
 546:/home/takumi/takumique/main/reservoir/app/cmcis/mat.c ****         if(i != j) {
 4321              		.loc 1 546 20 view .LVU1361
 4322 0152 DDF804B0 		ldr	fp, [sp, #4]
 4323 0156 5F46     		mov	r7, fp
 4324 0158 36E0     		b	.L367
 4325              	.LVL354:
ARM GAS  /tmp/ccgNCQ0i.s 			page 101


 4326              	.L370:
 4327              	.LBB99:
 550:/home/takumi/takumique/main/reservoir/app/cmcis/mat.c ****             *_MAT(*inv_a, j, k) -= *_MAT(*inv_a, i, k) * temp;
 4328              		.loc 1 550 13 is_stmt 1 discriminator 3 view .LVU1362
 550:/home/takumi/takumique/main/reservoir/app/cmcis/mat.c ****             *_MAT(*inv_a, j, k) -= *_MAT(*inv_a, i, k) * temp;
 4329              		.loc 1 550 14 is_stmt 0 discriminator 3 view .LVU1363
 4330 015a D8F80030 		ldr	r3, [r8]
 4331 015e D8F80810 		ldr	r1, [r8, #8]
 550:/home/takumi/takumique/main/reservoir/app/cmcis/mat.c ****             *_MAT(*inv_a, j, k) -= *_MAT(*inv_a, i, k) * temp;
 4332              		.loc 1 550 29 discriminator 3 view .LVU1364
 4333 0162 07FB0156 		mla	r6, r7, r1, r5
 4334 0166 03EBC606 		add	r6, r3, r6, lsl #3
 550:/home/takumi/takumique/main/reservoir/app/cmcis/mat.c ****             *_MAT(*inv_a, j, k) -= *_MAT(*inv_a, i, k) * temp;
 4335              		.loc 1 550 33 discriminator 3 view .LVU1365
 4336 016a 09FB0151 		mla	r1, r9, r1, r5
 4337 016e 03EBC101 		add	r1, r3, r1, lsl #3
 550:/home/takumi/takumique/main/reservoir/app/cmcis/mat.c ****             *_MAT(*inv_a, j, k) -= *_MAT(*inv_a, i, k) * temp;
 4338              		.loc 1 550 48 discriminator 3 view .LVU1366
 4339 0172 5246     		mov	r2, r10
 4340 0174 5B46     		mov	r3, fp
 4341 0176 D1E90001 		ldrd	r0, [r1]
 4342 017a FFF7FEFF 		bl	__aeabi_dmul
 4343              	.LVL355:
 4344 017e 0246     		mov	r2, r0
 4345 0180 0B46     		mov	r3, r1
 550:/home/takumi/takumique/main/reservoir/app/cmcis/mat.c ****             *_MAT(*inv_a, j, k) -= *_MAT(*inv_a, i, k) * temp;
 4346              		.loc 1 550 29 discriminator 3 view .LVU1367
 4347 0182 D6E90001 		ldrd	r0, [r6]
 4348 0186 FFF7FEFF 		bl	__aeabi_dsub
 4349              	.LVL356:
 4350 018a C6E90001 		strd	r0, [r6]
 551:/home/takumi/takumique/main/reservoir/app/cmcis/mat.c ****           }
 4351              		.loc 1 551 13 is_stmt 1 discriminator 3 view .LVU1368
 551:/home/takumi/takumique/main/reservoir/app/cmcis/mat.c ****           }
 4352              		.loc 1 551 14 is_stmt 0 discriminator 3 view .LVU1369
 4353 018e 2368     		ldr	r3, [r4]
 4354 0190 A168     		ldr	r1, [r4, #8]
 551:/home/takumi/takumique/main/reservoir/app/cmcis/mat.c ****           }
 4355              		.loc 1 551 33 discriminator 3 view .LVU1370
 4356 0192 07FB0156 		mla	r6, r7, r1, r5
 4357 0196 03EBC606 		add	r6, r3, r6, lsl #3
 551:/home/takumi/takumique/main/reservoir/app/cmcis/mat.c ****           }
 4358              		.loc 1 551 37 discriminator 3 view .LVU1371
 4359 019a 09FB0151 		mla	r1, r9, r1, r5
 4360 019e 03EBC101 		add	r1, r3, r1, lsl #3
 551:/home/takumi/takumique/main/reservoir/app/cmcis/mat.c ****           }
 4361              		.loc 1 551 56 discriminator 3 view .LVU1372
 4362 01a2 5246     		mov	r2, r10
 4363 01a4 5B46     		mov	r3, fp
 4364 01a6 D1E90001 		ldrd	r0, [r1]
 4365 01aa FFF7FEFF 		bl	__aeabi_dmul
 4366              	.LVL357:
 4367 01ae 0246     		mov	r2, r0
 4368 01b0 0B46     		mov	r3, r1
 551:/home/takumi/takumique/main/reservoir/app/cmcis/mat.c ****           }
 4369              		.loc 1 551 33 discriminator 3 view .LVU1373
 4370 01b2 D6E90001 		ldrd	r0, [r6]
ARM GAS  /tmp/ccgNCQ0i.s 			page 102


 4371 01b6 FFF7FEFF 		bl	__aeabi_dsub
 4372              	.LVL358:
 4373 01ba C6E90001 		strd	r0, [r6]
 549:/home/takumi/takumique/main/reservoir/app/cmcis/mat.c ****             *_MAT(*a, j, k) -= *_MAT(*a, i, k) * temp;
 4374              		.loc 1 549 45 is_stmt 1 discriminator 3 view .LVU1374
 549:/home/takumi/takumique/main/reservoir/app/cmcis/mat.c ****             *_MAT(*a, j, k) -= *_MAT(*a, i, k) * temp;
 4375              		.loc 1 549 46 is_stmt 0 discriminator 3 view .LVU1375
 4376 01be 0135     		adds	r5, r5, #1
 4377              	.LVL359:
 4378              	.L369:
 549:/home/takumi/takumique/main/reservoir/app/cmcis/mat.c ****             *_MAT(*a, j, k) -= *_MAT(*a, i, k) * temp;
 4379              		.loc 1 549 31 is_stmt 1 discriminator 1 view .LVU1376
 549:/home/takumi/takumique/main/reservoir/app/cmcis/mat.c ****             *_MAT(*a, j, k) -= *_MAT(*a, i, k) * temp;
 4380              		.loc 1 549 40 is_stmt 0 discriminator 1 view .LVU1377
 4381 01c0 6368     		ldr	r3, [r4, #4]
 549:/home/takumi/takumique/main/reservoir/app/cmcis/mat.c ****             *_MAT(*a, j, k) -= *_MAT(*a, i, k) * temp;
 4382              		.loc 1 549 11 discriminator 1 view .LVU1378
 4383 01c2 AB42     		cmp	r3, r5
 4384 01c4 C9D8     		bhi	.L370
 4385              	.LVL360:
 4386              	.L368:
 549:/home/takumi/takumique/main/reservoir/app/cmcis/mat.c ****             *_MAT(*a, j, k) -= *_MAT(*a, i, k) * temp;
 4387              		.loc 1 549 11 discriminator 1 view .LVU1379
 4388              	.LBE99:
 546:/home/takumi/takumique/main/reservoir/app/cmcis/mat.c ****         if(i != j) {
 4389              		.loc 1 546 41 is_stmt 1 discriminator 2 view .LVU1380
 546:/home/takumi/takumique/main/reservoir/app/cmcis/mat.c ****         if(i != j) {
 4390              		.loc 1 546 42 is_stmt 0 discriminator 2 view .LVU1381
 4391 01c6 0137     		adds	r7, r7, #1
 4392              	.LVL361:
 4393              	.L367:
 546:/home/takumi/takumique/main/reservoir/app/cmcis/mat.c ****         if(i != j) {
 4394              		.loc 1 546 27 is_stmt 1 discriminator 1 view .LVU1382
 546:/home/takumi/takumique/main/reservoir/app/cmcis/mat.c ****         if(i != j) {
 4395              		.loc 1 546 36 is_stmt 0 discriminator 1 view .LVU1383
 4396 01c8 6368     		ldr	r3, [r4, #4]
 546:/home/takumi/takumique/main/reservoir/app/cmcis/mat.c ****         if(i != j) {
 4397              		.loc 1 546 7 discriminator 1 view .LVU1384
 4398 01ca BB42     		cmp	r3, r7
 4399 01cc 0DD9     		bls	.L384
 547:/home/takumi/takumique/main/reservoir/app/cmcis/mat.c ****           temp = *_MAT(*a, j, i);
 4400              		.loc 1 547 9 is_stmt 1 view .LVU1385
 547:/home/takumi/takumique/main/reservoir/app/cmcis/mat.c ****           temp = *_MAT(*a, j, i);
 4401              		.loc 1 547 11 is_stmt 0 view .LVU1386
 4402 01ce B945     		cmp	r9, r7
 4403 01d0 F9D0     		beq	.L368
 548:/home/takumi/takumique/main/reservoir/app/cmcis/mat.c ****           for(unsigned k = 0; k < inv_a->n; k++) {
 4404              		.loc 1 548 11 is_stmt 1 view .LVU1387
 548:/home/takumi/takumique/main/reservoir/app/cmcis/mat.c ****           for(unsigned k = 0; k < inv_a->n; k++) {
 4405              		.loc 1 548 19 is_stmt 0 view .LVU1388
 4406 01d2 D8F80030 		ldr	r3, [r8]
 4407 01d6 D8F80820 		ldr	r2, [r8, #8]
 4408 01da 07FB0292 		mla	r2, r7, r2, r9
 4409 01de 03EBC203 		add	r3, r3, r2, lsl #3
 548:/home/takumi/takumique/main/reservoir/app/cmcis/mat.c ****           for(unsigned k = 0; k < inv_a->n; k++) {
 4410              		.loc 1 548 16 view .LVU1389
 4411 01e2 D3E900AB 		ldrd	r10, [r3]
ARM GAS  /tmp/ccgNCQ0i.s 			page 103


 4412              	.LVL362:
 549:/home/takumi/takumique/main/reservoir/app/cmcis/mat.c ****             *_MAT(*a, j, k) -= *_MAT(*a, i, k) * temp;
 4413              		.loc 1 549 11 is_stmt 1 view .LVU1390
 4414              	.LBB100:
 549:/home/takumi/takumique/main/reservoir/app/cmcis/mat.c ****             *_MAT(*a, j, k) -= *_MAT(*a, i, k) * temp;
 4415              		.loc 1 549 15 view .LVU1391
 549:/home/takumi/takumique/main/reservoir/app/cmcis/mat.c ****             *_MAT(*a, j, k) -= *_MAT(*a, i, k) * temp;
 4416              		.loc 1 549 24 is_stmt 0 view .LVU1392
 4417 01e6 019D     		ldr	r5, [sp, #4]
 549:/home/takumi/takumique/main/reservoir/app/cmcis/mat.c ****             *_MAT(*a, j, k) -= *_MAT(*a, i, k) * temp;
 4418              		.loc 1 549 11 view .LVU1393
 4419 01e8 EAE7     		b	.L369
 4420              	.LVL363:
 4421              	.L384:
 549:/home/takumi/takumique/main/reservoir/app/cmcis/mat.c ****             *_MAT(*a, j, k) -= *_MAT(*a, i, k) * temp;
 4422              		.loc 1 549 11 view .LVU1394
 4423              	.LBE100:
 4424              	.LBE98:
 540:/home/takumi/takumique/main/reservoir/app/cmcis/mat.c ****       temp = 1.0 / *_MAT(*a, i, i);
 4425              		.loc 1 540 39 is_stmt 1 discriminator 2 view .LVU1395
 540:/home/takumi/takumique/main/reservoir/app/cmcis/mat.c ****       temp = 1.0 / *_MAT(*a, i, i);
 4426              		.loc 1 540 40 is_stmt 0 discriminator 2 view .LVU1396
 4427 01ea 09F10109 		add	r9, r9, #1
 4428              	.LVL364:
 4429              	.L356:
 540:/home/takumi/takumique/main/reservoir/app/cmcis/mat.c ****       temp = 1.0 / *_MAT(*a, i, i);
 4430              		.loc 1 540 25 is_stmt 1 discriminator 1 view .LVU1397
 540:/home/takumi/takumique/main/reservoir/app/cmcis/mat.c ****       temp = 1.0 / *_MAT(*a, i, i);
 4431              		.loc 1 540 34 is_stmt 0 discriminator 1 view .LVU1398
 4432 01ee 6368     		ldr	r3, [r4, #4]
 540:/home/takumi/takumique/main/reservoir/app/cmcis/mat.c ****       temp = 1.0 / *_MAT(*a, i, i);
 4433              		.loc 1 540 5 discriminator 1 view .LVU1399
 4434 01f0 4B45     		cmp	r3, r9
 4435 01f2 33D9     		bls	.L385
 541:/home/takumi/takumique/main/reservoir/app/cmcis/mat.c ****       for(unsigned j = 0; j < inv_a->n; j++) {
 4436              		.loc 1 541 7 is_stmt 1 view .LVU1400
 541:/home/takumi/takumique/main/reservoir/app/cmcis/mat.c ****       for(unsigned j = 0; j < inv_a->n; j++) {
 4437              		.loc 1 541 21 is_stmt 0 view .LVU1401
 4438 01f4 D8F80030 		ldr	r3, [r8]
 4439 01f8 D8F80820 		ldr	r2, [r8, #8]
 4440 01fc 02FB0992 		mla	r2, r2, r9, r9
 4441 0200 03EBC203 		add	r3, r3, r2, lsl #3
 541:/home/takumi/takumique/main/reservoir/app/cmcis/mat.c ****       for(unsigned j = 0; j < inv_a->n; j++) {
 4442              		.loc 1 541 12 view .LVU1402
 4443 0204 D3E90023 		ldrd	r2, [r3]
 4444 0208 0020     		movs	r0, #0
 4445 020a 1D49     		ldr	r1, .L387+8
 4446 020c FFF7FEFF 		bl	__aeabi_ddiv
 4447              	.LVL365:
 4448 0210 0646     		mov	r6, r0
 4449 0212 0F46     		mov	r7, r1
 4450              	.LVL366:
 542:/home/takumi/takumique/main/reservoir/app/cmcis/mat.c ****         *_MAT(*a, i, j) *= temp;
 4451              		.loc 1 542 7 is_stmt 1 view .LVU1403
 4452              	.LBB101:
 542:/home/takumi/takumique/main/reservoir/app/cmcis/mat.c ****         *_MAT(*a, i, j) *= temp;
 4453              		.loc 1 542 11 view .LVU1404
ARM GAS  /tmp/ccgNCQ0i.s 			page 104


 542:/home/takumi/takumique/main/reservoir/app/cmcis/mat.c ****         *_MAT(*a, i, j) *= temp;
 4454              		.loc 1 542 20 is_stmt 0 view .LVU1405
 4455 0214 019D     		ldr	r5, [sp, #4]
 4456              	.LVL367:
 4457              	.L365:
 542:/home/takumi/takumique/main/reservoir/app/cmcis/mat.c ****         *_MAT(*a, i, j) *= temp;
 4458              		.loc 1 542 27 is_stmt 1 discriminator 1 view .LVU1406
 542:/home/takumi/takumique/main/reservoir/app/cmcis/mat.c ****         *_MAT(*a, i, j) *= temp;
 4459              		.loc 1 542 36 is_stmt 0 discriminator 1 view .LVU1407
 4460 0216 6368     		ldr	r3, [r4, #4]
 542:/home/takumi/takumique/main/reservoir/app/cmcis/mat.c ****         *_MAT(*a, i, j) *= temp;
 4461              		.loc 1 542 7 discriminator 1 view .LVU1408
 4462 0218 AB42     		cmp	r3, r5
 4463 021a 9AD9     		bls	.L386
 543:/home/takumi/takumique/main/reservoir/app/cmcis/mat.c ****         *_MAT(*inv_a, i, j) *= temp;
 4464              		.loc 1 543 9 is_stmt 1 discriminator 3 view .LVU1409
 543:/home/takumi/takumique/main/reservoir/app/cmcis/mat.c ****         *_MAT(*inv_a, i, j) *= temp;
 4465              		.loc 1 543 10 is_stmt 0 discriminator 3 view .LVU1410
 4466 021c D8F80030 		ldr	r3, [r8]
 4467 0220 D8F80820 		ldr	r2, [r8, #8]
 543:/home/takumi/takumique/main/reservoir/app/cmcis/mat.c ****         *_MAT(*inv_a, i, j) *= temp;
 4468              		.loc 1 543 25 discriminator 3 view .LVU1411
 4469 0224 09FB0252 		mla	r2, r9, r2, r5
 4470 0228 03EBC20A 		add	r10, r3, r2, lsl #3
 4471 022c 3246     		mov	r2, r6
 4472 022e 3B46     		mov	r3, r7
 4473 0230 DAE90001 		ldrd	r0, [r10]
 4474 0234 FFF7FEFF 		bl	__aeabi_dmul
 4475              	.LVL368:
 4476 0238 CAE90001 		strd	r0, [r10]
 544:/home/takumi/takumique/main/reservoir/app/cmcis/mat.c ****       }
 4477              		.loc 1 544 9 is_stmt 1 discriminator 3 view .LVU1412
 544:/home/takumi/takumique/main/reservoir/app/cmcis/mat.c ****       }
 4478              		.loc 1 544 10 is_stmt 0 discriminator 3 view .LVU1413
 4479 023c 2368     		ldr	r3, [r4]
 4480 023e A268     		ldr	r2, [r4, #8]
 544:/home/takumi/takumique/main/reservoir/app/cmcis/mat.c ****       }
 4481              		.loc 1 544 29 discriminator 3 view .LVU1414
 4482 0240 09FB0252 		mla	r2, r9, r2, r5
 4483 0244 03EBC20A 		add	r10, r3, r2, lsl #3
 4484 0248 3246     		mov	r2, r6
 4485 024a 3B46     		mov	r3, r7
 4486 024c DAE90001 		ldrd	r0, [r10]
 4487 0250 FFF7FEFF 		bl	__aeabi_dmul
 4488              	.LVL369:
 4489 0254 CAE90001 		strd	r0, [r10]
 542:/home/takumi/takumique/main/reservoir/app/cmcis/mat.c ****         *_MAT(*a, i, j) *= temp;
 4490              		.loc 1 542 41 is_stmt 1 discriminator 3 view .LVU1415
 542:/home/takumi/takumique/main/reservoir/app/cmcis/mat.c ****         *_MAT(*a, i, j) *= temp;
 4491              		.loc 1 542 42 is_stmt 0 discriminator 3 view .LVU1416
 4492 0258 0135     		adds	r5, r5, #1
 4493              	.LVL370:
 542:/home/takumi/takumique/main/reservoir/app/cmcis/mat.c ****         *_MAT(*a, i, j) *= temp;
 4494              		.loc 1 542 42 discriminator 3 view .LVU1417
 4495 025a DCE7     		b	.L365
 4496              	.LVL371:
 4497              	.L385:
ARM GAS  /tmp/ccgNCQ0i.s 			page 105


 542:/home/takumi/takumique/main/reservoir/app/cmcis/mat.c ****         *_MAT(*a, i, j) *= temp;
 4498              		.loc 1 542 42 discriminator 3 view .LVU1418
 4499              	.LBE101:
 4500              	.LBE107:
 557:/home/takumi/takumique/main/reservoir/app/cmcis/mat.c **** }
 4501              		.loc 1 557 10 view .LVU1419
 4502 025c 0020     		movs	r0, #0
 4503              	.LBB108:
 4504 025e 75E7     		b	.L353
 4505              	.LVL372:
 4506              	.L373:
 4507              	.LCFI37:
 4508              		.cfi_def_cfa_offset 0
 4509              		.cfi_restore 4
 4510              		.cfi_restore 5
 4511              		.cfi_restore 6
 4512              		.cfi_restore 7
 4513              		.cfi_restore 8
 4514              		.cfi_restore 9
 4515              		.cfi_restore 10
 4516              		.cfi_restore 11
 4517              		.cfi_restore 14
 557:/home/takumi/takumique/main/reservoir/app/cmcis/mat.c **** }
 4518              		.loc 1 557 10 view .LVU1420
 4519              	.LBE108:
 511:/home/takumi/takumique/main/reservoir/app/cmcis/mat.c ****   }
 4520              		.loc 1 511 12 view .LVU1421
 4521 0260 4FF0FF30 		mov	r0, #-1
 4522              	.LVL373:
 4523              		.loc 1 558 1 view .LVU1422
 4524 0264 7047     		bx	lr
 4525              	.LVL374:
 4526              	.L374:
 4527              	.LCFI38:
 4528              		.cfi_def_cfa_offset 48
 4529              		.cfi_offset 4, -36
 4530              		.cfi_offset 5, -32
 4531              		.cfi_offset 6, -28
 4532              		.cfi_offset 7, -24
 4533              		.cfi_offset 8, -20
 4534              		.cfi_offset 9, -16
 4535              		.cfi_offset 10, -12
 4536              		.cfi_offset 11, -8
 4537              		.cfi_offset 14, -4
 514:/home/takumi/takumique/main/reservoir/app/cmcis/mat.c ****   }
 4538              		.loc 1 514 12 view .LVU1423
 4539 0266 4FF0FF30 		mov	r0, #-1
 4540              	.LVL375:
 514:/home/takumi/takumique/main/reservoir/app/cmcis/mat.c ****   }
 4541              		.loc 1 514 12 view .LVU1424
 4542 026a 6FE7     		b	.L353
 4543              	.LVL376:
 4544              	.L375:
 517:/home/takumi/takumique/main/reservoir/app/cmcis/mat.c ****   }
 4545              		.loc 1 517 12 view .LVU1425
 4546 026c 4FF0FF30 		mov	r0, #-1
 4547              	.LVL377:
ARM GAS  /tmp/ccgNCQ0i.s 			page 106


 517:/home/takumi/takumique/main/reservoir/app/cmcis/mat.c ****   }
 4548              		.loc 1 517 12 view .LVU1426
 4549 0270 6CE7     		b	.L353
 4550              	.L388:
 4551 0272 00BFAFF3 		.align	3
 4551      0080
 4552              	.L387:
 4553 0278 00000000 		.word	0
 4554 027c 0000F03F 		.word	1072693248
 4555 0280 0000F03F 		.word	1072693248
 4556              		.cfi_endproc
 4557              	.LFE167:
 4559              		.global	__aeabi_i2d
 4560              		.section	.text.f64_random_normal,"ax",%progbits
 4561              		.align	1
 4562              		.global	f64_random_normal
 4563              		.syntax unified
 4564              		.thumb
 4565              		.thumb_func
 4566              		.fpu fpv4-sp-d16
 4568              	f64_random_normal:
 4569              	.LVL378:
 4570              	.LFB168:
 559:/home/takumi/takumique/main/reservoir/app/cmcis/mat.c **** 
 560:/home/takumi/takumique/main/reservoir/app/cmcis/mat.c **** f64_t f64_random_normal(double mu, double sigma) {
 4571              		.loc 1 560 50 is_stmt 1 view -0
 4572              		.cfi_startproc
 4573              		@ args = 0, pretend = 0, frame = 0
 4574              		@ frame_needed = 0, uses_anonymous_args = 0
 4575              		.loc 1 560 50 is_stmt 0 view .LVU1428
 4576 0000 2DE9F843 		push	{r3, r4, r5, r6, r7, r8, r9, lr}
 4577              	.LCFI39:
 4578              		.cfi_def_cfa_offset 32
 4579              		.cfi_offset 3, -32
 4580              		.cfi_offset 4, -28
 4581              		.cfi_offset 5, -24
 4582              		.cfi_offset 6, -20
 4583              		.cfi_offset 7, -16
 4584              		.cfi_offset 8, -12
 4585              		.cfi_offset 9, -8
 4586              		.cfi_offset 14, -4
 4587 0004 55EC104B 		vmov	r4, r5, d0
 4588 0008 57EC116B 		vmov	r6, r7, d1
 561:/home/takumi/takumique/main/reservoir/app/cmcis/mat.c ****   double z = sqrt(-2.0f * log((double) random() / RAND_MAX)) * cos(2.0f * M_PI * ((double) random()
 4589              		.loc 1 561 3 is_stmt 1 view .LVU1429
 4590              		.loc 1 561 40 is_stmt 0 view .LVU1430
 4591 000c FFF7FEFF 		bl	random
 4592              	.LVL379:
 4593              		.loc 1 561 31 view .LVU1431
 4594 0010 FFF7FEFF 		bl	__aeabi_i2d
 4595              	.LVL380:
 4596              		.loc 1 561 27 view .LVU1432
 4597 0014 1CA3     		adr	r3, .L391
 4598 0016 D3E90023 		ldrd	r2, [r3]
 4599 001a FFF7FEFF 		bl	__aeabi_ddiv
 4600              	.LVL381:
 4601 001e 41EC100B 		vmov	d0, r0, r1
ARM GAS  /tmp/ccgNCQ0i.s 			page 107


 4602 0022 FFF7FEFF 		bl	log
 4603              	.LVL382:
 4604 0026 51EC100B 		vmov	r0, r1, d0
 4605              		.loc 1 561 14 view .LVU1433
 4606 002a 0022     		movs	r2, #0
 4607 002c 4FF04043 		mov	r3, #-1073741824
 4608 0030 FFF7FEFF 		bl	__aeabi_dmul
 4609              	.LVL383:
 4610 0034 41EC100B 		vmov	d0, r0, r1
 4611 0038 FFF7FEFF 		bl	sqrt
 4612              	.LVL384:
 4613 003c 59EC108B 		vmov	r8, r9, d0
 4614              		.loc 1 561 92 view .LVU1434
 4615 0040 FFF7FEFF 		bl	random
 4616              	.LVL385:
 4617              		.loc 1 561 83 view .LVU1435
 4618 0044 FFF7FEFF 		bl	__aeabi_i2d
 4619              	.LVL386:
 4620              		.loc 1 561 101 view .LVU1436
 4621 0048 0FA3     		adr	r3, .L391
 4622 004a D3E90023 		ldrd	r2, [r3]
 4623 004e FFF7FEFF 		bl	__aeabi_ddiv
 4624              	.LVL387:
 4625              		.loc 1 561 64 view .LVU1437
 4626 0052 0FA3     		adr	r3, .L391+8
 4627 0054 D3E90023 		ldrd	r2, [r3]
 4628 0058 FFF7FEFF 		bl	__aeabi_dmul
 4629              	.LVL388:
 4630 005c 41EC100B 		vmov	d0, r0, r1
 4631 0060 FFF7FEFF 		bl	cos
 4632              	.LVL389:
 4633 0064 53EC102B 		vmov	r2, r3, d0
 4634              		.loc 1 561 10 view .LVU1438
 4635 0068 4046     		mov	r0, r8
 4636 006a 4946     		mov	r1, r9
 4637 006c FFF7FEFF 		bl	__aeabi_dmul
 4638              	.LVL390:
 562:/home/takumi/takumique/main/reservoir/app/cmcis/mat.c ****   return mu + sigma * z;
 4639              		.loc 1 562 3 is_stmt 1 view .LVU1439
 4640              		.loc 1 562 21 is_stmt 0 view .LVU1440
 4641 0070 3246     		mov	r2, r6
 4642 0072 3B46     		mov	r3, r7
 4643 0074 FFF7FEFF 		bl	__aeabi_dmul
 4644              	.LVL391:
 4645              		.loc 1 562 13 view .LVU1441
 4646 0078 2246     		mov	r2, r4
 4647 007a 2B46     		mov	r3, r5
 4648 007c FFF7FEFF 		bl	__aeabi_dadd
 4649              	.LVL392:
 563:/home/takumi/takumique/main/reservoir/app/cmcis/mat.c **** }
 4650              		.loc 1 563 1 view .LVU1442
 4651 0080 41EC100B 		vmov	d0, r0, r1
 4652 0084 BDE8F883 		pop	{r3, r4, r5, r6, r7, r8, r9, pc}
 4653              	.LVL393:
 4654              	.L392:
 4655              		.loc 1 563 1 view .LVU1443
 4656              		.align	3
ARM GAS  /tmp/ccgNCQ0i.s 			page 108


 4657              	.L391:
 4658 0088 0000C0FF 		.word	4290772992
 4659 008c FFFFDF41 		.word	1105199103
 4660 0090 182D4454 		.word	1413754136
 4661 0094 FB211940 		.word	1075388923
 4662              		.cfi_endproc
 4663              	.LFE168:
 4665              		.section	.text.mat_f64_random_normal,"ax",%progbits
 4666              		.align	1
 4667              		.global	mat_f64_random_normal
 4668              		.syntax unified
 4669              		.thumb
 4670              		.thumb_func
 4671              		.fpu fpv4-sp-d16
 4673              	mat_f64_random_normal:
 4674              	.LVL394:
 4675              	.LFB169:
 564:/home/takumi/takumique/main/reservoir/app/cmcis/mat.c **** 
 565:/home/takumi/takumique/main/reservoir/app/cmcis/mat.c **** void mat_f64_random_normal(mat_f64_t *c, double mu, double sigma) {
 4676              		.loc 1 565 67 is_stmt 1 view -0
 4677              		.cfi_startproc
 4678              		@ args = 0, pretend = 0, frame = 0
 4679              		@ frame_needed = 0, uses_anonymous_args = 0
 4680              		.loc 1 565 67 is_stmt 0 view .LVU1445
 4681 0000 F8B5     		push	{r3, r4, r5, r6, r7, lr}
 4682              	.LCFI40:
 4683              		.cfi_def_cfa_offset 24
 4684              		.cfi_offset 3, -24
 4685              		.cfi_offset 4, -20
 4686              		.cfi_offset 5, -16
 4687              		.cfi_offset 6, -12
 4688              		.cfi_offset 7, -8
 4689              		.cfi_offset 14, -4
 4690 0002 2DED048B 		vpush.64	{d8, d9}
 4691              	.LCFI41:
 4692              		.cfi_def_cfa_offset 40
 4693              		.cfi_offset 80, -40
 4694              		.cfi_offset 81, -36
 4695              		.cfi_offset 82, -32
 4696              		.cfi_offset 83, -28
 4697 0006 0646     		mov	r6, r0
 4698 0008 B0EE409A 		vmov.f32	s18, s0
 4699 000c F0EE609A 		vmov.f32	s19, s1
 4700 0010 B0EE418A 		vmov.f32	s16, s2
 4701 0014 F0EE618A 		vmov.f32	s17, s3
 566:/home/takumi/takumique/main/reservoir/app/cmcis/mat.c ****   c->t = 0;
 4702              		.loc 1 566 3 is_stmt 1 view .LVU1446
 4703              		.loc 1 566 8 is_stmt 0 view .LVU1447
 4704 0018 0027     		movs	r7, #0
 4705 001a C760     		str	r7, [r0, #12]
 567:/home/takumi/takumique/main/reservoir/app/cmcis/mat.c ****   for(unsigned n = 0; n < c->n; n++) {
 4706              		.loc 1 567 3 is_stmt 1 view .LVU1448
 4707              	.LBB109:
 4708              		.loc 1 567 7 view .LVU1449
 4709              	.LVL395:
 4710              		.loc 1 567 3 is_stmt 0 view .LVU1450
 4711 001c 15E0     		b	.L394
ARM GAS  /tmp/ccgNCQ0i.s 			page 109


 4712              	.LVL396:
 4713              	.L395:
 4714              	.LBB110:
 568:/home/takumi/takumique/main/reservoir/app/cmcis/mat.c ****     for(unsigned m = 0; m < c->m; m++) {
 569:/home/takumi/takumique/main/reservoir/app/cmcis/mat.c ****       *_MAT(*c, n, m) = f64_random_normal(mu, sigma);
 4715              		.loc 1 569 7 is_stmt 1 discriminator 3 view .LVU1451
 4716              		.loc 1 569 8 is_stmt 0 discriminator 3 view .LVU1452
 4717 001e 3568     		ldr	r5, [r6]
 4718 0020 07FB0343 		mla	r3, r7, r3, r4
 4719 0024 05EBC305 		add	r5, r5, r3, lsl #3
 4720              		.loc 1 569 25 discriminator 3 view .LVU1453
 4721 0028 B0EE481A 		vmov.f32	s2, s16
 4722 002c F0EE681A 		vmov.f32	s3, s17
 4723 0030 B0EE490A 		vmov.f32	s0, s18
 4724 0034 F0EE690A 		vmov.f32	s1, s19
 4725 0038 FFF7FEFF 		bl	f64_random_normal
 4726              	.LVL397:
 4727              		.loc 1 569 23 discriminator 3 view .LVU1454
 4728 003c 85ED000B 		vstr.64	d0, [r5]
 568:/home/takumi/takumique/main/reservoir/app/cmcis/mat.c ****     for(unsigned m = 0; m < c->m; m++) {
 4729              		.loc 1 568 35 is_stmt 1 discriminator 3 view .LVU1455
 568:/home/takumi/takumique/main/reservoir/app/cmcis/mat.c ****     for(unsigned m = 0; m < c->m; m++) {
 4730              		.loc 1 568 36 is_stmt 0 discriminator 3 view .LVU1456
 4731 0040 0134     		adds	r4, r4, #1
 4732              	.LVL398:
 4733              	.L396:
 568:/home/takumi/takumique/main/reservoir/app/cmcis/mat.c ****     for(unsigned m = 0; m < c->m; m++) {
 4734              		.loc 1 568 25 is_stmt 1 discriminator 1 view .LVU1457
 568:/home/takumi/takumique/main/reservoir/app/cmcis/mat.c ****     for(unsigned m = 0; m < c->m; m++) {
 4735              		.loc 1 568 30 is_stmt 0 discriminator 1 view .LVU1458
 4736 0042 B368     		ldr	r3, [r6, #8]
 568:/home/takumi/takumique/main/reservoir/app/cmcis/mat.c ****     for(unsigned m = 0; m < c->m; m++) {
 4737              		.loc 1 568 5 discriminator 1 view .LVU1459
 4738 0044 A342     		cmp	r3, r4
 4739 0046 EAD8     		bhi	.L395
 4740              	.LBE110:
 567:/home/takumi/takumique/main/reservoir/app/cmcis/mat.c ****   for(unsigned n = 0; n < c->n; n++) {
 4741              		.loc 1 567 33 is_stmt 1 discriminator 2 view .LVU1460
 567:/home/takumi/takumique/main/reservoir/app/cmcis/mat.c ****   for(unsigned n = 0; n < c->n; n++) {
 4742              		.loc 1 567 34 is_stmt 0 discriminator 2 view .LVU1461
 4743 0048 0137     		adds	r7, r7, #1
 4744              	.LVL399:
 4745              	.L394:
 567:/home/takumi/takumique/main/reservoir/app/cmcis/mat.c ****   for(unsigned n = 0; n < c->n; n++) {
 4746              		.loc 1 567 23 is_stmt 1 discriminator 1 view .LVU1462
 567:/home/takumi/takumique/main/reservoir/app/cmcis/mat.c ****   for(unsigned n = 0; n < c->n; n++) {
 4747              		.loc 1 567 28 is_stmt 0 discriminator 1 view .LVU1463
 4748 004a 7368     		ldr	r3, [r6, #4]
 567:/home/takumi/takumique/main/reservoir/app/cmcis/mat.c ****   for(unsigned n = 0; n < c->n; n++) {
 4749              		.loc 1 567 3 discriminator 1 view .LVU1464
 4750 004c BB42     		cmp	r3, r7
 4751 004e 01D9     		bls	.L399
 4752              	.LBB111:
 568:/home/takumi/takumique/main/reservoir/app/cmcis/mat.c ****     for(unsigned m = 0; m < c->m; m++) {
 4753              		.loc 1 568 18 view .LVU1465
 4754 0050 0024     		movs	r4, #0
 4755 0052 F6E7     		b	.L396
ARM GAS  /tmp/ccgNCQ0i.s 			page 110


 4756              	.L399:
 4757              	.LBE111:
 4758              	.LBE109:
 570:/home/takumi/takumique/main/reservoir/app/cmcis/mat.c ****     }
 571:/home/takumi/takumique/main/reservoir/app/cmcis/mat.c ****   }
 572:/home/takumi/takumique/main/reservoir/app/cmcis/mat.c **** }
 4759              		.loc 1 572 1 view .LVU1466
 4760 0054 BDEC048B 		vldm	sp!, {d8-d9}
 4761              	.LCFI42:
 4762              		.cfi_restore 82
 4763              		.cfi_restore 83
 4764              		.cfi_restore 80
 4765              		.cfi_restore 81
 4766              		.cfi_def_cfa_offset 24
 4767              	.LVL400:
 4768              		.loc 1 572 1 view .LVU1467
 4769 0058 F8BD     		pop	{r3, r4, r5, r6, r7, pc}
 4770              		.loc 1 572 1 view .LVU1468
 4771              		.cfi_endproc
 4772              	.LFE169:
 4774              		.global	__aeabi_dcmpgt
 4775              		.global	__aeabi_dcmplt
 4776              		.section	.text.mat_f64_max_abs_eigenval,"ax",%progbits
 4777              		.align	1
 4778              		.global	mat_f64_max_abs_eigenval
 4779              		.syntax unified
 4780              		.thumb
 4781              		.thumb_func
 4782              		.fpu fpv4-sp-d16
 4784              	mat_f64_max_abs_eigenval:
 4785              	.LVL401:
 4786              	.LFB170:
 573:/home/takumi/takumique/main/reservoir/app/cmcis/mat.c **** 
 574:/home/takumi/takumique/main/reservoir/app/cmcis/mat.c **** double mat_f64_max_abs_eigenval(mat_f64_t *a, mat_f64_t *x, mat_f64_t *y, unsigned lim) {
 4787              		.loc 1 574 89 is_stmt 1 view -0
 4788              		.cfi_startproc
 4789              		@ args = 0, pretend = 0, frame = 56
 4790              		@ frame_needed = 0, uses_anonymous_args = 0
 4791              		.loc 1 574 89 is_stmt 0 view .LVU1470
 4792 0000 2DE9F04F 		push	{r4, r5, r6, r7, r8, r9, r10, fp, lr}
 4793              	.LCFI43:
 4794              		.cfi_def_cfa_offset 36
 4795              		.cfi_offset 4, -36
 4796              		.cfi_offset 5, -32
 4797              		.cfi_offset 6, -28
 4798              		.cfi_offset 7, -24
 4799              		.cfi_offset 8, -20
 4800              		.cfi_offset 9, -16
 4801              		.cfi_offset 10, -12
 4802              		.cfi_offset 11, -8
 4803              		.cfi_offset 14, -4
 4804 0004 8FB0     		sub	sp, sp, #60
 4805              	.LCFI44:
 4806              		.cfi_def_cfa_offset 96
 4807 0006 9046     		mov	r8, r2
 4808 0008 0C93     		str	r3, [sp, #48]
 575:/home/takumi/takumique/main/reservoir/app/cmcis/mat.c **** #ifdef CHECK_ARGS
ARM GAS  /tmp/ccgNCQ0i.s 			page 111


 576:/home/takumi/takumique/main/reservoir/app/cmcis/mat.c ****   if(a->n != a->m) {
 4809              		.loc 1 576 3 is_stmt 1 view .LVU1471
 4810              		.loc 1 576 7 is_stmt 0 view .LVU1472
 4811 000a 4268     		ldr	r2, [r0, #4]
 4812              	.LVL402:
 4813              		.loc 1 576 15 view .LVU1473
 4814 000c 8368     		ldr	r3, [r0, #8]
 4815              	.LVL403:
 4816              		.loc 1 576 5 view .LVU1474
 4817 000e 9A42     		cmp	r2, r3
 4818 0010 40F0B780 		bne	.L414
 4819 0014 0646     		mov	r6, r0
 4820 0016 8946     		mov	r9, r1
 577:/home/takumi/takumique/main/reservoir/app/cmcis/mat.c ****     return -1;
 578:/home/takumi/takumique/main/reservoir/app/cmcis/mat.c ****   }
 579:/home/takumi/takumique/main/reservoir/app/cmcis/mat.c ****   if(x->n == 0 || a->m != x->m) {
 4821              		.loc 1 579 3 is_stmt 1 view .LVU1475
 4822              		.loc 1 579 7 is_stmt 0 view .LVU1476
 4823 0018 4A68     		ldr	r2, [r1, #4]
 4824              		.loc 1 579 5 view .LVU1477
 4825 001a 002A     		cmp	r2, #0
 4826 001c 00F0BA80 		beq	.L415
 4827              		.loc 1 579 28 discriminator 1 view .LVU1478
 4828 0020 8A68     		ldr	r2, [r1, #8]
 4829              		.loc 1 579 16 discriminator 1 view .LVU1479
 4830 0022 9342     		cmp	r3, r2
 4831 0024 40F0BB80 		bne	.L416
 580:/home/takumi/takumique/main/reservoir/app/cmcis/mat.c ****     return -1;
 581:/home/takumi/takumique/main/reservoir/app/cmcis/mat.c ****   }
 582:/home/takumi/takumique/main/reservoir/app/cmcis/mat.c ****   if(y->n == 0 || a->m != y->m) {
 4832              		.loc 1 582 3 is_stmt 1 view .LVU1480
 4833              		.loc 1 582 7 is_stmt 0 view .LVU1481
 4834 0028 D8F80420 		ldr	r2, [r8, #4]
 4835              		.loc 1 582 5 view .LVU1482
 4836 002c 002A     		cmp	r2, #0
 4837 002e 00F0BB80 		beq	.L417
 4838              		.loc 1 582 28 discriminator 1 view .LVU1483
 4839 0032 D8F80820 		ldr	r2, [r8, #8]
 4840              		.loc 1 582 16 discriminator 1 view .LVU1484
 4841 0036 9342     		cmp	r3, r2
 4842 0038 40F0BB80 		bne	.L418
 4843              	.LBB112:
 583:/home/takumi/takumique/main/reservoir/app/cmcis/mat.c ****     return -1;
 584:/home/takumi/takumique/main/reservoir/app/cmcis/mat.c ****   }
 585:/home/takumi/takumique/main/reservoir/app/cmcis/mat.c **** #endif
 586:/home/takumi/takumique/main/reservoir/app/cmcis/mat.c ****   double lambda, prev_lambda = 0.0;
 587:/home/takumi/takumique/main/reservoir/app/cmcis/mat.c ****   for(unsigned i = 0; i < a->n; i++) {
 4844              		.loc 1 587 16 view .LVU1485
 4845 003c 0023     		movs	r3, #0
 4846              	.LVL404:
 4847              	.L402:
 4848              		.loc 1 587 23 is_stmt 1 discriminator 1 view .LVU1486
 4849              		.loc 1 587 28 is_stmt 0 discriminator 1 view .LVU1487
 4850 003e 7268     		ldr	r2, [r6, #4]
 4851              		.loc 1 587 3 discriminator 1 view .LVU1488
 4852 0040 9A42     		cmp	r2, r3
 4853 0042 09D9     		bls	.L422
ARM GAS  /tmp/ccgNCQ0i.s 			page 112


 588:/home/takumi/takumique/main/reservoir/app/cmcis/mat.c ****     *_MAT(*x, 0, i) = 1.0;
 4854              		.loc 1 588 5 is_stmt 1 discriminator 3 view .LVU1489
 4855              		.loc 1 588 6 is_stmt 0 discriminator 3 view .LVU1490
 4856 0044 D9F80020 		ldr	r2, [r9]
 4857 0048 02EBC302 		add	r2, r2, r3, lsl #3
 4858              		.loc 1 588 21 discriminator 3 view .LVU1491
 4859 004c 0020     		movs	r0, #0
 4860 004e 6249     		ldr	r1, .L427+24
 4861 0050 C2E90001 		strd	r0, [r2]
 587:/home/takumi/takumique/main/reservoir/app/cmcis/mat.c ****     *_MAT(*x, 0, i) = 1.0;
 4862              		.loc 1 587 33 is_stmt 1 discriminator 3 view .LVU1492
 587:/home/takumi/takumique/main/reservoir/app/cmcis/mat.c ****     *_MAT(*x, 0, i) = 1.0;
 4863              		.loc 1 587 34 is_stmt 0 discriminator 3 view .LVU1493
 4864 0054 0133     		adds	r3, r3, #1
 4865              	.LVL405:
 587:/home/takumi/takumique/main/reservoir/app/cmcis/mat.c ****     *_MAT(*x, 0, i) = 1.0;
 4866              		.loc 1 587 34 discriminator 3 view .LVU1494
 4867 0056 F2E7     		b	.L402
 4868              	.L422:
 587:/home/takumi/takumique/main/reservoir/app/cmcis/mat.c ****     *_MAT(*x, 0, i) = 1.0;
 4869              		.loc 1 587 34 discriminator 3 view .LVU1495
 4870              	.LBE112:
 4871              	.LBB113:
 589:/home/takumi/takumique/main/reservoir/app/cmcis/mat.c ****   }
 590:/home/takumi/takumique/main/reservoir/app/cmcis/mat.c ****   for(unsigned iteration = 0; iteration < lim; iteration++) {
 4872              		.loc 1 590 16 view .LVU1496
 4873 0058 4FF0000B 		mov	fp, #0
 4874              	.LBE113:
 586:/home/takumi/takumique/main/reservoir/app/cmcis/mat.c ****   for(unsigned i = 0; i < a->n; i++) {
 4875              		.loc 1 586 18 view .LVU1497
 4876 005c 9FED587B 		vldr.64	d7, .L427
 4877 0060 8DED027B 		vstr.64	d7, [sp, #8]
 4878 0064 88E0     		b	.L404
 4879              	.LVL406:
 4880              	.L424:
 4881              	.LBB119:
 4882              	.LBB114:
 591:/home/takumi/takumique/main/reservoir/app/cmcis/mat.c ****     for(unsigned i = 0; i < a->n; i++) {
 4883              		.loc 1 591 35 is_stmt 1 discriminator 2 view .LVU1498
 4884              		.loc 1 591 36 is_stmt 0 discriminator 2 view .LVU1499
 4885 0066 0137     		adds	r7, r7, #1
 4886              	.LVL407:
 4887              	.L413:
 4888              		.loc 1 591 25 is_stmt 1 discriminator 1 view .LVU1500
 4889              		.loc 1 591 30 is_stmt 0 discriminator 1 view .LVU1501
 4890 0068 7368     		ldr	r3, [r6, #4]
 4891              		.loc 1 591 5 discriminator 1 view .LVU1502
 4892 006a BB42     		cmp	r3, r7
 4893 006c 2AD9     		bls	.L423
 592:/home/takumi/takumique/main/reservoir/app/cmcis/mat.c ****       *_MAT(*y, 0, i) = 0.0f;
 4894              		.loc 1 592 7 is_stmt 1 view .LVU1503
 4895              		.loc 1 592 8 is_stmt 0 view .LVU1504
 4896 006e D8F80030 		ldr	r3, [r8]
 4897 0072 4FEAC70A 		lsl	r10, r7, #3
 4898 0076 03EBC703 		add	r3, r3, r7, lsl #3
 4899              		.loc 1 592 23 view .LVU1505
 4900 007a 0020     		movs	r0, #0
ARM GAS  /tmp/ccgNCQ0i.s 			page 113


 4901 007c 0021     		movs	r1, #0
 4902 007e C3E90001 		strd	r0, [r3]
 593:/home/takumi/takumique/main/reservoir/app/cmcis/mat.c ****       for(unsigned j = 0; j < a->n; j++) {
 4903              		.loc 1 593 7 is_stmt 1 view .LVU1506
 4904              	.LBB115:
 4905              		.loc 1 593 11 view .LVU1507
 4906              	.LVL408:
 4907              		.loc 1 593 20 is_stmt 0 view .LVU1508
 4908 0082 0024     		movs	r4, #0
 4909              	.LVL409:
 4910              	.L405:
 4911              		.loc 1 593 27 is_stmt 1 discriminator 1 view .LVU1509
 4912              		.loc 1 593 32 is_stmt 0 discriminator 1 view .LVU1510
 4913 0084 7368     		ldr	r3, [r6, #4]
 4914              		.loc 1 593 7 discriminator 1 view .LVU1511
 4915 0086 A342     		cmp	r3, r4
 4916 0088 EDD9     		bls	.L424
 594:/home/takumi/takumique/main/reservoir/app/cmcis/mat.c ****         *_MAT(*y, 0, i) += *_MAT(*a, i, j) * *_MAT(*x, 0, j);
 4917              		.loc 1 594 9 is_stmt 1 discriminator 3 view .LVU1512
 4918              		.loc 1 594 10 is_stmt 0 discriminator 3 view .LVU1513
 4919 008a D8F80050 		ldr	r5, [r8]
 4920              		.loc 1 594 25 discriminator 3 view .LVU1514
 4921 008e 5544     		add	r5, r5, r10
 4922              		.loc 1 594 29 discriminator 3 view .LVU1515
 4923 0090 3368     		ldr	r3, [r6]
 4924 0092 B168     		ldr	r1, [r6, #8]
 4925 0094 07FB0141 		mla	r1, r7, r1, r4
 4926 0098 03EBC101 		add	r1, r3, r1, lsl #3
 4927              		.loc 1 594 47 discriminator 3 view .LVU1516
 4928 009c D9F80030 		ldr	r3, [r9]
 4929 00a0 03EBC403 		add	r3, r3, r4, lsl #3
 4930              		.loc 1 594 44 discriminator 3 view .LVU1517
 4931 00a4 D3E90023 		ldrd	r2, [r3]
 4932 00a8 D1E90001 		ldrd	r0, [r1]
 4933 00ac FFF7FEFF 		bl	__aeabi_dmul
 4934              	.LVL410:
 4935 00b0 0246     		mov	r2, r0
 4936 00b2 0B46     		mov	r3, r1
 4937              		.loc 1 594 25 discriminator 3 view .LVU1518
 4938 00b4 D5E90001 		ldrd	r0, [r5]
 4939 00b8 FFF7FEFF 		bl	__aeabi_dadd
 4940              	.LVL411:
 4941 00bc C5E90001 		strd	r0, [r5]
 593:/home/takumi/takumique/main/reservoir/app/cmcis/mat.c ****       for(unsigned j = 0; j < a->n; j++) {
 4942              		.loc 1 593 37 is_stmt 1 discriminator 3 view .LVU1519
 593:/home/takumi/takumique/main/reservoir/app/cmcis/mat.c ****       for(unsigned j = 0; j < a->n; j++) {
 4943              		.loc 1 593 38 is_stmt 0 discriminator 3 view .LVU1520
 4944 00c0 0134     		adds	r4, r4, #1
 4945              	.LVL412:
 593:/home/takumi/takumique/main/reservoir/app/cmcis/mat.c ****       for(unsigned j = 0; j < a->n; j++) {
 4946              		.loc 1 593 38 discriminator 3 view .LVU1521
 4947 00c2 DFE7     		b	.L405
 4948              	.LVL413:
 4949              	.L423:
 593:/home/takumi/takumique/main/reservoir/app/cmcis/mat.c ****       for(unsigned j = 0; j < a->n; j++) {
 4950              		.loc 1 593 38 discriminator 3 view .LVU1522
 4951              	.LBE115:
ARM GAS  /tmp/ccgNCQ0i.s 			page 114


 4952              	.LBE114:
 4953              	.LBB116:
 595:/home/takumi/takumique/main/reservoir/app/cmcis/mat.c ****       }
 596:/home/takumi/takumique/main/reservoir/app/cmcis/mat.c ****     }
 597:/home/takumi/takumique/main/reservoir/app/cmcis/mat.c ****     for(unsigned i = 0; i < a->n; i++){
 4954              		.loc 1 597 18 view .LVU1523
 4955 00c4 0027     		movs	r7, #0
 4956              	.LVL414:
 4957              		.loc 1 597 18 view .LVU1524
 4958 00c6 0593     		str	r3, [sp, #20]
 4959 00c8 CDF834B0 		str	fp, [sp, #52]
 4960 00cc DDE90AAB 		ldrd	r10, [sp, #40]
 4961 00d0 00E0     		b	.L408
 4962              	.LVL415:
 4963              	.L409:
 4964              		.loc 1 597 35 is_stmt 1 discriminator 2 view .LVU1525
 4965              		.loc 1 597 36 is_stmt 0 discriminator 2 view .LVU1526
 4966 00d2 0137     		adds	r7, r7, #1
 4967              	.LVL416:
 4968              	.L408:
 4969              		.loc 1 597 25 is_stmt 1 discriminator 1 view .LVU1527
 4970              		.loc 1 597 5 is_stmt 0 discriminator 1 view .LVU1528
 4971 00d4 059B     		ldr	r3, [sp, #20]
 4972 00d6 BB42     		cmp	r3, r7
 4973 00d8 19D9     		bls	.L425
 598:/home/takumi/takumique/main/reservoir/app/cmcis/mat.c ****       if(fabs(*_MAT(*y, 0, i)) > fabs(prev_lambda)) {
 4974              		.loc 1 598 7 is_stmt 1 view .LVU1529
 4975              		.loc 1 598 16 is_stmt 0 view .LVU1530
 4976 00da D8F80030 		ldr	r3, [r8]
 4977 00de 03EBC703 		add	r3, r3, r7, lsl #3
 4978              		.loc 1 598 10 view .LVU1531
 4979 00e2 D3E90045 		ldrd	r4, [r3]
 4980 00e6 A246     		mov	r10, r4
 4981 00e8 25F0004B 		bic	fp, r5, #-2147483648
 4982              		.loc 1 598 34 view .LVU1532
 4983 00ec DDE90212 		ldrd	r1, [sp, #8]
 4984 00f0 0091     		str	r1, [sp]
 4985 00f2 22F00043 		bic	r3, r2, #-2147483648
 4986 00f6 0193     		str	r3, [sp, #4]
 4987              		.loc 1 598 9 view .LVU1533
 4988 00f8 DDE90023 		ldrd	r2, [sp]
 4989 00fc 2046     		mov	r0, r4
 4990 00fe 5946     		mov	r1, fp
 4991 0100 FFF7FEFF 		bl	__aeabi_dcmpgt
 4992              	.LVL417:
 4993 0104 0028     		cmp	r0, #0
 4994 0106 E4D0     		beq	.L409
 599:/home/takumi/takumique/main/reservoir/app/cmcis/mat.c ****         lambda = *_MAT(*y, 0, i);
 4995              		.loc 1 599 16 view .LVU1534
 4996 0108 CDE90645 		strd	r4, [sp, #24]
 4997              	.LVL418:
 4998              		.loc 1 599 16 view .LVU1535
 4999 010c E1E7     		b	.L409
 5000              	.LVL419:
 5001              	.L425:
 5002              		.loc 1 599 16 view .LVU1536
 5003 010e CDE90AAB 		strd	r10, [sp, #40]
ARM GAS  /tmp/ccgNCQ0i.s 			page 115


 5004 0112 DDF834B0 		ldr	fp, [sp, #52]
 5005              	.LBE116:
 5006              	.LBB117:
 600:/home/takumi/takumique/main/reservoir/app/cmcis/mat.c ****       }
 601:/home/takumi/takumique/main/reservoir/app/cmcis/mat.c ****     }
 602:/home/takumi/takumique/main/reservoir/app/cmcis/mat.c ****     for(unsigned i = 0; i < a->n; i++){
 5007              		.loc 1 602 18 view .LVU1537
 5008 0116 0024     		movs	r4, #0
 5009 0118 5F46     		mov	r7, fp
 5010              	.LVL420:
 5011              		.loc 1 602 18 view .LVU1538
 5012 011a DDE906AB 		ldrd	r10, [sp, #24]
 5013              	.L411:
 5014              	.LVL421:
 5015              		.loc 1 602 25 is_stmt 1 discriminator 1 view .LVU1539
 5016              		.loc 1 602 30 is_stmt 0 discriminator 1 view .LVU1540
 5017 011e 7368     		ldr	r3, [r6, #4]
 5018              		.loc 1 602 5 discriminator 1 view .LVU1541
 5019 0120 A342     		cmp	r3, r4
 5020 0122 11D9     		bls	.L426
 603:/home/takumi/takumique/main/reservoir/app/cmcis/mat.c ****       *_MAT(*x, 0, i) = *_MAT(*y, 0, i) / lambda;
 5021              		.loc 1 603 7 is_stmt 1 discriminator 3 view .LVU1542
 5022              		.loc 1 603 26 is_stmt 0 discriminator 3 view .LVU1543
 5023 0124 D8F80030 		ldr	r3, [r8]
 5024 0128 03EBC401 		add	r1, r3, r4, lsl #3
 5025              		.loc 1 603 8 discriminator 3 view .LVU1544
 5026 012c D9F80050 		ldr	r5, [r9]
 5027 0130 05EBC405 		add	r5, r5, r4, lsl #3
 5028              		.loc 1 603 41 discriminator 3 view .LVU1545
 5029 0134 5246     		mov	r2, r10
 5030 0136 5B46     		mov	r3, fp
 5031 0138 D1E90001 		ldrd	r0, [r1]
 5032 013c FFF7FEFF 		bl	__aeabi_ddiv
 5033              	.LVL422:
 5034              		.loc 1 603 23 discriminator 3 view .LVU1546
 5035 0140 C5E90001 		strd	r0, [r5]
 602:/home/takumi/takumique/main/reservoir/app/cmcis/mat.c ****       *_MAT(*x, 0, i) = *_MAT(*y, 0, i) / lambda;
 5036              		.loc 1 602 35 is_stmt 1 discriminator 3 view .LVU1547
 602:/home/takumi/takumique/main/reservoir/app/cmcis/mat.c ****       *_MAT(*x, 0, i) = *_MAT(*y, 0, i) / lambda;
 5037              		.loc 1 602 36 is_stmt 0 discriminator 3 view .LVU1548
 5038 0144 0134     		adds	r4, r4, #1
 5039              	.LVL423:
 602:/home/takumi/takumique/main/reservoir/app/cmcis/mat.c ****       *_MAT(*x, 0, i) = *_MAT(*y, 0, i) / lambda;
 5040              		.loc 1 602 36 discriminator 3 view .LVU1549
 5041 0146 EAE7     		b	.L411
 5042              	.L426:
 602:/home/takumi/takumique/main/reservoir/app/cmcis/mat.c ****       *_MAT(*x, 0, i) = *_MAT(*y, 0, i) / lambda;
 5043              		.loc 1 602 36 discriminator 3 view .LVU1550
 5044              	.LBE117:
 604:/home/takumi/takumique/main/reservoir/app/cmcis/mat.c ****     }
 605:/home/takumi/takumique/main/reservoir/app/cmcis/mat.c ****     if(fabs(lambda - prev_lambda) < 10e-6) {
 5045              		.loc 1 605 5 is_stmt 1 view .LVU1551
 5046              		.loc 1 605 20 is_stmt 0 view .LVU1552
 5047 0148 DDE90223 		ldrd	r2, [sp, #8]
 5048 014c DDE90645 		ldrd	r4, [sp, #24]
 5049              	.LVL424:
 5050              		.loc 1 605 20 view .LVU1553
ARM GAS  /tmp/ccgNCQ0i.s 			page 116


 5051 0150 2046     		mov	r0, r4
 5052 0152 2946     		mov	r1, r5
 5053 0154 FFF7FEFF 		bl	__aeabi_dsub
 5054              	.LVL425:
 5055              		.loc 1 605 8 view .LVU1554
 5056 0158 0890     		str	r0, [sp, #32]
 5057 015a 21F00043 		bic	r3, r1, #-2147483648
 5058 015e 0993     		str	r3, [sp, #36]
 5059              		.loc 1 605 7 view .LVU1555
 5060 0160 19A3     		adr	r3, .L427+8
 5061 0162 D3E90023 		ldrd	r2, [r3]
 5062 0166 DDE90801 		ldrd	r0, [sp, #32]
 5063 016a FFF7FEFF 		bl	__aeabi_dcmplt
 5064              	.LVL426:
 5065 016e 60B9     		cbnz	r0, .L400
 606:/home/takumi/takumique/main/reservoir/app/cmcis/mat.c ****       break;
 607:/home/takumi/takumique/main/reservoir/app/cmcis/mat.c ****     }
 608:/home/takumi/takumique/main/reservoir/app/cmcis/mat.c ****     prev_lambda = lambda;
 5066              		.loc 1 608 5 is_stmt 1 discriminator 2 view .LVU1556
 5067              	.LVL427:
 590:/home/takumi/takumique/main/reservoir/app/cmcis/mat.c ****     for(unsigned i = 0; i < a->n; i++) {
 5068              		.loc 1 590 48 discriminator 2 view .LVU1557
 590:/home/takumi/takumique/main/reservoir/app/cmcis/mat.c ****     for(unsigned i = 0; i < a->n; i++) {
 5069              		.loc 1 590 57 is_stmt 0 discriminator 2 view .LVU1558
 5070 0170 07F1010B 		add	fp, r7, #1
 5071              	.LVL428:
 5072              		.loc 1 608 17 discriminator 2 view .LVU1559
 5073 0174 CDE90245 		strd	r4, [sp, #8]
 5074              	.LVL429:
 5075              	.L404:
 590:/home/takumi/takumique/main/reservoir/app/cmcis/mat.c ****     for(unsigned i = 0; i < a->n; i++) {
 5076              		.loc 1 590 31 is_stmt 1 discriminator 1 view .LVU1560
 590:/home/takumi/takumique/main/reservoir/app/cmcis/mat.c ****     for(unsigned i = 0; i < a->n; i++) {
 5077              		.loc 1 590 3 is_stmt 0 discriminator 1 view .LVU1561
 5078 0178 0C9B     		ldr	r3, [sp, #48]
 5079 017a 9B45     		cmp	fp, r3
 5080 017c 05D2     		bcs	.L400
 5081              	.LBB118:
 591:/home/takumi/takumique/main/reservoir/app/cmcis/mat.c ****       *_MAT(*y, 0, i) = 0.0f;
 5082              		.loc 1 591 18 view .LVU1562
 5083 017e 0027     		movs	r7, #0
 5084 0180 72E7     		b	.L413
 5085              	.LVL430:
 5086              	.L414:
 591:/home/takumi/takumique/main/reservoir/app/cmcis/mat.c ****       *_MAT(*y, 0, i) = 0.0f;
 5087              		.loc 1 591 18 view .LVU1563
 5088              	.LBE118:
 5089              	.LBE119:
 577:/home/takumi/takumique/main/reservoir/app/cmcis/mat.c ****   }
 5090              		.loc 1 577 12 view .LVU1564
 5091 0182 9FED137B 		vldr.64	d7, .L427+16
 5092 0186 8DED067B 		vstr.64	d7, [sp, #24]
 5093              	.LVL431:
 5094              	.L400:
 609:/home/takumi/takumique/main/reservoir/app/cmcis/mat.c ****   }
 610:/home/takumi/takumique/main/reservoir/app/cmcis/mat.c ****   return lambda;
 611:/home/takumi/takumique/main/reservoir/app/cmcis/mat.c **** }
ARM GAS  /tmp/ccgNCQ0i.s 			page 117


 5095              		.loc 1 611 1 view .LVU1565
 5096 018a 9DED060B 		vldr.64	d0, [sp, #24]
 5097 018e 0FB0     		add	sp, sp, #60
 5098              	.LCFI45:
 5099              		.cfi_remember_state
 5100              		.cfi_def_cfa_offset 36
 5101              		@ sp needed
 5102 0190 BDE8F08F 		pop	{r4, r5, r6, r7, r8, r9, r10, fp, pc}
 5103              	.LVL432:
 5104              	.L415:
 5105              	.LCFI46:
 5106              		.cfi_restore_state
 580:/home/takumi/takumique/main/reservoir/app/cmcis/mat.c ****   }
 5107              		.loc 1 580 12 view .LVU1566
 5108 0194 9FED0E7B 		vldr.64	d7, .L427+16
 5109 0198 8DED067B 		vstr.64	d7, [sp, #24]
 5110 019c F5E7     		b	.L400
 5111              	.L416:
 5112 019e 9FED0C7B 		vldr.64	d7, .L427+16
 5113 01a2 8DED067B 		vstr.64	d7, [sp, #24]
 5114 01a6 F0E7     		b	.L400
 5115              	.L417:
 583:/home/takumi/takumique/main/reservoir/app/cmcis/mat.c ****   }
 5116              		.loc 1 583 12 view .LVU1567
 5117 01a8 9FED097B 		vldr.64	d7, .L427+16
 5118 01ac 8DED067B 		vstr.64	d7, [sp, #24]
 5119 01b0 EBE7     		b	.L400
 5120              	.L418:
 5121 01b2 9FED077B 		vldr.64	d7, .L427+16
 5122 01b6 8DED067B 		vstr.64	d7, [sp, #24]
 5123 01ba E6E7     		b	.L400
 5124              	.L428:
 5125 01bc AFF30080 		.align	3
 5126              	.L427:
 5127 01c0 00000000 		.word	0
 5128 01c4 00000000 		.word	0
 5129 01c8 F168E388 		.word	2296604913
 5130 01cc B5F8E43E 		.word	1055193269
 5131 01d0 00000000 		.word	0
 5132 01d4 0000F0BF 		.word	-1074790400
 5133 01d8 0000F03F 		.word	1072693248
 5134              		.cfi_endproc
 5135              	.LFE170:
 5137              		.text
 5138              	.Letext0:
 5139              		.file 2 "/usr/lib/gcc/arm-none-eabi/9.2.1/include/stddef.h"
 5140              		.file 3 "/usr/include/newlib/sys/_types.h"
 5141              		.file 4 "/usr/include/newlib/sys/reent.h"
 5142              		.file 5 "/usr/include/newlib/sys/lock.h"
 5143              		.file 6 "/usr/include/newlib/math.h"
 5144              		.file 7 "Drivers/CMSIS/DSP/Include/arm_math.h"
 5145              		.file 8 "/home/takumi/takumique/main/reservoir/app/cmcis/mat.h"
 5146              		.file 9 "/usr/include/newlib/stdlib.h"
 5147              		.file 10 "<built-in>"
ARM GAS  /tmp/ccgNCQ0i.s 			page 118


DEFINED SYMBOLS
                            *ABS*:0000000000000000 mat.c
     /tmp/ccgNCQ0i.s:18     .text.mat_f32_new:0000000000000000 $t
     /tmp/ccgNCQ0i.s:26     .text.mat_f32_new:0000000000000000 mat_f32_new
     /tmp/ccgNCQ0i.s:99     .text.mat_f32_destroy:0000000000000000 $t
     /tmp/ccgNCQ0i.s:106    .text.mat_f32_destroy:0000000000000000 mat_f32_destroy
     /tmp/ccgNCQ0i.s:152    .text.mat_f32_copy:0000000000000000 $t
     /tmp/ccgNCQ0i.s:159    .text.mat_f32_copy:0000000000000000 mat_f32_copy
     /tmp/ccgNCQ0i.s:197    .text.mat_f32_zeros:0000000000000000 $t
     /tmp/ccgNCQ0i.s:204    .text.mat_f32_zeros:0000000000000000 mat_f32_zeros
     /tmp/ccgNCQ0i.s:240    .text.mat_f32_sum:0000000000000000 $t
     /tmp/ccgNCQ0i.s:247    .text.mat_f32_sum:0000000000000000 mat_f32_sum
     /tmp/ccgNCQ0i.s:712    .text.mat_f32_add:0000000000000000 $t
     /tmp/ccgNCQ0i.s:719    .text.mat_f32_add:0000000000000000 mat_f32_add
     /tmp/ccgNCQ0i.s:818    .text.mat_f32_product:0000000000000000 $t
     /tmp/ccgNCQ0i.s:825    .text.mat_f32_product:0000000000000000 mat_f32_product
     /tmp/ccgNCQ0i.s:1361   .text.mat_f32_mul:0000000000000000 $t
     /tmp/ccgNCQ0i.s:1368   .text.mat_f32_mul:0000000000000000 mat_f32_mul
     /tmp/ccgNCQ0i.s:1467   .text.mat_f32_identity:0000000000000000 $t
     /tmp/ccgNCQ0i.s:1474   .text.mat_f32_identity:0000000000000000 mat_f32_identity
     /tmp/ccgNCQ0i.s:1556   .text.mat_f32_inv:0000000000000000 $t
     /tmp/ccgNCQ0i.s:1563   .text.mat_f32_inv:0000000000000000 mat_f32_inv
     /tmp/ccgNCQ0i.s:1995   .text.f32_random_normal:0000000000000000 $t
     /tmp/ccgNCQ0i.s:2002   .text.f32_random_normal:0000000000000000 f32_random_normal
     /tmp/ccgNCQ0i.s:2102   .text.f32_random_normal:0000000000000098 $d
     /tmp/ccgNCQ0i.s:2109   .text.mat_f32_random_normal:0000000000000000 $t
     /tmp/ccgNCQ0i.s:2116   .text.mat_f32_random_normal:0000000000000000 mat_f32_random_normal
     /tmp/ccgNCQ0i.s:2210   .text.mat_f32_max_abs_eigenval:0000000000000000 $t
     /tmp/ccgNCQ0i.s:2217   .text.mat_f32_max_abs_eigenval:0000000000000000 mat_f32_max_abs_eigenval
     /tmp/ccgNCQ0i.s:2495   .text.mat_f32_max_abs_eigenval:000000000000013c $d
     /tmp/ccgNCQ0i.s:2501   .text.mat_f64_new:0000000000000000 $t
     /tmp/ccgNCQ0i.s:2508   .text.mat_f64_new:0000000000000000 mat_f64_new
     /tmp/ccgNCQ0i.s:2580   .text.mat_f64_destroy:0000000000000000 $t
     /tmp/ccgNCQ0i.s:2587   .text.mat_f64_destroy:0000000000000000 mat_f64_destroy
     /tmp/ccgNCQ0i.s:2633   .text.mat_f64_copy:0000000000000000 $t
     /tmp/ccgNCQ0i.s:2640   .text.mat_f64_copy:0000000000000000 mat_f64_copy
     /tmp/ccgNCQ0i.s:2678   .text.mat_f64_zeros:0000000000000000 $t
     /tmp/ccgNCQ0i.s:2685   .text.mat_f64_zeros:0000000000000000 mat_f64_zeros
     /tmp/ccgNCQ0i.s:2722   .text.mat_f64_sum:0000000000000000 $t
     /tmp/ccgNCQ0i.s:2729   .text.mat_f64_sum:0000000000000000 mat_f64_sum
     /tmp/ccgNCQ0i.s:3179   .text.mat_f64_add:0000000000000000 $t
     /tmp/ccgNCQ0i.s:3186   .text.mat_f64_add:0000000000000000 mat_f64_add
     /tmp/ccgNCQ0i.s:3287   .text.mat_f64_product:0000000000000000 $t
     /tmp/ccgNCQ0i.s:3294   .text.mat_f64_product:0000000000000000 mat_f64_product
     /tmp/ccgNCQ0i.s:3845   .text.mat_f64_mul:0000000000000000 $t
     /tmp/ccgNCQ0i.s:3852   .text.mat_f64_mul:0000000000000000 mat_f64_mul
     /tmp/ccgNCQ0i.s:3953   .text.mat_f64_identity:0000000000000000 $t
     /tmp/ccgNCQ0i.s:3960   .text.mat_f64_identity:0000000000000000 mat_f64_identity
     /tmp/ccgNCQ0i.s:4042   .text.mat_f64_inv:0000000000000000 $t
     /tmp/ccgNCQ0i.s:4049   .text.mat_f64_inv:0000000000000000 mat_f64_inv
     /tmp/ccgNCQ0i.s:4553   .text.mat_f64_inv:0000000000000278 $d
     /tmp/ccgNCQ0i.s:4561   .text.f64_random_normal:0000000000000000 $t
     /tmp/ccgNCQ0i.s:4568   .text.f64_random_normal:0000000000000000 f64_random_normal
     /tmp/ccgNCQ0i.s:4658   .text.f64_random_normal:0000000000000088 $d
     /tmp/ccgNCQ0i.s:4666   .text.mat_f64_random_normal:0000000000000000 $t
     /tmp/ccgNCQ0i.s:4673   .text.mat_f64_random_normal:0000000000000000 mat_f64_random_normal
     /tmp/ccgNCQ0i.s:4777   .text.mat_f64_max_abs_eigenval:0000000000000000 $t
ARM GAS  /tmp/ccgNCQ0i.s 			page 119


     /tmp/ccgNCQ0i.s:4784   .text.mat_f64_max_abs_eigenval:0000000000000000 mat_f64_max_abs_eigenval
     /tmp/ccgNCQ0i.s:5127   .text.mat_f64_max_abs_eigenval:00000000000001c0 $d

UNDEFINED SYMBOLS
memcpy
memset
__aeabi_f2d
__aeabi_dmul
__aeabi_d2f
random
log
sqrt
cos
__aeabi_dadd
__aeabi_ddiv
__aeabi_dsub
__aeabi_i2d
__aeabi_dcmpgt
__aeabi_dcmplt
