ARM GAS  /tmp/ccKwe6To.s 			page 1


   1              		.cpu cortex-m4
   2              		.eabi_attribute 27, 1
   3              		.eabi_attribute 28, 1
   4              		.eabi_attribute 20, 1
   5              		.eabi_attribute 21, 1
   6              		.eabi_attribute 23, 3
   7              		.eabi_attribute 24, 1
   8              		.eabi_attribute 25, 1
   9              		.eabi_attribute 26, 1
  10              		.eabi_attribute 30, 1
  11              		.eabi_attribute 34, 1
  12              		.eabi_attribute 18, 4
  13              		.file	"reservoir.c"
  14              		.text
  15              	.Ltext0:
  16              		.cfi_sections	.debug_frame
  17              		.section	.text._init_xy,"ax",%progbits
  18              		.align	1
  19              		.arch armv7e-m
  20              		.syntax unified
  21              		.thumb
  22              		.thumb_func
  23              		.fpu fpv4-sp-d16
  25              	_init_xy:
  26              	.LVL0:
  27              	.LFB148:
  28              		.file 1 "/home/takumi/takumique/main/reservoir/app/reservoir.c"
   1:/home/takumi/takumique/main/reservoir/app/reservoir.c **** #include "reservoir.h"
   2:/home/takumi/takumique/main/reservoir/app/reservoir.c **** 
   3:/home/takumi/takumique/main/reservoir/app/reservoir.c **** #ifdef CONST_WEIGHTS
   4:/home/takumi/takumique/main/reservoir/app/reservoir.c **** extern const VAL_T __in_weights[];
   5:/home/takumi/takumique/main/reservoir/app/reservoir.c **** extern const VAL_T __res_weights[];
   6:/home/takumi/takumique/main/reservoir/app/reservoir.c **** #endif
   7:/home/takumi/takumique/main/reservoir/app/reservoir.c **** 
   8:/home/takumi/takumique/main/reservoir/app/reservoir.c **** #include <string.h>
   9:/home/takumi/takumique/main/reservoir/app/reservoir.c **** #include <stdlib.h>
  10:/home/takumi/takumique/main/reservoir/app/reservoir.c **** #include <math.h>
  11:/home/takumi/takumique/main/reservoir/app/reservoir.c **** 
  12:/home/takumi/takumique/main/reservoir/app/reservoir.c **** #if defined(PRECISION_F32)
  13:/home/takumi/takumique/main/reservoir/app/reservoir.c **** static inline float activate(float a) {
  14:/home/takumi/takumique/main/reservoir/app/reservoir.c ****   return tanhf(a);
  15:/home/takumi/takumique/main/reservoir/app/reservoir.c **** }
  16:/home/takumi/takumique/main/reservoir/app/reservoir.c **** #elif defined(PRECISION_F64)
  17:/home/takumi/takumique/main/reservoir/app/reservoir.c **** static inline double activate(double a) {
  18:/home/takumi/takumique/main/reservoir/app/reservoir.c ****   return tanh(a);
  19:/home/takumi/takumique/main/reservoir/app/reservoir.c **** }
  20:/home/takumi/takumique/main/reservoir/app/reservoir.c **** #endif
  21:/home/takumi/takumique/main/reservoir/app/reservoir.c **** 
  22:/home/takumi/takumique/main/reservoir/app/reservoir.c **** static void _init_in_weights(reservoir_t *res) {
  23:/home/takumi/takumique/main/reservoir/app/reservoir.c ****   for(unsigned n = 0; n < res->in_weights.n; n++) {
  24:/home/takumi/takumique/main/reservoir/app/reservoir.c ****     for(unsigned m = 0; m < res->in_weights.m; m++) {
  25:/home/takumi/takumique/main/reservoir/app/reservoir.c ****       *_MAT(res->in_weights, n, m) = RANDOM_NORMAL(0.0, 1.0) < 0.0 ? -0.1 : 0.1;
  26:/home/takumi/takumique/main/reservoir/app/reservoir.c ****     }
  27:/home/takumi/takumique/main/reservoir/app/reservoir.c ****   }
  28:/home/takumi/takumique/main/reservoir/app/reservoir.c **** }
  29:/home/takumi/takumique/main/reservoir/app/reservoir.c **** 
  30:/home/takumi/takumique/main/reservoir/app/reservoir.c **** static void _init_res_weights(reservoir_t *res, MAT_T *temp1, MAT_T *temp2) {
ARM GAS  /tmp/ccKwe6To.s 			page 2


  31:/home/takumi/takumique/main/reservoir/app/reservoir.c ****   MAT_RANDOM_NORMAL(&res->res_weights, 0.0, 1.0);
  32:/home/takumi/takumique/main/reservoir/app/reservoir.c ****   SPECTRAL_RADIUS_T spectral_radius = MAT_MAX_ABS_EIGENVAL(&res->res_weights, temp1, temp2, 100);
  33:/home/takumi/takumique/main/reservoir/app/reservoir.c ****   MAT_MUL(&res->res_weights, &res->res_weights, 1.0 / spectral_radius);
  34:/home/takumi/takumique/main/reservoir/app/reservoir.c **** }
  35:/home/takumi/takumique/main/reservoir/app/reservoir.c **** 
  36:/home/takumi/takumique/main/reservoir/app/reservoir.c **** static void _init_xy(reservoir_t *res) {
  29              		.loc 1 36 40 view -0
  30              		.cfi_startproc
  31              		@ args = 0, pretend = 0, frame = 0
  32              		@ frame_needed = 0, uses_anonymous_args = 0
  33              		.loc 1 36 40 is_stmt 0 view .LVU1
  34 0000 10B5     		push	{r4, lr}
  35              	.LCFI0:
  36              		.cfi_def_cfa_offset 8
  37              		.cfi_offset 4, -8
  38              		.cfi_offset 14, -4
  39 0002 0446     		mov	r4, r0
  37:/home/takumi/takumique/main/reservoir/app/reservoir.c ****   MAT_ZEROS(&res->x);
  40              		.loc 1 37 3 is_stmt 1 view .LVU2
  41 0004 5430     		adds	r0, r0, #84
  42              	.LVL1:
  43              		.loc 1 37 3 is_stmt 0 view .LVU3
  44 0006 FFF7FEFF 		bl	mat_f32_zeros
  45              	.LVL2:
  38:/home/takumi/takumique/main/reservoir/app/reservoir.c ****   MAT_ZEROS(&res->y);
  46              		.loc 1 38 3 is_stmt 1 view .LVU4
  47 000a 04F16400 		add	r0, r4, #100
  48 000e FFF7FEFF 		bl	mat_f32_zeros
  49              	.LVL3:
  39:/home/takumi/takumique/main/reservoir/app/reservoir.c **** }
  50              		.loc 1 39 1 is_stmt 0 view .LVU5
  51 0012 10BD     		pop	{r4, pc}
  52              		.loc 1 39 1 view .LVU6
  53              		.cfi_endproc
  54              	.LFE148:
  56              		.section	.text._get_next_node_state,"ax",%progbits
  57              		.align	1
  58              		.syntax unified
  59              		.thumb
  60              		.thumb_func
  61              		.fpu fpv4-sp-d16
  63              	_get_next_node_state:
  64              	.LVL4:
  65              	.LFB151:
  40:/home/takumi/takumique/main/reservoir/app/reservoir.c **** 
  41:/home/takumi/takumique/main/reservoir/app/reservoir.c **** int init(reservoir_t *res) {
  42:/home/takumi/takumique/main/reservoir/app/reservoir.c **** #ifndef CONST_WEIGHTS
  43:/home/takumi/takumique/main/reservoir/app/reservoir.c ****   MAT_T temp1, temp2;
  44:/home/takumi/takumique/main/reservoir/app/reservoir.c **** #endif
  45:/home/takumi/takumique/main/reservoir/app/reservoir.c **** #ifndef CONST_WEIGHTS
  46:/home/takumi/takumique/main/reservoir/app/reservoir.c ****   if(MAT_NEW(res->mem, &res->in_weights, res->n_in_nodes, res->n_res_nodes) < 0) {
  47:/home/takumi/takumique/main/reservoir/app/reservoir.c ****     goto oom_fail;
  48:/home/takumi/takumique/main/reservoir/app/reservoir.c ****   }
  49:/home/takumi/takumique/main/reservoir/app/reservoir.c **** #else
  50:/home/takumi/takumique/main/reservoir/app/reservoir.c ****   MAT_NEW(NULL, &res->in_weights, res->n_in_nodes, res->n_res_nodes);
  51:/home/takumi/takumique/main/reservoir/app/reservoir.c ****   res->in_weights.data = (VAL_T *) __in_weights;
  52:/home/takumi/takumique/main/reservoir/app/reservoir.c **** #endif
ARM GAS  /tmp/ccKwe6To.s 			page 3


  53:/home/takumi/takumique/main/reservoir/app/reservoir.c ****   if(MAT_NEW(res->mem, &res->res_nodes, 1, res->n_res_nodes) < 0) {
  54:/home/takumi/takumique/main/reservoir/app/reservoir.c ****     goto oom_fail;
  55:/home/takumi/takumique/main/reservoir/app/reservoir.c ****   }
  56:/home/takumi/takumique/main/reservoir/app/reservoir.c **** #ifndef CONST_WEIGHTS
  57:/home/takumi/takumique/main/reservoir/app/reservoir.c ****   if(MAT_NEW(res->mem, &res->res_weights, res->n_res_nodes, res->n_res_nodes) < 0) {
  58:/home/takumi/takumique/main/reservoir/app/reservoir.c ****     goto oom_fail;
  59:/home/takumi/takumique/main/reservoir/app/reservoir.c ****   }
  60:/home/takumi/takumique/main/reservoir/app/reservoir.c **** #else
  61:/home/takumi/takumique/main/reservoir/app/reservoir.c ****   MAT_NEW(NULL, &res->res_weights, res->n_res_nodes, res->n_res_nodes);
  62:/home/takumi/takumique/main/reservoir/app/reservoir.c ****   res->res_weights.data = (VAL_T *) __res_weights;
  63:/home/takumi/takumique/main/reservoir/app/reservoir.c **** #endif
  64:/home/takumi/takumique/main/reservoir/app/reservoir.c ****   if(MAT_NEW(res->mem, &res->out_weights, res->n_res_nodes, res->n_out_nodes) < 0) {
  65:/home/takumi/takumique/main/reservoir/app/reservoir.c ****     goto oom_fail;
  66:/home/takumi/takumique/main/reservoir/app/reservoir.c ****   }
  67:/home/takumi/takumique/main/reservoir/app/reservoir.c ****   if(MAT_NEW(res->mem, &res->x, res->n_res_nodes, res->n_res_nodes) < 0) {
  68:/home/takumi/takumique/main/reservoir/app/reservoir.c ****     goto oom_fail;
  69:/home/takumi/takumique/main/reservoir/app/reservoir.c ****   }
  70:/home/takumi/takumique/main/reservoir/app/reservoir.c ****   if(MAT_NEW(res->mem, &res->y, res->n_res_nodes, res->n_in_nodes) < 0) {
  71:/home/takumi/takumique/main/reservoir/app/reservoir.c ****     goto oom_fail;
  72:/home/takumi/takumique/main/reservoir/app/reservoir.c ****   }
  73:/home/takumi/takumique/main/reservoir/app/reservoir.c ****   srandom(0);
  74:/home/takumi/takumique/main/reservoir/app/reservoir.c ****   // initialize in_weights
  75:/home/takumi/takumique/main/reservoir/app/reservoir.c **** #ifndef CONST_WEIGHTS
  76:/home/takumi/takumique/main/reservoir/app/reservoir.c ****   _init_in_weights(res);
  77:/home/takumi/takumique/main/reservoir/app/reservoir.c **** #endif
  78:/home/takumi/takumique/main/reservoir/app/reservoir.c ****   // initialize res_nodes
  79:/home/takumi/takumique/main/reservoir/app/reservoir.c ****   MAT_ZEROS(&res->res_nodes);
  80:/home/takumi/takumique/main/reservoir/app/reservoir.c ****   // initialize res_weights
  81:/home/takumi/takumique/main/reservoir/app/reservoir.c **** #ifndef CONST_WEIGHTS
  82:/home/takumi/takumique/main/reservoir/app/reservoir.c ****   MAT_NEW(NULL, &temp1, 1, res->n_res_nodes);
  83:/home/takumi/takumique/main/reservoir/app/reservoir.c ****   temp1.data = res->x.data;
  84:/home/takumi/takumique/main/reservoir/app/reservoir.c ****   MAT_NEW(NULL, &temp2, 1, res->n_res_nodes);
  85:/home/takumi/takumique/main/reservoir/app/reservoir.c ****   temp2.data = res->y.data;
  86:/home/takumi/takumique/main/reservoir/app/reservoir.c ****   _init_res_weights(res, &temp1, &temp2);
  87:/home/takumi/takumique/main/reservoir/app/reservoir.c **** #endif
  88:/home/takumi/takumique/main/reservoir/app/reservoir.c ****   // out_weights
  89:/home/takumi/takumique/main/reservoir/app/reservoir.c ****   MAT_ZEROS(&res->out_weights);
  90:/home/takumi/takumique/main/reservoir/app/reservoir.c ****   // x and y
  91:/home/takumi/takumique/main/reservoir/app/reservoir.c ****   _init_xy(res);
  92:/home/takumi/takumique/main/reservoir/app/reservoir.c ****   return 0;
  93:/home/takumi/takumique/main/reservoir/app/reservoir.c **** oom_fail:
  94:/home/takumi/takumique/main/reservoir/app/reservoir.c **** #ifndef CONST_WEIGHTS
  95:/home/takumi/takumique/main/reservoir/app/reservoir.c ****   MAT_DESTROY(res->mem, &res->in_weights);
  96:/home/takumi/takumique/main/reservoir/app/reservoir.c **** #endif
  97:/home/takumi/takumique/main/reservoir/app/reservoir.c ****   MAT_DESTROY(res->mem, &res->res_nodes);
  98:/home/takumi/takumique/main/reservoir/app/reservoir.c **** #ifndef CONST_WEIGHTS
  99:/home/takumi/takumique/main/reservoir/app/reservoir.c ****   MAT_DESTROY(res->mem, &res->res_weights);
 100:/home/takumi/takumique/main/reservoir/app/reservoir.c **** #endif
 101:/home/takumi/takumique/main/reservoir/app/reservoir.c ****   MAT_DESTROY(res->mem, &res->out_weights);
 102:/home/takumi/takumique/main/reservoir/app/reservoir.c ****   MAT_DESTROY(res->mem, &res->x);
 103:/home/takumi/takumique/main/reservoir/app/reservoir.c ****   MAT_DESTROY(res->mem, &res->y);
 104:/home/takumi/takumique/main/reservoir/app/reservoir.c ****   return -1;
 105:/home/takumi/takumique/main/reservoir/app/reservoir.c **** }
 106:/home/takumi/takumique/main/reservoir/app/reservoir.c **** 
 107:/home/takumi/takumique/main/reservoir/app/reservoir.c **** void deinit(reservoir_t *res) {
 108:/home/takumi/takumique/main/reservoir/app/reservoir.c **** #ifndef CONST_WEIGHTS
 109:/home/takumi/takumique/main/reservoir/app/reservoir.c ****   MAT_DESTROY(res->mem, &res->in_weights);
ARM GAS  /tmp/ccKwe6To.s 			page 4


 110:/home/takumi/takumique/main/reservoir/app/reservoir.c **** #endif
 111:/home/takumi/takumique/main/reservoir/app/reservoir.c ****   MAT_DESTROY(res->mem, &res->res_nodes);
 112:/home/takumi/takumique/main/reservoir/app/reservoir.c **** #ifndef CONST_WEIGHTS
 113:/home/takumi/takumique/main/reservoir/app/reservoir.c ****   MAT_DESTROY(res->mem, &res->res_weights);
 114:/home/takumi/takumique/main/reservoir/app/reservoir.c **** #endif
 115:/home/takumi/takumique/main/reservoir/app/reservoir.c ****   MAT_DESTROY(res->mem, &res->out_weights);
 116:/home/takumi/takumique/main/reservoir/app/reservoir.c ****   MAT_DESTROY(res->mem, &res->x);
 117:/home/takumi/takumique/main/reservoir/app/reservoir.c ****   MAT_DESTROY(res->mem, &res->y);
 118:/home/takumi/takumique/main/reservoir/app/reservoir.c **** }
 119:/home/takumi/takumique/main/reservoir/app/reservoir.c **** 
 120:/home/takumi/takumique/main/reservoir/app/reservoir.c **** static void _get_next_node_state(reservoir_t *res, MAT_T *temp, MAT_T *next, MAT_T *curr, MAT_T *da
  66              		.loc 1 120 104 is_stmt 1 view -0
  67              		.cfi_startproc
  68              		@ args = 4, pretend = 0, frame = 0
  69              		@ frame_needed = 0, uses_anonymous_args = 0
  70              		.loc 1 120 104 is_stmt 0 view .LVU8
  71 0000 F8B5     		push	{r3, r4, r5, r6, r7, lr}
  72              	.LCFI1:
  73              		.cfi_def_cfa_offset 24
  74              		.cfi_offset 3, -24
  75              		.cfi_offset 4, -20
  76              		.cfi_offset 5, -16
  77              		.cfi_offset 6, -12
  78              		.cfi_offset 7, -8
  79              		.cfi_offset 14, -4
  80 0002 0546     		mov	r5, r0
  81 0004 0C46     		mov	r4, r1
  82 0006 1646     		mov	r6, r2
  83 0008 1F46     		mov	r7, r3
 121:/home/takumi/takumique/main/reservoir/app/reservoir.c ****   MAT_PRODUCT(next, data, &res->in_weights);
  84              		.loc 1 121 3 is_stmt 1 view .LVU9
  85 000a 00F11402 		add	r2, r0, #20
  86              	.LVL5:
  87              		.loc 1 121 3 is_stmt 0 view .LVU10
  88 000e 0699     		ldr	r1, [sp, #24]
  89              	.LVL6:
  90              		.loc 1 121 3 view .LVU11
  91 0010 3046     		mov	r0, r6
  92              	.LVL7:
  93              		.loc 1 121 3 view .LVU12
  94 0012 FFF7FEFF 		bl	mat_f32_product
  95              	.LVL8:
 122:/home/takumi/takumique/main/reservoir/app/reservoir.c ****   MAT_PRODUCT(temp, curr, &res->res_weights);
  96              		.loc 1 122 3 is_stmt 1 view .LVU13
  97 0016 05F13402 		add	r2, r5, #52
  98 001a 3946     		mov	r1, r7
  99 001c 2046     		mov	r0, r4
 100 001e FFF7FEFF 		bl	mat_f32_product
 101              	.LVL9:
 123:/home/takumi/takumique/main/reservoir/app/reservoir.c ****   MAT_SUM(next, next, temp);
 102              		.loc 1 123 3 view .LVU14
 103 0022 2246     		mov	r2, r4
 104 0024 3146     		mov	r1, r6
 105 0026 3046     		mov	r0, r6
 106 0028 FFF7FEFF 		bl	mat_f32_sum
 107              	.LVL10:
 124:/home/takumi/takumique/main/reservoir/app/reservoir.c ****   MAT_MUL(next, next, res->leak_rate);
ARM GAS  /tmp/ccKwe6To.s 			page 5


 108              		.loc 1 124 3 view .LVU15
 109 002c 95ED040A 		vldr.32	s0, [r5, #16]
 110 0030 3146     		mov	r1, r6
 111 0032 3046     		mov	r0, r6
 112 0034 FFF7FEFF 		bl	mat_f32_mul
 113              	.LVL11:
 125:/home/takumi/takumique/main/reservoir/app/reservoir.c ****   MAT_MUL(temp, curr, 1.0 - res->leak_rate);
 114              		.loc 1 125 3 view .LVU16
 115 0038 D5ED047A 		vldr.32	s15, [r5, #16]
 116 003c B7EE000A 		vmov.f32	s0, #1.0e+0
 117 0040 30EE670A 		vsub.f32	s0, s0, s15
 118 0044 3946     		mov	r1, r7
 119 0046 2046     		mov	r0, r4
 120 0048 FFF7FEFF 		bl	mat_f32_mul
 121              	.LVL12:
 126:/home/takumi/takumique/main/reservoir/app/reservoir.c ****   MAT_SUM(next, next, temp);
 122              		.loc 1 126 3 view .LVU17
 123 004c 2246     		mov	r2, r4
 124 004e 3146     		mov	r1, r6
 125 0050 3046     		mov	r0, r6
 126 0052 FFF7FEFF 		bl	mat_f32_sum
 127              	.LVL13:
 127:/home/takumi/takumique/main/reservoir/app/reservoir.c ****   for(unsigned i = 0; i < next->m; i++) {
 128              		.loc 1 127 3 view .LVU18
 129              	.LBB5:
 130              		.loc 1 127 7 view .LVU19
 131              		.loc 1 127 16 is_stmt 0 view .LVU20
 132 0056 0025     		movs	r5, #0
 133              	.LVL14:
 134              	.L4:
 135              		.loc 1 127 23 is_stmt 1 discriminator 1 view .LVU21
 136              		.loc 1 127 31 is_stmt 0 discriminator 1 view .LVU22
 137 0058 B368     		ldr	r3, [r6, #8]
 138              		.loc 1 127 3 discriminator 1 view .LVU23
 139 005a AB42     		cmp	r3, r5
 140 005c 0AD9     		bls	.L7
 128:/home/takumi/takumique/main/reservoir/app/reservoir.c ****     *(next->data + i) = activate(*(next->data + i));
 141              		.loc 1 128 5 is_stmt 1 discriminator 3 view .LVU24
 142              		.loc 1 128 40 is_stmt 0 discriminator 3 view .LVU25
 143 005e 3468     		ldr	r4, [r6]
 144              		.loc 1 128 47 discriminator 3 view .LVU26
 145 0060 04EB8504 		add	r4, r4, r5, lsl #2
 146              	.LVL15:
 147              	.LBB6:
 148              	.LBI6:
  13:/home/takumi/takumique/main/reservoir/app/reservoir.c ****   return tanhf(a);
 149              		.loc 1 13 21 is_stmt 1 discriminator 3 view .LVU27
 150              	.LBB7:
  14:/home/takumi/takumique/main/reservoir/app/reservoir.c **** }
 151              		.loc 1 14 3 discriminator 3 view .LVU28
  14:/home/takumi/takumique/main/reservoir/app/reservoir.c **** }
 152              		.loc 1 14 10 is_stmt 0 discriminator 3 view .LVU29
 153 0064 94ED000A 		vldr.32	s0, [r4]
 154 0068 FFF7FEFF 		bl	tanhf
 155              	.LVL16:
  14:/home/takumi/takumique/main/reservoir/app/reservoir.c **** }
 156              		.loc 1 14 10 discriminator 3 view .LVU30
ARM GAS  /tmp/ccKwe6To.s 			page 6


 157              	.LBE7:
 158              	.LBE6:
 159              		.loc 1 128 23 discriminator 3 view .LVU31
 160 006c 84ED000A 		vstr.32	s0, [r4]
 127:/home/takumi/takumique/main/reservoir/app/reservoir.c ****     *(next->data + i) = activate(*(next->data + i));
 161              		.loc 1 127 36 is_stmt 1 discriminator 3 view .LVU32
 127:/home/takumi/takumique/main/reservoir/app/reservoir.c ****     *(next->data + i) = activate(*(next->data + i));
 162              		.loc 1 127 37 is_stmt 0 discriminator 3 view .LVU33
 163 0070 0135     		adds	r5, r5, #1
 164              	.LVL17:
 127:/home/takumi/takumique/main/reservoir/app/reservoir.c ****     *(next->data + i) = activate(*(next->data + i));
 165              		.loc 1 127 37 discriminator 3 view .LVU34
 166 0072 F1E7     		b	.L4
 167              	.L7:
 127:/home/takumi/takumique/main/reservoir/app/reservoir.c ****     *(next->data + i) = activate(*(next->data + i));
 168              		.loc 1 127 37 discriminator 3 view .LVU35
 169              	.LBE5:
 129:/home/takumi/takumique/main/reservoir/app/reservoir.c ****   }
 130:/home/takumi/takumique/main/reservoir/app/reservoir.c **** }
 170              		.loc 1 130 1 view .LVU36
 171 0074 F8BD     		pop	{r3, r4, r5, r6, r7, pc}
 172              		.loc 1 130 1 view .LVU37
 173              		.cfi_endproc
 174              	.LFE151:
 176              		.section	.text.init,"ax",%progbits
 177              		.align	1
 178              		.global	init
 179              		.syntax unified
 180              		.thumb
 181              		.thumb_func
 182              		.fpu fpv4-sp-d16
 184              	init:
 185              	.LVL18:
 186              	.LFB149:
  41:/home/takumi/takumique/main/reservoir/app/reservoir.c **** #ifndef CONST_WEIGHTS
 187              		.loc 1 41 28 is_stmt 1 view -0
 188              		.cfi_startproc
 189              		@ args = 0, pretend = 0, frame = 0
 190              		@ frame_needed = 0, uses_anonymous_args = 0
  41:/home/takumi/takumique/main/reservoir/app/reservoir.c **** #ifndef CONST_WEIGHTS
 191              		.loc 1 41 28 is_stmt 0 view .LVU39
 192 0000 70B5     		push	{r4, r5, r6, lr}
 193              	.LCFI2:
 194              		.cfi_def_cfa_offset 16
 195              		.cfi_offset 4, -16
 196              		.cfi_offset 5, -12
 197              		.cfi_offset 6, -8
 198              		.cfi_offset 14, -4
 199 0002 0446     		mov	r4, r0
  50:/home/takumi/takumique/main/reservoir/app/reservoir.c ****   res->in_weights.data = (VAL_T *) __in_weights;
 200              		.loc 1 50 3 is_stmt 1 view .LVU40
 201 0004 8368     		ldr	r3, [r0, #8]
 202 0006 4268     		ldr	r2, [r0, #4]
 203 0008 00F11401 		add	r1, r0, #20
 204 000c 0020     		movs	r0, #0
 205              	.LVL19:
  50:/home/takumi/takumique/main/reservoir/app/reservoir.c ****   res->in_weights.data = (VAL_T *) __in_weights;
ARM GAS  /tmp/ccKwe6To.s 			page 7


 206              		.loc 1 50 3 is_stmt 0 view .LVU41
 207 000e FFF7FEFF 		bl	mat_f32_new
 208              	.LVL20:
  51:/home/takumi/takumique/main/reservoir/app/reservoir.c **** #endif
 209              		.loc 1 51 3 is_stmt 1 view .LVU42
  51:/home/takumi/takumique/main/reservoir/app/reservoir.c **** #endif
 210              		.loc 1 51 24 is_stmt 0 view .LVU43
 211 0012 2A4B     		ldr	r3, .L12
 212 0014 6361     		str	r3, [r4, #20]
  53:/home/takumi/takumique/main/reservoir/app/reservoir.c ****     goto oom_fail;
 213              		.loc 1 53 3 is_stmt 1 view .LVU44
  53:/home/takumi/takumique/main/reservoir/app/reservoir.c ****     goto oom_fail;
 214              		.loc 1 53 6 is_stmt 0 view .LVU45
 215 0016 04F12405 		add	r5, r4, #36
 216 001a A368     		ldr	r3, [r4, #8]
 217 001c 0122     		movs	r2, #1
 218 001e 2946     		mov	r1, r5
 219 0020 2068     		ldr	r0, [r4]
 220 0022 FFF7FEFF 		bl	mat_f32_new
 221              	.LVL21:
  53:/home/takumi/takumique/main/reservoir/app/reservoir.c ****     goto oom_fail;
 222              		.loc 1 53 5 view .LVU46
 223 0026 0028     		cmp	r0, #0
 224 0028 32DB     		blt	.L9
  61:/home/takumi/takumique/main/reservoir/app/reservoir.c ****   res->res_weights.data = (VAL_T *) __res_weights;
 225              		.loc 1 61 3 is_stmt 1 view .LVU47
 226 002a A268     		ldr	r2, [r4, #8]
 227 002c 1346     		mov	r3, r2
 228 002e 04F13401 		add	r1, r4, #52
 229 0032 0020     		movs	r0, #0
 230 0034 FFF7FEFF 		bl	mat_f32_new
 231              	.LVL22:
  62:/home/takumi/takumique/main/reservoir/app/reservoir.c **** #endif
 232              		.loc 1 62 3 view .LVU48
  62:/home/takumi/takumique/main/reservoir/app/reservoir.c **** #endif
 233              		.loc 1 62 25 is_stmt 0 view .LVU49
 234 0038 214B     		ldr	r3, .L12+4
 235 003a 6363     		str	r3, [r4, #52]
  64:/home/takumi/takumique/main/reservoir/app/reservoir.c ****     goto oom_fail;
 236              		.loc 1 64 3 is_stmt 1 view .LVU50
  64:/home/takumi/takumique/main/reservoir/app/reservoir.c ****     goto oom_fail;
 237              		.loc 1 64 6 is_stmt 0 view .LVU51
 238 003c 04F14406 		add	r6, r4, #68
 239 0040 E368     		ldr	r3, [r4, #12]
 240 0042 A268     		ldr	r2, [r4, #8]
 241 0044 3146     		mov	r1, r6
 242 0046 2068     		ldr	r0, [r4]
 243 0048 FFF7FEFF 		bl	mat_f32_new
 244              	.LVL23:
  64:/home/takumi/takumique/main/reservoir/app/reservoir.c ****     goto oom_fail;
 245              		.loc 1 64 5 view .LVU52
 246 004c 0028     		cmp	r0, #0
 247 004e 1FDB     		blt	.L9
  67:/home/takumi/takumique/main/reservoir/app/reservoir.c ****     goto oom_fail;
 248              		.loc 1 67 3 is_stmt 1 view .LVU53
  67:/home/takumi/takumique/main/reservoir/app/reservoir.c ****     goto oom_fail;
 249              		.loc 1 67 6 is_stmt 0 view .LVU54
ARM GAS  /tmp/ccKwe6To.s 			page 8


 250 0050 A268     		ldr	r2, [r4, #8]
 251 0052 2146     		mov	r1, r4
 252 0054 51F8540B 		ldr	r0, [r1], #84
 253 0058 1346     		mov	r3, r2
 254 005a FFF7FEFF 		bl	mat_f32_new
 255              	.LVL24:
  67:/home/takumi/takumique/main/reservoir/app/reservoir.c ****     goto oom_fail;
 256              		.loc 1 67 5 view .LVU55
 257 005e 0028     		cmp	r0, #0
 258 0060 16DB     		blt	.L9
  70:/home/takumi/takumique/main/reservoir/app/reservoir.c ****     goto oom_fail;
 259              		.loc 1 70 3 is_stmt 1 view .LVU56
  70:/home/takumi/takumique/main/reservoir/app/reservoir.c ****     goto oom_fail;
 260              		.loc 1 70 6 is_stmt 0 view .LVU57
 261 0062 2146     		mov	r1, r4
 262 0064 51F8640B 		ldr	r0, [r1], #100
 263 0068 6368     		ldr	r3, [r4, #4]
 264 006a A268     		ldr	r2, [r4, #8]
 265 006c FFF7FEFF 		bl	mat_f32_new
 266              	.LVL25:
  70:/home/takumi/takumique/main/reservoir/app/reservoir.c ****     goto oom_fail;
 267              		.loc 1 70 5 view .LVU58
 268 0070 0028     		cmp	r0, #0
 269 0072 0DDB     		blt	.L9
  73:/home/takumi/takumique/main/reservoir/app/reservoir.c ****   // initialize in_weights
 270              		.loc 1 73 3 is_stmt 1 view .LVU59
 271 0074 0020     		movs	r0, #0
 272 0076 FFF7FEFF 		bl	srandom
 273              	.LVL26:
  79:/home/takumi/takumique/main/reservoir/app/reservoir.c ****   // initialize res_weights
 274              		.loc 1 79 3 view .LVU60
 275 007a 2846     		mov	r0, r5
 276 007c FFF7FEFF 		bl	mat_f32_zeros
 277              	.LVL27:
  89:/home/takumi/takumique/main/reservoir/app/reservoir.c ****   // x and y
 278              		.loc 1 89 3 view .LVU61
 279 0080 3046     		mov	r0, r6
 280 0082 FFF7FEFF 		bl	mat_f32_zeros
 281              	.LVL28:
  91:/home/takumi/takumique/main/reservoir/app/reservoir.c ****   return 0;
 282              		.loc 1 91 3 view .LVU62
 283 0086 2046     		mov	r0, r4
 284 0088 FFF7FEFF 		bl	_init_xy
 285              	.LVL29:
  92:/home/takumi/takumique/main/reservoir/app/reservoir.c **** oom_fail:
 286              		.loc 1 92 3 view .LVU63
  92:/home/takumi/takumique/main/reservoir/app/reservoir.c **** oom_fail:
 287              		.loc 1 92 10 is_stmt 0 view .LVU64
 288 008c 0020     		movs	r0, #0
 289              	.L8:
 105:/home/takumi/takumique/main/reservoir/app/reservoir.c **** 
 290              		.loc 1 105 1 view .LVU65
 291 008e 70BD     		pop	{r4, r5, r6, pc}
 292              	.LVL30:
 293              	.L9:
  97:/home/takumi/takumique/main/reservoir/app/reservoir.c **** #ifndef CONST_WEIGHTS
 294              		.loc 1 97 3 is_stmt 1 view .LVU66
ARM GAS  /tmp/ccKwe6To.s 			page 9


 295 0090 2946     		mov	r1, r5
 296 0092 2068     		ldr	r0, [r4]
 297 0094 FFF7FEFF 		bl	mat_f32_destroy
 298              	.LVL31:
 101:/home/takumi/takumique/main/reservoir/app/reservoir.c ****   MAT_DESTROY(res->mem, &res->x);
 299              		.loc 1 101 3 view .LVU67
 300 0098 2146     		mov	r1, r4
 301 009a 51F8440B 		ldr	r0, [r1], #68
 302 009e FFF7FEFF 		bl	mat_f32_destroy
 303              	.LVL32:
 102:/home/takumi/takumique/main/reservoir/app/reservoir.c ****   MAT_DESTROY(res->mem, &res->y);
 304              		.loc 1 102 3 view .LVU68
 305 00a2 2146     		mov	r1, r4
 306 00a4 51F8540B 		ldr	r0, [r1], #84
 307 00a8 FFF7FEFF 		bl	mat_f32_destroy
 308              	.LVL33:
 103:/home/takumi/takumique/main/reservoir/app/reservoir.c ****   return -1;
 309              		.loc 1 103 3 view .LVU69
 310 00ac 2146     		mov	r1, r4
 311 00ae 51F8640B 		ldr	r0, [r1], #100
 312 00b2 FFF7FEFF 		bl	mat_f32_destroy
 313              	.LVL34:
 104:/home/takumi/takumique/main/reservoir/app/reservoir.c **** }
 314              		.loc 1 104 3 view .LVU70
 104:/home/takumi/takumique/main/reservoir/app/reservoir.c **** }
 315              		.loc 1 104 10 is_stmt 0 view .LVU71
 316 00b6 4FF0FF30 		mov	r0, #-1
 317 00ba E8E7     		b	.L8
 318              	.L13:
 319              		.align	2
 320              	.L12:
 321 00bc 00000000 		.word	__in_weights
 322 00c0 00000000 		.word	__res_weights
 323              		.cfi_endproc
 324              	.LFE149:
 326              		.section	.text.deinit,"ax",%progbits
 327              		.align	1
 328              		.global	deinit
 329              		.syntax unified
 330              		.thumb
 331              		.thumb_func
 332              		.fpu fpv4-sp-d16
 334              	deinit:
 335              	.LVL35:
 336              	.LFB150:
 107:/home/takumi/takumique/main/reservoir/app/reservoir.c **** #ifndef CONST_WEIGHTS
 337              		.loc 1 107 31 is_stmt 1 view -0
 338              		.cfi_startproc
 339              		@ args = 0, pretend = 0, frame = 0
 340              		@ frame_needed = 0, uses_anonymous_args = 0
 107:/home/takumi/takumique/main/reservoir/app/reservoir.c **** #ifndef CONST_WEIGHTS
 341              		.loc 1 107 31 is_stmt 0 view .LVU73
 342 0000 10B5     		push	{r4, lr}
 343              	.LCFI3:
 344              		.cfi_def_cfa_offset 8
 345              		.cfi_offset 4, -8
 346              		.cfi_offset 14, -4
ARM GAS  /tmp/ccKwe6To.s 			page 10


 347 0002 0446     		mov	r4, r0
 111:/home/takumi/takumique/main/reservoir/app/reservoir.c **** #ifndef CONST_WEIGHTS
 348              		.loc 1 111 3 is_stmt 1 view .LVU74
 349 0004 0146     		mov	r1, r0
 350 0006 51F8240B 		ldr	r0, [r1], #36
 351              	.LVL36:
 111:/home/takumi/takumique/main/reservoir/app/reservoir.c **** #ifndef CONST_WEIGHTS
 352              		.loc 1 111 3 is_stmt 0 view .LVU75
 353 000a FFF7FEFF 		bl	mat_f32_destroy
 354              	.LVL37:
 115:/home/takumi/takumique/main/reservoir/app/reservoir.c ****   MAT_DESTROY(res->mem, &res->x);
 355              		.loc 1 115 3 is_stmt 1 view .LVU76
 356 000e 2146     		mov	r1, r4
 357 0010 51F8440B 		ldr	r0, [r1], #68
 358 0014 FFF7FEFF 		bl	mat_f32_destroy
 359              	.LVL38:
 116:/home/takumi/takumique/main/reservoir/app/reservoir.c ****   MAT_DESTROY(res->mem, &res->y);
 360              		.loc 1 116 3 view .LVU77
 361 0018 2146     		mov	r1, r4
 362 001a 51F8540B 		ldr	r0, [r1], #84
 363 001e FFF7FEFF 		bl	mat_f32_destroy
 364              	.LVL39:
 117:/home/takumi/takumique/main/reservoir/app/reservoir.c **** }
 365              		.loc 1 117 3 view .LVU78
 366 0022 2146     		mov	r1, r4
 367 0024 51F8640B 		ldr	r0, [r1], #100
 368 0028 FFF7FEFF 		bl	mat_f32_destroy
 369              	.LVL40:
 118:/home/takumi/takumique/main/reservoir/app/reservoir.c **** 
 370              		.loc 1 118 1 is_stmt 0 view .LVU79
 371 002c 10BD     		pop	{r4, pc}
 118:/home/takumi/takumique/main/reservoir/app/reservoir.c **** 
 372              		.loc 1 118 1 view .LVU80
 373              		.cfi_endproc
 374              	.LFE150:
 376              		.section	.text.train_feed_data,"ax",%progbits
 377              		.align	1
 378              		.global	train_feed_data
 379              		.syntax unified
 380              		.thumb
 381              		.thumb_func
 382              		.fpu fpv4-sp-d16
 384              	train_feed_data:
 385              	.LVL41:
 386              	.LFB152:
 131:/home/takumi/takumique/main/reservoir/app/reservoir.c **** 
 132:/home/takumi/takumique/main/reservoir/app/reservoir.c **** // heap: n_res_nodes * n_data + n_res_nodes * n_res_nodes + n_res_nodes * n_in_nodes
 133:/home/takumi/takumique/main/reservoir/app/reservoir.c **** int train_feed_data(reservoir_t *res, MAT_T *data) {
 387              		.loc 1 133 52 is_stmt 1 view -0
 388              		.cfi_startproc
 389              		@ args = 0, pretend = 0, frame = 128
 390              		@ frame_needed = 0, uses_anonymous_args = 0
 391              		.loc 1 133 52 is_stmt 0 view .LVU82
 392 0000 70B5     		push	{r4, r5, r6, lr}
 393              	.LCFI4:
 394              		.cfi_def_cfa_offset 16
 395              		.cfi_offset 4, -16
ARM GAS  /tmp/ccKwe6To.s 			page 11


 396              		.cfi_offset 5, -12
 397              		.cfi_offset 6, -8
 398              		.cfi_offset 14, -4
 399 0002 A2B0     		sub	sp, sp, #136
 400              	.LCFI5:
 401              		.cfi_def_cfa_offset 152
 402 0004 0446     		mov	r4, r0
 403 0006 0D46     		mov	r5, r1
 134:/home/takumi/takumique/main/reservoir/app/reservoir.c ****   int ret = 0;
 404              		.loc 1 134 3 is_stmt 1 view .LVU83
 405              	.LVL42:
 135:/home/takumi/takumique/main/reservoir/app/reservoir.c ****   MAT_T res_nodes, x, y;
 406              		.loc 1 135 3 view .LVU84
 136:/home/takumi/takumique/main/reservoir/app/reservoir.c ****   if(MAT_NEW(res->mem, &res_nodes, data->n + 1, res->n_res_nodes) < 0) {
 407              		.loc 1 136 3 view .LVU85
 408              		.loc 1 136 6 is_stmt 0 view .LVU86
 409 0008 4A68     		ldr	r2, [r1, #4]
 410 000a 8368     		ldr	r3, [r0, #8]
 411 000c 0132     		adds	r2, r2, #1
 412 000e 1EA9     		add	r1, sp, #120
 413              	.LVL43:
 414              		.loc 1 136 6 view .LVU87
 415 0010 0068     		ldr	r0, [r0]
 416              	.LVL44:
 417              		.loc 1 136 6 view .LVU88
 418 0012 FFF7FEFF 		bl	mat_f32_new
 419              	.LVL45:
 420              		.loc 1 136 5 view .LVU89
 421 0016 0028     		cmp	r0, #0
 422 0018 C0F2A380 		blt	.L20
 137:/home/takumi/takumique/main/reservoir/app/reservoir.c ****     ret = -1;
 138:/home/takumi/takumique/main/reservoir/app/reservoir.c ****     goto oom_fail;
 139:/home/takumi/takumique/main/reservoir/app/reservoir.c ****   }
 140:/home/takumi/takumique/main/reservoir/app/reservoir.c ****   if(MAT_NEW(res->mem, &x, res->n_res_nodes, res->n_res_nodes) < 0) {
 423              		.loc 1 140 3 is_stmt 1 view .LVU90
 424              		.loc 1 140 6 is_stmt 0 view .LVU91
 425 001c A268     		ldr	r2, [r4, #8]
 426 001e 1346     		mov	r3, r2
 427 0020 1AA9     		add	r1, sp, #104
 428 0022 2068     		ldr	r0, [r4]
 429 0024 FFF7FEFF 		bl	mat_f32_new
 430              	.LVL46:
 431              		.loc 1 140 5 view .LVU92
 432 0028 0028     		cmp	r0, #0
 433 002a C0F29D80 		blt	.L21
 141:/home/takumi/takumique/main/reservoir/app/reservoir.c ****     ret = -1;
 142:/home/takumi/takumique/main/reservoir/app/reservoir.c ****     goto oom_fail;
 143:/home/takumi/takumique/main/reservoir/app/reservoir.c ****   }
 144:/home/takumi/takumique/main/reservoir/app/reservoir.c ****   if(MAT_NEW(res->mem, &y, res->n_res_nodes, res->n_in_nodes) < 0) {
 434              		.loc 1 144 3 is_stmt 1 view .LVU93
 435              		.loc 1 144 6 is_stmt 0 view .LVU94
 436 002e 6368     		ldr	r3, [r4, #4]
 437 0030 A268     		ldr	r2, [r4, #8]
 438 0032 16A9     		add	r1, sp, #88
 439 0034 2068     		ldr	r0, [r4]
 440 0036 FFF7FEFF 		bl	mat_f32_new
 441              	.LVL47:
ARM GAS  /tmp/ccKwe6To.s 			page 12


 442              		.loc 1 144 5 view .LVU95
 443 003a 0028     		cmp	r0, #0
 444 003c C0F29780 		blt	.L22
 145:/home/takumi/takumique/main/reservoir/app/reservoir.c ****     ret = -1;
 146:/home/takumi/takumique/main/reservoir/app/reservoir.c ****     goto oom_fail;
 147:/home/takumi/takumique/main/reservoir/app/reservoir.c ****   }
 148:/home/takumi/takumique/main/reservoir/app/reservoir.c ****   // copy last res_nodes to initial res_nodes for training
 149:/home/takumi/takumique/main/reservoir/app/reservoir.c ****   memcpy(res_nodes.data, res->res_nodes.data, sizeof(VAL_T) * res->n_res_nodes);
 445              		.loc 1 149 3 is_stmt 1 view .LVU96
 446              		.loc 1 149 66 is_stmt 0 view .LVU97
 447 0040 A268     		ldr	r2, [r4, #8]
 448              		.loc 1 149 3 view .LVU98
 449 0042 9200     		lsls	r2, r2, #2
 450 0044 616A     		ldr	r1, [r4, #36]
 451 0046 1E98     		ldr	r0, [sp, #120]
 452 0048 FFF7FEFF 		bl	memcpy
 453              	.LVL48:
 150:/home/takumi/takumique/main/reservoir/app/reservoir.c ****   // update res_nodes with given data for length of given data times
 151:/home/takumi/takumique/main/reservoir/app/reservoir.c ****   MAT_T _curr, _next, _data, _temp;
 454              		.loc 1 151 3 is_stmt 1 view .LVU99
 152:/home/takumi/takumique/main/reservoir/app/reservoir.c ****   MAT_NEW(NULL, &_curr, 1, res->n_res_nodes);
 455              		.loc 1 152 3 view .LVU100
 456 004c A368     		ldr	r3, [r4, #8]
 457 004e 0122     		movs	r2, #1
 458 0050 12A9     		add	r1, sp, #72
 459 0052 0020     		movs	r0, #0
 460 0054 FFF7FEFF 		bl	mat_f32_new
 461              	.LVL49:
 153:/home/takumi/takumique/main/reservoir/app/reservoir.c ****   MAT_NEW(NULL, &_next, 1, res->n_res_nodes);
 462              		.loc 1 153 3 view .LVU101
 463 0058 A368     		ldr	r3, [r4, #8]
 464 005a 0122     		movs	r2, #1
 465 005c 0EA9     		add	r1, sp, #56
 466 005e 0020     		movs	r0, #0
 467 0060 FFF7FEFF 		bl	mat_f32_new
 468              	.LVL50:
 154:/home/takumi/takumique/main/reservoir/app/reservoir.c ****   MAT_NEW(NULL, &_data, 1, res->n_in_nodes);
 469              		.loc 1 154 3 view .LVU102
 470 0064 6368     		ldr	r3, [r4, #4]
 471 0066 0122     		movs	r2, #1
 472 0068 0AA9     		add	r1, sp, #40
 473 006a 0020     		movs	r0, #0
 474 006c FFF7FEFF 		bl	mat_f32_new
 475              	.LVL51:
 155:/home/takumi/takumique/main/reservoir/app/reservoir.c ****   MAT_NEW(NULL, &_temp, 1, res->n_res_nodes);
 476              		.loc 1 155 3 view .LVU103
 477 0070 A368     		ldr	r3, [r4, #8]
 478 0072 0122     		movs	r2, #1
 479 0074 06A9     		add	r1, sp, #24
 480 0076 0020     		movs	r0, #0
 481 0078 FFF7FEFF 		bl	mat_f32_new
 482              	.LVL52:
 156:/home/takumi/takumique/main/reservoir/app/reservoir.c ****   _temp.data = x.data;
 483              		.loc 1 156 3 view .LVU104
 484              		.loc 1 156 17 is_stmt 0 view .LVU105
 485 007c 1A9B     		ldr	r3, [sp, #104]
 486              		.loc 1 156 14 view .LVU106
ARM GAS  /tmp/ccKwe6To.s 			page 13


 487 007e 0693     		str	r3, [sp, #24]
 157:/home/takumi/takumique/main/reservoir/app/reservoir.c ****   for(unsigned n = 0; n < data->n; n++) {
 488              		.loc 1 157 3 is_stmt 1 view .LVU107
 489              	.LBB8:
 490              		.loc 1 157 7 view .LVU108
 491              	.LVL53:
 492              		.loc 1 157 16 is_stmt 0 view .LVU109
 493 0080 0023     		movs	r3, #0
 494              		.loc 1 157 3 view .LVU110
 495 0082 1CE0     		b	.L18
 496              	.LVL54:
 497              	.L19:
 158:/home/takumi/takumique/main/reservoir/app/reservoir.c ****     _curr.data = res_nodes.data + res->n_res_nodes * n;
 498              		.loc 1 158 5 is_stmt 1 discriminator 3 view .LVU111
 499              		.loc 1 158 27 is_stmt 0 discriminator 3 view .LVU112
 500 0084 1E98     		ldr	r0, [sp, #120]
 501              		.loc 1 158 38 discriminator 3 view .LVU113
 502 0086 A268     		ldr	r2, [r4, #8]
 503              		.loc 1 158 52 discriminator 3 view .LVU114
 504 0088 03FB02F1 		mul	r1, r3, r2
 505              		.loc 1 158 33 discriminator 3 view .LVU115
 506 008c 00EB8101 		add	r1, r0, r1, lsl #2
 507              		.loc 1 158 16 discriminator 3 view .LVU116
 508 0090 1291     		str	r1, [sp, #72]
 159:/home/takumi/takumique/main/reservoir/app/reservoir.c ****     _next.data = res_nodes.data + res->n_res_nodes * (n + 1);
 509              		.loc 1 159 5 is_stmt 1 discriminator 3 view .LVU117
 510              		.loc 1 159 57 is_stmt 0 discriminator 3 view .LVU118
 511 0092 5E1C     		adds	r6, r3, #1
 512              		.loc 1 159 52 discriminator 3 view .LVU119
 513 0094 03FB0222 		mla	r2, r3, r2, r2
 514              		.loc 1 159 33 discriminator 3 view .LVU120
 515 0098 00EB8202 		add	r2, r0, r2, lsl #2
 516              		.loc 1 159 16 discriminator 3 view .LVU121
 517 009c 0E92     		str	r2, [sp, #56]
 160:/home/takumi/takumique/main/reservoir/app/reservoir.c ****     _data.data = data->data + n * res->n_in_nodes;
 518              		.loc 1 160 5 is_stmt 1 discriminator 3 view .LVU122
 519              		.loc 1 160 22 is_stmt 0 discriminator 3 view .LVU123
 520 009e 2A68     		ldr	r2, [r5]
 521              		.loc 1 160 38 discriminator 3 view .LVU124
 522 00a0 6168     		ldr	r1, [r4, #4]
 523              		.loc 1 160 33 discriminator 3 view .LVU125
 524 00a2 03FB01F3 		mul	r3, r3, r1
 525              	.LVL55:
 526              		.loc 1 160 29 discriminator 3 view .LVU126
 527 00a6 02EB8303 		add	r3, r2, r3, lsl #2
 528              		.loc 1 160 16 discriminator 3 view .LVU127
 529 00aa 0A93     		str	r3, [sp, #40]
 161:/home/takumi/takumique/main/reservoir/app/reservoir.c ****     _get_next_node_state(res, &_temp, &_next, &_curr, &_data);
 530              		.loc 1 161 5 is_stmt 1 discriminator 3 view .LVU128
 531 00ac 0AAB     		add	r3, sp, #40
 532 00ae 0093     		str	r3, [sp]
 533 00b0 12AB     		add	r3, sp, #72
 534 00b2 0EAA     		add	r2, sp, #56
 535 00b4 06A9     		add	r1, sp, #24
 536 00b6 2046     		mov	r0, r4
 537 00b8 FFF7FEFF 		bl	_get_next_node_state
 538              	.LVL56:
ARM GAS  /tmp/ccKwe6To.s 			page 14


 157:/home/takumi/takumique/main/reservoir/app/reservoir.c ****     _curr.data = res_nodes.data + res->n_res_nodes * n;
 539              		.loc 1 157 36 discriminator 3 view .LVU129
 157:/home/takumi/takumique/main/reservoir/app/reservoir.c ****     _curr.data = res_nodes.data + res->n_res_nodes * n;
 540              		.loc 1 157 37 is_stmt 0 discriminator 3 view .LVU130
 541 00bc 3346     		mov	r3, r6
 542              	.LVL57:
 543              	.L18:
 157:/home/takumi/takumique/main/reservoir/app/reservoir.c ****     _curr.data = res_nodes.data + res->n_res_nodes * n;
 544              		.loc 1 157 23 is_stmt 1 discriminator 1 view .LVU131
 157:/home/takumi/takumique/main/reservoir/app/reservoir.c ****     _curr.data = res_nodes.data + res->n_res_nodes * n;
 545              		.loc 1 157 31 is_stmt 0 discriminator 1 view .LVU132
 546 00be 6A68     		ldr	r2, [r5, #4]
 157:/home/takumi/takumique/main/reservoir/app/reservoir.c ****     _curr.data = res_nodes.data + res->n_res_nodes * n;
 547              		.loc 1 157 3 discriminator 1 view .LVU133
 548 00c0 9A42     		cmp	r2, r3
 549 00c2 DFD8     		bhi	.L19
 550              	.LBE8:
 162:/home/takumi/takumique/main/reservoir/app/reservoir.c ****   }
 163:/home/takumi/takumique/main/reservoir/app/reservoir.c ****   // fast forward one
 164:/home/takumi/takumique/main/reservoir/app/reservoir.c ****   res_nodes.data += res->n_res_nodes;
 551              		.loc 1 164 3 is_stmt 1 view .LVU134
 552              		.loc 1 164 24 is_stmt 0 view .LVU135
 553 00c4 A268     		ldr	r2, [r4, #8]
 554              		.loc 1 164 18 view .LVU136
 555 00c6 1E9B     		ldr	r3, [sp, #120]
 556              	.LVL58:
 557              		.loc 1 164 18 view .LVU137
 558 00c8 03EB8203 		add	r3, r3, r2, lsl #2
 559 00cc 1E93     		str	r3, [sp, #120]
 165:/home/takumi/takumique/main/reservoir/app/reservoir.c ****   res_nodes.n -= 1;
 560              		.loc 1 165 3 is_stmt 1 view .LVU138
 561              		.loc 1 165 15 is_stmt 0 view .LVU139
 562 00ce 1F9A     		ldr	r2, [sp, #124]
 563 00d0 013A     		subs	r2, r2, #1
 564 00d2 1F92     		str	r2, [sp, #124]
 166:/home/takumi/takumique/main/reservoir/app/reservoir.c ****   // update (X X_T) as x = (X_T X) in case of column major
 167:/home/takumi/takumique/main/reservoir/app/reservoir.c ****   MAT_T _res_nodes_t;
 565              		.loc 1 167 3 is_stmt 1 view .LVU140
 168:/home/takumi/takumique/main/reservoir/app/reservoir.c ****   MAT_NEW(NULL, &_res_nodes_t, res_nodes.n, res_nodes.m);
 566              		.loc 1 168 3 view .LVU141
 567 00d4 209B     		ldr	r3, [sp, #128]
 568 00d6 02A9     		add	r1, sp, #8
 569 00d8 0020     		movs	r0, #0
 570 00da FFF7FEFF 		bl	mat_f32_new
 571              	.LVL59:
 169:/home/takumi/takumique/main/reservoir/app/reservoir.c ****   _res_nodes_t.data = res_nodes.data;
 572              		.loc 1 169 3 view .LVU142
 573              		.loc 1 169 32 is_stmt 0 view .LVU143
 574 00de 1E9B     		ldr	r3, [sp, #120]
 575              		.loc 1 169 21 view .LVU144
 576 00e0 0293     		str	r3, [sp, #8]
 170:/home/takumi/takumique/main/reservoir/app/reservoir.c ****   T(_res_nodes_t);
 577              		.loc 1 170 3 is_stmt 1 view .LVU145
 578              	.LBB9:
 579              		.loc 1 170 3 view .LVU146
 580 00e2 059B     		ldr	r3, [sp, #20]
 581 00e4 B3FA83F3 		clz	r3, r3
ARM GAS  /tmp/ccKwe6To.s 			page 15


 582 00e8 5B09     		lsrs	r3, r3, #5
 583 00ea 0593     		str	r3, [sp, #20]
 584              		.loc 1 170 3 view .LVU147
 585 00ec 039B     		ldr	r3, [sp, #12]
 586              	.LVL60:
 587              		.loc 1 170 3 view .LVU148
 588 00ee 049A     		ldr	r2, [sp, #16]
 589 00f0 0392     		str	r2, [sp, #12]
 590              		.loc 1 170 3 view .LVU149
 591 00f2 0493     		str	r3, [sp, #16]
 592              	.LBE9:
 593              		.loc 1 170 3 view .LVU150
 171:/home/takumi/takumique/main/reservoir/app/reservoir.c ****   MAT_PRODUCT(&x, &_res_nodes_t, &res_nodes);
 594              		.loc 1 171 3 view .LVU151
 595 00f4 1EAA     		add	r2, sp, #120
 596 00f6 02A9     		add	r1, sp, #8
 597 00f8 1AA8     		add	r0, sp, #104
 598 00fa FFF7FEFF 		bl	mat_f32_product
 599              	.LVL61:
 172:/home/takumi/takumique/main/reservoir/app/reservoir.c ****   MAT_SUM(&res->x, &res->x, &x);
 600              		.loc 1 172 3 view .LVU152
 601 00fe 04F15400 		add	r0, r4, #84
 602 0102 1AAA     		add	r2, sp, #104
 603 0104 0146     		mov	r1, r0
 604 0106 FFF7FEFF 		bl	mat_f32_sum
 605              	.LVL62:
 173:/home/takumi/takumique/main/reservoir/app/reservoir.c ****   // update (Y_TARGET X_T) as y = (X_T Y_TARGET) in case of column major
 174:/home/takumi/takumique/main/reservoir/app/reservoir.c ****   MAT_PRODUCT(&y, &_res_nodes_t, data);
 606              		.loc 1 174 3 view .LVU153
 607 010a 2A46     		mov	r2, r5
 608 010c 02A9     		add	r1, sp, #8
 609 010e 16A8     		add	r0, sp, #88
 610 0110 FFF7FEFF 		bl	mat_f32_product
 611              	.LVL63:
 175:/home/takumi/takumique/main/reservoir/app/reservoir.c ****   MAT_SUM(&res->y, &res->y, &y);
 612              		.loc 1 175 3 view .LVU154
 613 0114 04F16400 		add	r0, r4, #100
 614 0118 16AA     		add	r2, sp, #88
 615 011a 0146     		mov	r1, r0
 616 011c FFF7FEFF 		bl	mat_f32_sum
 617              	.LVL64:
 176:/home/takumi/takumique/main/reservoir/app/reservoir.c ****   // rewind one
 177:/home/takumi/takumique/main/reservoir/app/reservoir.c ****   res_nodes.data -= res->n_res_nodes;
 618              		.loc 1 177 3 view .LVU155
 619              		.loc 1 177 24 is_stmt 0 view .LVU156
 620 0120 A268     		ldr	r2, [r4, #8]
 621              		.loc 1 177 18 view .LVU157
 622 0122 1E9B     		ldr	r3, [sp, #120]
 623 0124 A3EB8203 		sub	r3, r3, r2, lsl #2
 624 0128 1E93     		str	r3, [sp, #120]
 178:/home/takumi/takumique/main/reservoir/app/reservoir.c ****   res_nodes.n += 1;
 625              		.loc 1 178 3 is_stmt 1 view .LVU158
 626              		.loc 1 178 15 is_stmt 0 view .LVU159
 627 012a 1F99     		ldr	r1, [sp, #124]
 628 012c 0131     		adds	r1, r1, #1
 629 012e 1F91     		str	r1, [sp, #124]
 179:/home/takumi/takumique/main/reservoir/app/reservoir.c ****   // copy back last res_nodes
ARM GAS  /tmp/ccKwe6To.s 			page 16


 180:/home/takumi/takumique/main/reservoir/app/reservoir.c ****   memcpy(res->res_nodes.data, res_nodes.data + res->n_res_nodes * data->n, sizeof(VAL_T) * res->n_r
 630              		.loc 1 180 3 is_stmt 1 view .LVU160
 631              		.loc 1 180 71 is_stmt 0 view .LVU161
 632 0130 6968     		ldr	r1, [r5, #4]
 633              		.loc 1 180 65 view .LVU162
 634 0132 01FB02F1 		mul	r1, r1, r2
 635              		.loc 1 180 3 view .LVU163
 636 0136 9200     		lsls	r2, r2, #2
 637 0138 03EB8101 		add	r1, r3, r1, lsl #2
 638 013c 606A     		ldr	r0, [r4, #36]
 639 013e FFF7FEFF 		bl	memcpy
 640              	.LVL65:
 134:/home/takumi/takumique/main/reservoir/app/reservoir.c ****   MAT_T res_nodes, x, y;
 641              		.loc 1 134 7 view .LVU164
 642 0142 0025     		movs	r5, #0
 643              	.LVL66:
 644              	.L17:
 181:/home/takumi/takumique/main/reservoir/app/reservoir.c **** oom_fail:
 182:/home/takumi/takumique/main/reservoir/app/reservoir.c ****   MAT_DESTROY(res->mem, &res_nodes);
 645              		.loc 1 182 3 is_stmt 1 view .LVU165
 646 0144 1EA9     		add	r1, sp, #120
 647 0146 2068     		ldr	r0, [r4]
 648 0148 FFF7FEFF 		bl	mat_f32_destroy
 649              	.LVL67:
 183:/home/takumi/takumique/main/reservoir/app/reservoir.c ****   MAT_DESTROY(res->mem, &x);
 650              		.loc 1 183 3 view .LVU166
 651 014c 1AA9     		add	r1, sp, #104
 652 014e 2068     		ldr	r0, [r4]
 653 0150 FFF7FEFF 		bl	mat_f32_destroy
 654              	.LVL68:
 184:/home/takumi/takumique/main/reservoir/app/reservoir.c ****   MAT_DESTROY(res->mem, &y);
 655              		.loc 1 184 3 view .LVU167
 656 0154 16A9     		add	r1, sp, #88
 657 0156 2068     		ldr	r0, [r4]
 658 0158 FFF7FEFF 		bl	mat_f32_destroy
 659              	.LVL69:
 185:/home/takumi/takumique/main/reservoir/app/reservoir.c ****   return ret;
 660              		.loc 1 185 3 view .LVU168
 186:/home/takumi/takumique/main/reservoir/app/reservoir.c **** }
 661              		.loc 1 186 1 is_stmt 0 view .LVU169
 662 015c 2846     		mov	r0, r5
 663 015e 22B0     		add	sp, sp, #136
 664              	.LCFI6:
 665              		.cfi_remember_state
 666              		.cfi_def_cfa_offset 16
 667              		@ sp needed
 668 0160 70BD     		pop	{r4, r5, r6, pc}
 669              	.LVL70:
 670              	.L20:
 671              	.LCFI7:
 672              		.cfi_restore_state
 137:/home/takumi/takumique/main/reservoir/app/reservoir.c ****     goto oom_fail;
 673              		.loc 1 137 9 view .LVU170
 674 0162 4FF0FF35 		mov	r5, #-1
 675              	.LVL71:
 137:/home/takumi/takumique/main/reservoir/app/reservoir.c ****     goto oom_fail;
 676              		.loc 1 137 9 view .LVU171
ARM GAS  /tmp/ccKwe6To.s 			page 17


 677 0166 EDE7     		b	.L17
 678              	.LVL72:
 679              	.L21:
 141:/home/takumi/takumique/main/reservoir/app/reservoir.c ****     goto oom_fail;
 680              		.loc 1 141 9 view .LVU172
 681 0168 4FF0FF35 		mov	r5, #-1
 682              	.LVL73:
 141:/home/takumi/takumique/main/reservoir/app/reservoir.c ****     goto oom_fail;
 683              		.loc 1 141 9 view .LVU173
 684 016c EAE7     		b	.L17
 685              	.LVL74:
 686              	.L22:
 145:/home/takumi/takumique/main/reservoir/app/reservoir.c ****     goto oom_fail;
 687              		.loc 1 145 9 view .LVU174
 688 016e 4FF0FF35 		mov	r5, #-1
 689              	.LVL75:
 145:/home/takumi/takumique/main/reservoir/app/reservoir.c ****     goto oom_fail;
 690              		.loc 1 145 9 view .LVU175
 691 0172 E7E7     		b	.L17
 692              		.cfi_endproc
 693              	.LFE152:
 695              		.global	__aeabi_f2d
 696              		.global	__aeabi_dadd
 697              		.global	__aeabi_d2f
 698              		.section	.text.train_compute_weight,"ax",%progbits
 699              		.align	1
 700              		.global	train_compute_weight
 701              		.syntax unified
 702              		.thumb
 703              		.thumb_func
 704              		.fpu fpv4-sp-d16
 706              	train_compute_weight:
 707              	.LVL76:
 708              	.LFB153:
 187:/home/takumi/takumique/main/reservoir/app/reservoir.c **** 
 188:/home/takumi/takumique/main/reservoir/app/reservoir.c **** // heap: n_res_nodes * n_res_nodes * 1 (reset x and y)
 189:/home/takumi/takumique/main/reservoir/app/reservoir.c **** // heap: n_res_nodes * n_res_nodes * 2 (do not reset x and y)
 190:/home/takumi/takumique/main/reservoir/app/reservoir.c **** int train_compute_weight(reservoir_t *res, unsigned reset) {
 709              		.loc 1 190 60 is_stmt 1 view -0
 710              		.cfi_startproc
 711              		@ args = 0, pretend = 0, frame = 32
 712              		@ frame_needed = 0, uses_anonymous_args = 0
 713              		.loc 1 190 60 is_stmt 0 view .LVU177
 714 0000 2DE9F041 		push	{r4, r5, r6, r7, r8, lr}
 715              	.LCFI8:
 716              		.cfi_def_cfa_offset 24
 717              		.cfi_offset 4, -24
 718              		.cfi_offset 5, -20
 719              		.cfi_offset 6, -16
 720              		.cfi_offset 7, -12
 721              		.cfi_offset 8, -8
 722              		.cfi_offset 14, -4
 723 0004 88B0     		sub	sp, sp, #32
 724              	.LCFI9:
 725              		.cfi_def_cfa_offset 56
 726 0006 0646     		mov	r6, r0
 191:/home/takumi/takumique/main/reservoir/app/reservoir.c ****   int ret = 0;
ARM GAS  /tmp/ccKwe6To.s 			page 18


 727              		.loc 1 191 3 is_stmt 1 view .LVU178
 728              	.LVL77:
 192:/home/takumi/takumique/main/reservoir/app/reservoir.c ****   MAT_T x, inv_x;
 729              		.loc 1 192 3 view .LVU179
 193:/home/takumi/takumique/main/reservoir/app/reservoir.c ****   if(!reset) {
 730              		.loc 1 193 3 view .LVU180
 731              		.loc 1 193 5 is_stmt 0 view .LVU181
 732 0008 0F46     		mov	r7, r1
 733 000a 39B9     		cbnz	r1, .L25
 194:/home/takumi/takumique/main/reservoir/app/reservoir.c ****     if(MAT_NEW(res->mem, &x, res->n_res_nodes, res->n_res_nodes) < 0) {
 734              		.loc 1 194 5 is_stmt 1 view .LVU182
 735              		.loc 1 194 8 is_stmt 0 view .LVU183
 736 000c 8268     		ldr	r2, [r0, #8]
 737 000e 1346     		mov	r3, r2
 738 0010 04A9     		add	r1, sp, #16
 739              	.LVL78:
 740              		.loc 1 194 8 view .LVU184
 741 0012 0068     		ldr	r0, [r0]
 742              	.LVL79:
 743              		.loc 1 194 8 view .LVU185
 744 0014 FFF7FEFF 		bl	mat_f32_new
 745              	.LVL80:
 746              		.loc 1 194 7 view .LVU186
 747 0018 0028     		cmp	r0, #0
 748 001a 6EDB     		blt	.L36
 749              	.L25:
 195:/home/takumi/takumique/main/reservoir/app/reservoir.c ****       ret = -1;
 196:/home/takumi/takumique/main/reservoir/app/reservoir.c ****       goto oom_fail;
 197:/home/takumi/takumique/main/reservoir/app/reservoir.c ****     }
 198:/home/takumi/takumique/main/reservoir/app/reservoir.c ****   }
 199:/home/takumi/takumique/main/reservoir/app/reservoir.c ****   if(MAT_NEW(res->mem, &inv_x, res->n_res_nodes, res->n_res_nodes) < 0) {
 750              		.loc 1 199 3 is_stmt 1 view .LVU187
 751              		.loc 1 199 6 is_stmt 0 view .LVU188
 752 001c B268     		ldr	r2, [r6, #8]
 753 001e 1346     		mov	r3, r2
 754 0020 6946     		mov	r1, sp
 755 0022 3068     		ldr	r0, [r6]
 756 0024 FFF7FEFF 		bl	mat_f32_new
 757              	.LVL81:
 758              		.loc 1 199 5 view .LVU189
 759 0028 0028     		cmp	r0, #0
 760 002a 69DB     		blt	.L37
 200:/home/takumi/takumique/main/reservoir/app/reservoir.c ****     ret = -1;
 201:/home/takumi/takumique/main/reservoir/app/reservoir.c ****     goto oom_fail;
 202:/home/takumi/takumique/main/reservoir/app/reservoir.c ****   }
 203:/home/takumi/takumique/main/reservoir/app/reservoir.c ****   // compute out_weights with accumulated (Y_TARGET X_T) and (X X_T)
 204:/home/takumi/takumique/main/reservoir/app/reservoir.c ****   if(!reset) {
 761              		.loc 1 204 3 is_stmt 1 view .LVU190
 762              		.loc 1 204 5 is_stmt 0 view .LVU191
 763 002c 002F     		cmp	r7, #0
 764 002e 43D0     		beq	.L38
 765              	.LBB10:
 205:/home/takumi/takumique/main/reservoir/app/reservoir.c ****     for(unsigned n = 0; n < x.n; n++) {
 206:/home/takumi/takumique/main/reservoir/app/reservoir.c ****       for(unsigned m = 0; m < x.m; m++) {
 207:/home/takumi/takumique/main/reservoir/app/reservoir.c ****         *_MAT(x, n, m) = *_MAT(res->x, n, m);
 208:/home/takumi/takumique/main/reservoir/app/reservoir.c ****         if(n == m) {
 209:/home/takumi/takumique/main/reservoir/app/reservoir.c ****           *_MAT(x, n, m) += 0.1;
ARM GAS  /tmp/ccKwe6To.s 			page 19


 210:/home/takumi/takumique/main/reservoir/app/reservoir.c ****         }
 211:/home/takumi/takumique/main/reservoir/app/reservoir.c ****       }
 212:/home/takumi/takumique/main/reservoir/app/reservoir.c ****     }
 213:/home/takumi/takumique/main/reservoir/app/reservoir.c ****     MAT_INV(&inv_x, &x);
 214:/home/takumi/takumique/main/reservoir/app/reservoir.c ****   } else {
 215:/home/takumi/takumique/main/reservoir/app/reservoir.c ****     for(unsigned i = 0; i < res->x.n; i++) {
 766              		.loc 1 215 18 view .LVU192
 767 0030 0024     		movs	r4, #0
 768              	.L28:
 769              	.LVL82:
 770              		.loc 1 215 25 is_stmt 1 discriminator 1 view .LVU193
 771              		.loc 1 215 35 is_stmt 0 discriminator 1 view .LVU194
 772 0032 B36D     		ldr	r3, [r6, #88]
 773              		.loc 1 215 5 discriminator 1 view .LVU195
 774 0034 A342     		cmp	r3, r4
 775 0036 5AD9     		bls	.L41
 216:/home/takumi/takumique/main/reservoir/app/reservoir.c ****       *_MAT(res->x, i, i) += 0.1;
 776              		.loc 1 216 7 is_stmt 1 discriminator 3 view .LVU196
 777              		.loc 1 216 8 is_stmt 0 discriminator 3 view .LVU197
 778 0038 756D     		ldr	r5, [r6, #84]
 779 003a F36D     		ldr	r3, [r6, #92]
 780              		.loc 1 216 27 discriminator 3 view .LVU198
 781 003c 03FB0443 		mla	r3, r3, r4, r4
 782 0040 05EB8305 		add	r5, r5, r3, lsl #2
 783 0044 2868     		ldr	r0, [r5]	@ float
 784 0046 FFF7FEFF 		bl	__aeabi_f2d
 785              	.LVL83:
 786 004a 31A3     		adr	r3, .L44
 787 004c D3E90023 		ldrd	r2, [r3]
 788 0050 FFF7FEFF 		bl	__aeabi_dadd
 789              	.LVL84:
 790 0054 FFF7FEFF 		bl	__aeabi_d2f
 791              	.LVL85:
 792 0058 2860     		str	r0, [r5]	@ float
 215:/home/takumi/takumique/main/reservoir/app/reservoir.c ****       *_MAT(res->x, i, i) += 0.1;
 793              		.loc 1 215 39 is_stmt 1 discriminator 3 view .LVU199
 215:/home/takumi/takumique/main/reservoir/app/reservoir.c ****       *_MAT(res->x, i, i) += 0.1;
 794              		.loc 1 215 40 is_stmt 0 discriminator 3 view .LVU200
 795 005a 0134     		adds	r4, r4, #1
 796              	.LVL86:
 215:/home/takumi/takumique/main/reservoir/app/reservoir.c ****       *_MAT(res->x, i, i) += 0.1;
 797              		.loc 1 215 40 discriminator 3 view .LVU201
 798 005c E9E7     		b	.L28
 799              	.LVL87:
 800              	.L29:
 215:/home/takumi/takumique/main/reservoir/app/reservoir.c ****       *_MAT(res->x, i, i) += 0.1;
 801              		.loc 1 215 40 discriminator 3 view .LVU202
 802              	.LBE10:
 803              	.LBB11:
 804              	.LBB12:
 206:/home/takumi/takumique/main/reservoir/app/reservoir.c ****         *_MAT(x, n, m) = *_MAT(res->x, n, m);
 805              		.loc 1 206 36 is_stmt 1 discriminator 2 view .LVU203
 206:/home/takumi/takumique/main/reservoir/app/reservoir.c ****         *_MAT(x, n, m) = *_MAT(res->x, n, m);
 806              		.loc 1 206 37 is_stmt 0 discriminator 2 view .LVU204
 807 005e 0134     		adds	r4, r4, #1
 808              	.LVL88:
 809              	.L31:
ARM GAS  /tmp/ccKwe6To.s 			page 20


 206:/home/takumi/takumique/main/reservoir/app/reservoir.c ****         *_MAT(x, n, m) = *_MAT(res->x, n, m);
 810              		.loc 1 206 27 is_stmt 1 discriminator 1 view .LVU205
 206:/home/takumi/takumique/main/reservoir/app/reservoir.c ****         *_MAT(x, n, m) = *_MAT(res->x, n, m);
 811              		.loc 1 206 32 is_stmt 0 discriminator 1 view .LVU206
 812 0060 069B     		ldr	r3, [sp, #24]
 206:/home/takumi/takumique/main/reservoir/app/reservoir.c ****         *_MAT(x, n, m) = *_MAT(res->x, n, m);
 813              		.loc 1 206 7 discriminator 1 view .LVU207
 814 0062 A342     		cmp	r3, r4
 815 0064 22D9     		bls	.L42
 207:/home/takumi/takumique/main/reservoir/app/reservoir.c ****         if(n == m) {
 816              		.loc 1 207 9 is_stmt 1 view .LVU208
 207:/home/takumi/takumique/main/reservoir/app/reservoir.c ****         if(n == m) {
 817              		.loc 1 207 27 is_stmt 0 view .LVU209
 818 0066 726D     		ldr	r2, [r6, #84]
 819 0068 F16D     		ldr	r1, [r6, #92]
 820 006a 05FB0141 		mla	r1, r5, r1, r4
 821 006e 02EB8101 		add	r1, r2, r1, lsl #2
 207:/home/takumi/takumique/main/reservoir/app/reservoir.c ****         if(n == m) {
 822              		.loc 1 207 10 view .LVU210
 823 0072 05FB0343 		mla	r3, r5, r3, r4
 824 0076 049A     		ldr	r2, [sp, #16]
 825 0078 02EB8303 		add	r3, r2, r3, lsl #2
 207:/home/takumi/takumique/main/reservoir/app/reservoir.c ****         if(n == m) {
 826              		.loc 1 207 26 view .LVU211
 827 007c 0A68     		ldr	r2, [r1]	@ float
 207:/home/takumi/takumique/main/reservoir/app/reservoir.c ****         if(n == m) {
 828              		.loc 1 207 24 view .LVU212
 829 007e 1A60     		str	r2, [r3]	@ float
 208:/home/takumi/takumique/main/reservoir/app/reservoir.c ****           *_MAT(x, n, m) += 0.1;
 830              		.loc 1 208 9 is_stmt 1 view .LVU213
 208:/home/takumi/takumique/main/reservoir/app/reservoir.c ****           *_MAT(x, n, m) += 0.1;
 831              		.loc 1 208 11 is_stmt 0 view .LVU214
 832 0080 A542     		cmp	r5, r4
 833 0082 ECD1     		bne	.L29
 209:/home/takumi/takumique/main/reservoir/app/reservoir.c ****         }
 834              		.loc 1 209 11 is_stmt 1 view .LVU215
 209:/home/takumi/takumique/main/reservoir/app/reservoir.c ****         }
 835              		.loc 1 209 26 is_stmt 0 view .LVU216
 836 0084 069B     		ldr	r3, [sp, #24]
 837 0086 05FB0348 		mla	r8, r5, r3, r4
 838 008a 049B     		ldr	r3, [sp, #16]
 839 008c 03EB8808 		add	r8, r3, r8, lsl #2
 840 0090 D8F80000 		ldr	r0, [r8]	@ float
 841 0094 FFF7FEFF 		bl	__aeabi_f2d
 842              	.LVL89:
 843 0098 1DA3     		adr	r3, .L44
 844 009a D3E90023 		ldrd	r2, [r3]
 845 009e FFF7FEFF 		bl	__aeabi_dadd
 846              	.LVL90:
 847 00a2 FFF7FEFF 		bl	__aeabi_d2f
 848              	.LVL91:
 849 00a6 C8F80000 		str	r0, [r8]	@ float
 850 00aa D8E7     		b	.L29
 851              	.L42:
 209:/home/takumi/takumique/main/reservoir/app/reservoir.c ****         }
 852              		.loc 1 209 26 view .LVU217
 853              	.LBE12:
ARM GAS  /tmp/ccKwe6To.s 			page 21


 205:/home/takumi/takumique/main/reservoir/app/reservoir.c ****       for(unsigned m = 0; m < x.m; m++) {
 854              		.loc 1 205 34 is_stmt 1 discriminator 2 view .LVU218
 205:/home/takumi/takumique/main/reservoir/app/reservoir.c ****       for(unsigned m = 0; m < x.m; m++) {
 855              		.loc 1 205 35 is_stmt 0 discriminator 2 view .LVU219
 856 00ac 0135     		adds	r5, r5, #1
 857              	.LVL92:
 858              	.L27:
 205:/home/takumi/takumique/main/reservoir/app/reservoir.c ****       for(unsigned m = 0; m < x.m; m++) {
 859              		.loc 1 205 25 is_stmt 1 discriminator 1 view .LVU220
 205:/home/takumi/takumique/main/reservoir/app/reservoir.c ****       for(unsigned m = 0; m < x.m; m++) {
 860              		.loc 1 205 30 is_stmt 0 discriminator 1 view .LVU221
 861 00ae 059B     		ldr	r3, [sp, #20]
 205:/home/takumi/takumique/main/reservoir/app/reservoir.c ****       for(unsigned m = 0; m < x.m; m++) {
 862              		.loc 1 205 5 discriminator 1 view .LVU222
 863 00b0 AB42     		cmp	r3, r5
 864 00b2 03D9     		bls	.L43
 865              	.LBB13:
 206:/home/takumi/takumique/main/reservoir/app/reservoir.c ****         *_MAT(x, n, m) = *_MAT(res->x, n, m);
 866              		.loc 1 206 20 view .LVU223
 867 00b4 3C46     		mov	r4, r7
 868 00b6 D3E7     		b	.L31
 869              	.LVL93:
 870              	.L38:
 206:/home/takumi/takumique/main/reservoir/app/reservoir.c ****         *_MAT(x, n, m) = *_MAT(res->x, n, m);
 871              		.loc 1 206 20 view .LVU224
 872              	.LBE13:
 205:/home/takumi/takumique/main/reservoir/app/reservoir.c ****       for(unsigned m = 0; m < x.m; m++) {
 873              		.loc 1 205 18 view .LVU225
 874 00b8 3D46     		mov	r5, r7
 875 00ba F8E7     		b	.L27
 876              	.LVL94:
 877              	.L43:
 205:/home/takumi/takumique/main/reservoir/app/reservoir.c ****       for(unsigned m = 0; m < x.m; m++) {
 878              		.loc 1 205 18 view .LVU226
 879              	.LBE11:
 213:/home/takumi/takumique/main/reservoir/app/reservoir.c ****   } else {
 880              		.loc 1 213 5 is_stmt 1 view .LVU227
 881 00bc 04A9     		add	r1, sp, #16
 882 00be 6846     		mov	r0, sp
 883 00c0 FFF7FEFF 		bl	mat_f32_inv
 884              	.LVL95:
 885              	.L32:
 217:/home/takumi/takumique/main/reservoir/app/reservoir.c ****     }
 218:/home/takumi/takumique/main/reservoir/app/reservoir.c ****     MAT_INV(&inv_x, &res->x);
 219:/home/takumi/takumique/main/reservoir/app/reservoir.c ****   }
 220:/home/takumi/takumique/main/reservoir/app/reservoir.c ****   MAT_PRODUCT(&res->out_weights, &inv_x, &res->y);
 886              		.loc 1 220 3 view .LVU228
 887 00c4 06F16402 		add	r2, r6, #100
 888 00c8 6946     		mov	r1, sp
 889 00ca 06F14400 		add	r0, r6, #68
 890 00ce FFF7FEFF 		bl	mat_f32_product
 891              	.LVL96:
 191:/home/takumi/takumique/main/reservoir/app/reservoir.c ****   MAT_T x, inv_x;
 892              		.loc 1 191 7 is_stmt 0 view .LVU229
 893 00d2 0024     		movs	r4, #0
 894              	.L26:
 895              	.LVL97:
ARM GAS  /tmp/ccKwe6To.s 			page 22


 221:/home/takumi/takumique/main/reservoir/app/reservoir.c **** oom_fail:
 222:/home/takumi/takumique/main/reservoir/app/reservoir.c ****   if(!reset) {
 896              		.loc 1 222 3 is_stmt 1 view .LVU230
 897              		.loc 1 222 5 is_stmt 0 view .LVU231
 898 00d4 BFB9     		cbnz	r7, .L34
 223:/home/takumi/takumique/main/reservoir/app/reservoir.c ****     MAT_DESTROY(res->mem, &x);
 899              		.loc 1 223 5 is_stmt 1 view .LVU232
 900 00d6 04A9     		add	r1, sp, #16
 901 00d8 3068     		ldr	r0, [r6]
 902 00da FFF7FEFF 		bl	mat_f32_destroy
 903              	.LVL98:
 904              	.L35:
 224:/home/takumi/takumique/main/reservoir/app/reservoir.c ****   } else {
 225:/home/takumi/takumique/main/reservoir/app/reservoir.c ****     _init_xy(res);
 226:/home/takumi/takumique/main/reservoir/app/reservoir.c ****   }
 227:/home/takumi/takumique/main/reservoir/app/reservoir.c ****   MAT_DESTROY(res->mem, &inv_x);
 905              		.loc 1 227 3 view .LVU233
 906 00de 6946     		mov	r1, sp
 907 00e0 3068     		ldr	r0, [r6]
 908 00e2 FFF7FEFF 		bl	mat_f32_destroy
 909              	.LVL99:
 228:/home/takumi/takumique/main/reservoir/app/reservoir.c ****   return ret;
 910              		.loc 1 228 3 view .LVU234
 229:/home/takumi/takumique/main/reservoir/app/reservoir.c **** }
 911              		.loc 1 229 1 is_stmt 0 view .LVU235
 912 00e6 2046     		mov	r0, r4
 913 00e8 08B0     		add	sp, sp, #32
 914              	.LCFI10:
 915              		.cfi_remember_state
 916              		.cfi_def_cfa_offset 24
 917              		@ sp needed
 918 00ea BDE8F081 		pop	{r4, r5, r6, r7, r8, pc}
 919              	.LVL100:
 920              	.L41:
 921              	.LCFI11:
 922              		.cfi_restore_state
 218:/home/takumi/takumique/main/reservoir/app/reservoir.c ****   }
 923              		.loc 1 218 5 is_stmt 1 view .LVU236
 924 00ee 06F15401 		add	r1, r6, #84
 925 00f2 6846     		mov	r0, sp
 926 00f4 FFF7FEFF 		bl	mat_f32_inv
 927              	.LVL101:
 928 00f8 E4E7     		b	.L32
 929              	.LVL102:
 930              	.L36:
 195:/home/takumi/takumique/main/reservoir/app/reservoir.c ****       goto oom_fail;
 931              		.loc 1 195 11 is_stmt 0 view .LVU237
 932 00fa 4FF0FF34 		mov	r4, #-1
 933 00fe E9E7     		b	.L26
 934              	.L37:
 200:/home/takumi/takumique/main/reservoir/app/reservoir.c ****     goto oom_fail;
 935              		.loc 1 200 9 view .LVU238
 936 0100 4FF0FF34 		mov	r4, #-1
 937 0104 E6E7     		b	.L26
 938              	.LVL103:
 939              	.L34:
 225:/home/takumi/takumique/main/reservoir/app/reservoir.c ****   }
ARM GAS  /tmp/ccKwe6To.s 			page 23


 940              		.loc 1 225 5 is_stmt 1 view .LVU239
 941 0106 3046     		mov	r0, r6
 942 0108 FFF7FEFF 		bl	_init_xy
 943              	.LVL104:
 944 010c E7E7     		b	.L35
 945              	.L45:
 946 010e 00BF     		.align	3
 947              	.L44:
 948 0110 9A999999 		.word	2576980378
 949 0114 9999B93F 		.word	1069128089
 950              		.cfi_endproc
 951              	.LFE153:
 953              		.section	.text.train,"ax",%progbits
 954              		.align	1
 955              		.global	train
 956              		.syntax unified
 957              		.thumb
 958              		.thumb_func
 959              		.fpu fpv4-sp-d16
 961              	train:
 962              	.LVL105:
 963              	.LFB154:
 230:/home/takumi/takumique/main/reservoir/app/reservoir.c **** 
 231:/home/takumi/takumique/main/reservoir/app/reservoir.c **** int train(reservoir_t *res, MAT_T *data, unsigned reset) {
 964              		.loc 1 231 58 view -0
 965              		.cfi_startproc
 966              		@ args = 0, pretend = 0, frame = 0
 967              		@ frame_needed = 0, uses_anonymous_args = 0
 968              		.loc 1 231 58 is_stmt 0 view .LVU241
 969 0000 38B5     		push	{r3, r4, r5, lr}
 970              	.LCFI12:
 971              		.cfi_def_cfa_offset 16
 972              		.cfi_offset 3, -16
 973              		.cfi_offset 4, -12
 974              		.cfi_offset 5, -8
 975              		.cfi_offset 14, -4
 976 0002 0446     		mov	r4, r0
 977 0004 1546     		mov	r5, r2
 232:/home/takumi/takumique/main/reservoir/app/reservoir.c ****   if(train_feed_data(res, data) < 0) {
 978              		.loc 1 232 3 is_stmt 1 view .LVU242
 979              		.loc 1 232 6 is_stmt 0 view .LVU243
 980 0006 FFF7FEFF 		bl	train_feed_data
 981              	.LVL106:
 982              		.loc 1 232 5 view .LVU244
 983 000a 0028     		cmp	r0, #0
 984 000c 07DB     		blt	.L48
 233:/home/takumi/takumique/main/reservoir/app/reservoir.c ****     return -1;
 234:/home/takumi/takumique/main/reservoir/app/reservoir.c ****   }
 235:/home/takumi/takumique/main/reservoir/app/reservoir.c ****   if(train_compute_weight(res, reset) < 0) {
 985              		.loc 1 235 3 is_stmt 1 view .LVU245
 986              		.loc 1 235 6 is_stmt 0 view .LVU246
 987 000e 2946     		mov	r1, r5
 988 0010 2046     		mov	r0, r4
 989 0012 FFF7FEFF 		bl	train_compute_weight
 990              	.LVL107:
 991              		.loc 1 235 5 view .LVU247
 992 0016 0028     		cmp	r0, #0
ARM GAS  /tmp/ccKwe6To.s 			page 24


 993 0018 04DB     		blt	.L49
 236:/home/takumi/takumique/main/reservoir/app/reservoir.c ****     return -1;
 237:/home/takumi/takumique/main/reservoir/app/reservoir.c ****   }
 238:/home/takumi/takumique/main/reservoir/app/reservoir.c ****   return 0;
 994              		.loc 1 238 10 view .LVU248
 995 001a 0020     		movs	r0, #0
 996              	.L46:
 239:/home/takumi/takumique/main/reservoir/app/reservoir.c **** }
 997              		.loc 1 239 1 view .LVU249
 998 001c 38BD     		pop	{r3, r4, r5, pc}
 999              	.LVL108:
 1000              	.L48:
 233:/home/takumi/takumique/main/reservoir/app/reservoir.c ****     return -1;
 1001              		.loc 1 233 12 view .LVU250
 1002 001e 4FF0FF30 		mov	r0, #-1
 1003 0022 FBE7     		b	.L46
 1004              	.L49:
 236:/home/takumi/takumique/main/reservoir/app/reservoir.c ****     return -1;
 1005              		.loc 1 236 12 view .LVU251
 1006 0024 4FF0FF30 		mov	r0, #-1
 1007 0028 F8E7     		b	.L46
 1008              		.cfi_endproc
 1009              	.LFE154:
 1011              		.section	.text.predict,"ax",%progbits
 1012              		.align	1
 1013              		.global	predict
 1014              		.syntax unified
 1015              		.thumb
 1016              		.thumb_func
 1017              		.fpu fpv4-sp-d16
 1019              	predict:
 1020              	.LVL109:
 1021              	.LFB155:
 240:/home/takumi/takumique/main/reservoir/app/reservoir.c **** 
 241:/home/takumi/takumique/main/reservoir/app/reservoir.c **** // heap: n_res_nodes + n_res_nodes
 242:/home/takumi/takumique/main/reservoir/app/reservoir.c **** int predict(reservoir_t *res, MAT_T *predicted, MAT_T *data) {
 1022              		.loc 1 242 62 is_stmt 1 view -0
 1023              		.cfi_startproc
 1024              		@ args = 0, pretend = 0, frame = 32
 1025              		@ frame_needed = 0, uses_anonymous_args = 0
 1026              		.loc 1 242 62 is_stmt 0 view .LVU253
 1027 0000 F0B5     		push	{r4, r5, r6, r7, lr}
 1028              	.LCFI13:
 1029              		.cfi_def_cfa_offset 20
 1030              		.cfi_offset 4, -20
 1031              		.cfi_offset 5, -16
 1032              		.cfi_offset 6, -12
 1033              		.cfi_offset 7, -8
 1034              		.cfi_offset 14, -4
 1035 0002 8BB0     		sub	sp, sp, #44
 1036              	.LCFI14:
 1037              		.cfi_def_cfa_offset 64
 1038 0004 0446     		mov	r4, r0
 1039 0006 0E46     		mov	r6, r1
 1040 0008 1746     		mov	r7, r2
 243:/home/takumi/takumique/main/reservoir/app/reservoir.c ****   int ret = 0;
 1041              		.loc 1 243 3 is_stmt 1 view .LVU254
ARM GAS  /tmp/ccKwe6To.s 			page 25


 1042              	.LVL110:
 244:/home/takumi/takumique/main/reservoir/app/reservoir.c ****   MAT_T next, temp;
 1043              		.loc 1 244 3 view .LVU255
 245:/home/takumi/takumique/main/reservoir/app/reservoir.c ****   if(MAT_NEW(res->mem, &next, 1, res->n_res_nodes) < 0) {
 1044              		.loc 1 245 3 view .LVU256
 1045              		.loc 1 245 6 is_stmt 0 view .LVU257
 1046 000a 8368     		ldr	r3, [r0, #8]
 1047 000c 0122     		movs	r2, #1
 1048              	.LVL111:
 1049              		.loc 1 245 6 view .LVU258
 1050 000e 06A9     		add	r1, sp, #24
 1051              	.LVL112:
 1052              		.loc 1 245 6 view .LVU259
 1053 0010 0068     		ldr	r0, [r0]
 1054              	.LVL113:
 1055              		.loc 1 245 6 view .LVU260
 1056 0012 FFF7FEFF 		bl	mat_f32_new
 1057              	.LVL114:
 1058              		.loc 1 245 5 view .LVU261
 1059 0016 0028     		cmp	r0, #0
 1060 0018 26DB     		blt	.L53
 246:/home/takumi/takumique/main/reservoir/app/reservoir.c ****     ret = -1;
 247:/home/takumi/takumique/main/reservoir/app/reservoir.c ****     goto oom_fail;
 248:/home/takumi/takumique/main/reservoir/app/reservoir.c ****   }
 249:/home/takumi/takumique/main/reservoir/app/reservoir.c ****   if(MAT_NEW(res->mem, &temp, 1, res->n_res_nodes) < 0) {
 1061              		.loc 1 249 3 is_stmt 1 view .LVU262
 1062              		.loc 1 249 6 is_stmt 0 view .LVU263
 1063 001a A368     		ldr	r3, [r4, #8]
 1064 001c 0122     		movs	r2, #1
 1065 001e 02A9     		add	r1, sp, #8
 1066 0020 2068     		ldr	r0, [r4]
 1067 0022 FFF7FEFF 		bl	mat_f32_new
 1068              	.LVL115:
 1069              		.loc 1 249 5 view .LVU264
 1070 0026 0028     		cmp	r0, #0
 1071 0028 21DB     		blt	.L54
 250:/home/takumi/takumique/main/reservoir/app/reservoir.c ****     ret = -1;
 251:/home/takumi/takumique/main/reservoir/app/reservoir.c ****     goto oom_fail;
 252:/home/takumi/takumique/main/reservoir/app/reservoir.c ****   }
 253:/home/takumi/takumique/main/reservoir/app/reservoir.c ****   _get_next_node_state(res, &temp, &next, &res->res_nodes, data);
 1072              		.loc 1 253 3 is_stmt 1 view .LVU265
 1073 002a 04F12405 		add	r5, r4, #36
 1074 002e 0097     		str	r7, [sp]
 1075 0030 2B46     		mov	r3, r5
 1076 0032 06AA     		add	r2, sp, #24
 1077 0034 02A9     		add	r1, sp, #8
 1078 0036 2046     		mov	r0, r4
 1079 0038 FFF7FEFF 		bl	_get_next_node_state
 1080              	.LVL116:
 254:/home/takumi/takumique/main/reservoir/app/reservoir.c ****   MAT_COPY(&res->res_nodes, &next);
 1081              		.loc 1 254 3 view .LVU266
 1082 003c 06A9     		add	r1, sp, #24
 1083 003e 2846     		mov	r0, r5
 1084 0040 FFF7FEFF 		bl	mat_f32_copy
 1085              	.LVL117:
 255:/home/takumi/takumique/main/reservoir/app/reservoir.c ****   MAT_PRODUCT(predicted, &res->res_nodes, &res->out_weights);
 1086              		.loc 1 255 3 view .LVU267
ARM GAS  /tmp/ccKwe6To.s 			page 26


 1087 0044 04F14402 		add	r2, r4, #68
 1088 0048 2946     		mov	r1, r5
 1089 004a 3046     		mov	r0, r6
 1090 004c FFF7FEFF 		bl	mat_f32_product
 1091              	.LVL118:
 243:/home/takumi/takumique/main/reservoir/app/reservoir.c ****   MAT_T next, temp;
 1092              		.loc 1 243 7 is_stmt 0 view .LVU268
 1093 0050 0025     		movs	r5, #0
 1094              	.L52:
 1095              	.LVL119:
 256:/home/takumi/takumique/main/reservoir/app/reservoir.c **** oom_fail:
 257:/home/takumi/takumique/main/reservoir/app/reservoir.c ****   MAT_DESTROY(res->mem, &next);
 1096              		.loc 1 257 3 is_stmt 1 view .LVU269
 1097 0052 06A9     		add	r1, sp, #24
 1098 0054 2068     		ldr	r0, [r4]
 1099 0056 FFF7FEFF 		bl	mat_f32_destroy
 1100              	.LVL120:
 258:/home/takumi/takumique/main/reservoir/app/reservoir.c ****   MAT_DESTROY(res->mem, &temp);
 1101              		.loc 1 258 3 view .LVU270
 1102 005a 02A9     		add	r1, sp, #8
 1103 005c 2068     		ldr	r0, [r4]
 1104 005e FFF7FEFF 		bl	mat_f32_destroy
 1105              	.LVL121:
 259:/home/takumi/takumique/main/reservoir/app/reservoir.c ****   return ret;
 1106              		.loc 1 259 3 view .LVU271
 260:/home/takumi/takumique/main/reservoir/app/reservoir.c **** }
 1107              		.loc 1 260 1 is_stmt 0 view .LVU272
 1108 0062 2846     		mov	r0, r5
 1109 0064 0BB0     		add	sp, sp, #44
 1110              	.LCFI15:
 1111              		.cfi_remember_state
 1112              		.cfi_def_cfa_offset 20
 1113              		@ sp needed
 1114 0066 F0BD     		pop	{r4, r5, r6, r7, pc}
 1115              	.LVL122:
 1116              	.L53:
 1117              	.LCFI16:
 1118              		.cfi_restore_state
 246:/home/takumi/takumique/main/reservoir/app/reservoir.c ****     goto oom_fail;
 1119              		.loc 1 246 9 view .LVU273
 1120 0068 4FF0FF35 		mov	r5, #-1
 1121 006c F1E7     		b	.L52
 1122              	.L54:
 250:/home/takumi/takumique/main/reservoir/app/reservoir.c ****     goto oom_fail;
 1123              		.loc 1 250 9 view .LVU274
 1124 006e 4FF0FF35 		mov	r5, #-1
 1125 0072 EEE7     		b	.L52
 1126              		.cfi_endproc
 1127              	.LFE155:
 1129              		.text
 1130              	.Letext0:
 1131              		.file 2 "/usr/lib/gcc/arm-none-eabi/9.2.1/include/stddef.h"
 1132              		.file 3 "/usr/include/newlib/sys/_types.h"
 1133              		.file 4 "/usr/include/newlib/sys/reent.h"
 1134              		.file 5 "/usr/include/newlib/sys/lock.h"
 1135              		.file 6 "/usr/include/newlib/math.h"
 1136              		.file 7 "Drivers/CMSIS/DSP/Include/arm_math.h"
ARM GAS  /tmp/ccKwe6To.s 			page 27


 1137              		.file 8 "/home/takumi/takumique/main/reservoir/app/cmcis/mat.h"
 1138              		.file 9 "/home/takumi/takumique/main/reservoir/app/reservoir.h"
 1139              		.file 10 "/usr/include/newlib/stdlib.h"
 1140              		.file 11 "<built-in>"
ARM GAS  /tmp/ccKwe6To.s 			page 28

